Ec:_glClearStencil
jZe:_Array_InternalArray__ICollection_Add_TisMark_t2724874473_m1613484179_gshared
J6g:__ZL80Graphic_t2426225576_CustomAttributesCacheGenerator_Graphic_OnFillVBO_m1723985607P21CustomAttributesCache
Eih:_RuntimeTypeHandle_GetObjectData_m3567098501
VId:__ZN6il2cpp2vm5Array13GetByteLengthEP11Il2CppArray
Mci:_Raycast3DCallback_BeginInvoke_m3028685017
EF:__Z102Register_UnityEngine_Experimental_Director_AnimatorControllerPlayable_INTERNAL_CALL_ResetTriggerStringv
oDf:_Comparison_1_Invoke_m353639462_gshared
cIh:_UInt64_System_IConvertible_ToDecimal_m4205696037
PKe:_GraphicRegistry_RegisterGraphicForCanvas_m2284226562
QBa:__Z21SourceMipLevelForBlitiiii
tlb:__ZN31CanvasBatchIntermediateRenderer15AddAsRenderNodeER15RenderNodeQueueRK20DeprecatedSourceData
PRg:__ZL51GUILayer_t3254902478_CustomAttributesCacheGeneratorP21CustomAttributesCache
xje:_Enumerator_get_Key_m2908810861
AD:__ZN23AnimationOffsetPlayable11SetRotationE11Quaternionf
zB:__ZN11UnityEngine9Animation28GenericAnimationBindingCacheD2Ev
p8h:_EqualityComparer_1__cctor_m968537130_gshared
E9e:_List_1_System_Collections_IList_IndexOf_m39706221_gshared
ame:_Decimal_op_Implicit_m2971610317
awj:_TextGenerator_get_lineCount_m4287181941
zLe:_Graphic_UnregisterDirtyVerticesCallback_m1526739224
X3a:__Z18RestoreRenderStateR20CameraRenderOldStateR17ShaderPassContext
dfe:_SynchronizedArrayListWrapper_get_Item_m3309425850
ENb:__Z18Transfer_BlittableI18StreamedBinaryReadILb1EELb1E5RectTIfEEvRK29SerializationCommandArgumentsR31RuntimeSerializationCommandInfo
oKb:__Z18Transfer_BlittableI24GenerateTypeTreeTransferLb0E11ColorRGBA32EvRK29SerializationCommandArgumentsR31RuntimeSerializationCommandInfo
B3:__Z25scripting_class_from_name17ScriptingImagePtrPKcS1_
fvd:__ZN14dense_hash_mapI10KeyWrapperINSt3__24pairIPK12PropertyInfoP11Il2CppClassEEEj17ReflectionMapHashIS8_ENS9_14EqualsComparerINS1_8equal_toIS8_EEEENS1_9allocatorINS2_IKS9_jEEEEE15set_deleted_keyERSH_
dEb:__Z29scripting_class_enum_basetype17ScriptingClassPtr
nZj:_emscripten_glDeleteBuffers__wrapper
Vrh:_GenericTypeParameterBuilder_GetHashCode_m867619899
hEh:_TimeSpan_ToString_m2947282901
I7h:_EqualityComparer_1__cctor_m3397254040_gshared
TW:__ZNK20LocalFileSystemPosix6ParentERK13FileEntryDataRN4core12basic_stringIcNS3_20StringStorageDefaultIcEEEE
Wvj:_TextGenerator_get_verts_m3124035267
kyj:_Vector2_get_one_m3174311904
s2e:_Array_Sort_TisVector2_t2243707579_m1307634946_gshared
rra:__ZN17PersistentManager22CheckInstanceIDsLoadedEPii
Iza:__ZN7ApiGLES17CopyBufferSubDataEjjlll
Lbj:_AnimatorControllerPlayable_IsInTransition_m4064534331
pvj:_TextGenerationSettings_CompareColors_m991725620
NAj:_U3CCreateWhereIteratorU3Ec__Iterator1D_1_Reset_m1773515612_gshared
xXa:__ZN25CameraStackRenderingState20GetOrCreateBuiltinRTE24BuiltinRenderTextureTypeii17DepthBufferFormat19RenderTextureFormatj22RenderTextureReadWrite14VRTextureUsagei
sAj:_AesManaged_CreateEncryptor_m1729287824
_$a:__ZN17PrePassRenderLoop14RenderBasePassEP13RenderTextureRK14LightingLayersR13dynamic_arrayI16RenderObjectDataLj4EERbR10MinMaxAABB
hce:_Char_System_IConvertible_ToInt16_m2741348777_AdjustorThunk
Vlc:__ZN5IMGUI18RepaintModalWindowER8GUIState
Lgb:__ZN21ArchiveStorageCreator10InitializeERKN4core12basic_stringIcNS0_20StringStorageDefaultIcEEEEb
cwf:_ReadOnlyCollection_1_System_Collections_Generic_IListU3CTU3E_set_Item_m1547026160_gshared
Hxg:__ZL61MarshalAsAttribute_t2900773360_CustomAttributesCacheGeneratorP21CustomAttributesCache
dsb:__Z23SetSpriteMeshIndexCountP14SharedMeshDataj
nca:__ZN7Texture13SetFilterModeEi
_ce:_Char_ToUpper_m109978609
HKd:__ZN6il2cpp8metadata13GenericMethod9GetMethodEPK19Il2CppGenericMethod
Cq:__ZNSt3__26vectorIN4core12basic_stringIcNS1_20StringStorageDefaultIcEEEENS_9allocatorIS5_EEE7reserveEj
voe:_Convert_ToUInt16_m2130758075
$ng:_X509BasicConstraintsExtension_Encode_m3505127076
sdi:_Scrollbar_OnRectTransformDimensionsChange_m330142657
sua:__ZN13GfxDeviceGLES11SetViewportERK5RectTIiE
mNe:_Image_get_pixelsPerUnit_m4104195799
hji:_Toggle_InternalToggle_m2323729210
mse:_Decimal_System_IConvertible_ToInt64_m2504363272
p7d:_Array_GetValue_m3182152438
Wd:_emscripten_glDepthRange
Ekh:_DESTransform_CipherFunct_m3559419566
RIh:_UIntPtr_get_Size_m537421489
OVd:_Rijndael_Create_m113171669
bNh:_GUILayoutGroup_CalcWidth_m4107152934
OSb:__Z14resize_trimmedINSt3__26vectorIN9ShaderLab20SerializedSubProgram12UAVParameterENS0_9allocatorIS4_EEEEEvRT_j
Aaa:__Z20PlayerLoadFirstSceneb
Fdh:_SerializationInfo_AddValue_m1781549036
Pbg:_TlsServerKeyExchange_verifySignature_m3641534563
t9b:__ZN13BuildSettings34ConvertScenePathToDisplayScenePathERKN4core12basic_stringIcNS0_20StringStorageDefaultIcEEEE
vhi:_Slider_FindSelectableOnLeft_m3136767885
oBa:__ZN4crndL20crnd_default_reallocEPvjPjbS0_
hWe:_Array_BinarySearch_TisInt32_t2071877448_m51233948_gshared
C8b:__ZN7Texture11SetWrapModeEi
eRj:__ZNSt3__212basic_stringIcNS_11char_traitsIcEENS_9allocatorIcEEEC2ERKS5_
aeh:_ProviderData_CopyFrom_m431414335
Vzh:_UTF32Encoding_GetPreamble_m767706727
djc:__Z33Texture_CUSTOM_Internal_GetHeightP12Il2CppObject
CRe:_LayoutGroup_get_preferredHeight_m3901163825
YVa:__ZN23ScriptableRenderContextC2Ev
Mle:_DateTime_AbsoluteDays_m3061694073
n9i:_AnimationClipPlayable_set_speed_m3332297554
NYc:_UNITY_FT_Stream_GetChar
Igf:_List_1_CheckIndex_m4231572822_gshared
_Zh:_Enumerator_System_Collections_IEnumerator_get_Current_m229223308_gshared
pEb:__Z26BuildSerializationCacheFor17ScriptingClassPtrRb
acj:_AnimatorControllerPlayable_CrossFadeInFixedTimeInternal_m3729673154
G7i:_Event_Init_m3901382626
yfb:__ZN10FileSystem12MountHandlerEP17FileSystemHandler
Oee:_FixedSizeArrayListWrapper_AddRange_m2071800418
RB:__ZN13ProduceHelperI8AnimatorLb0EE7ProduceE18MemLabelIdentifier18ObjectCreationMode
paa:__Z9InitInputv
r8e:_Enumerator_VerifyState_m2358705882_AdjustorThunk
gLb:__Z29Transfer_Blittable_ArrayFieldI24GenerateTypeTreeTransfer11ColorRGBA32EvRT_R9ArrayInfoRK23StaticTransferFieldInfo
Gqd:__ZN6il2cpp2gc19AppendOnlyGCHashMapINSt3__24pairIPK10MethodInfoP11Il2CppClassEEP22Il2CppReflectionMethod17ReflectionMapHashIS9_ENS2_8equal_toIS9_EEE3AddERKS9_SB_
yab:__ZN16MemoryFileSystem6DeleteER13FileEntryDatab
Cyj:_Vector3_get_normalized_m936072361
npa:__ZL21BlitScaleStbImageImplRK14ImageReferenceRS_NS_10ColorSpaceE
uig:_TlsStream_set_Position_m378064217
WFc:__ZNSt3__26__sortIR31RayHitsByInverseDepthComparitorP12RaycastHit2DEEvT0_S5_T_
XGb:__Z29Transfer_Blittable_ArrayFieldI14SafeBinaryReadyEvRT_R9ArrayInfoRK23StaticTransferFieldInfo
pM:__ZN20SoundChannelInstance15setChannelGroupEPN4FMOD12ChannelGroupE
$_d:_Evidence_Equals_m2325859915
dnh:_Default__ctor_m172834064
sc:invoke_vifffii
pBb:__ZN20ArchiveStorageReader17MakeStorageUnusedEv
Tmj:_Regex_IsMatch_m2159202025
DKa:__ZNK25MultiBlocksMemoryFileData5CloneEv
sPd:_GC_add_ext_descriptor
Weh:_RemotingServices_GetMethodBaseFromName_m3271095947
bKi:__Z71RuntimeInvoker_TimeSpan_t3430258949_Double_t4078015681_Int64_t909078037PK10MethodInfoPvPS2_
iTj:dynCall_iiiiiiiiiiii
w4d:_ASCIIEncoding_GetBytes_m3617160053
Tag:_CipherSuiteCollection_System_Collections_IList_RemoveAt_m143866082
QC:__ZN26AnimatorControllerPlayable26ParameterControlledByCurveEi
_Wb:__ZL26KeywordSetToStringDontSortRKNSt3__26vectorIN4core12basic_stringIcNS1_20StringStorageDefaultIcEEEENS_9allocatorIS5_EEEERS5_
L4c:__Z54Register_UnityEngine_Analytics_CustomEventData_AddCharv
yka:__ZN6prcoreL17RemapGenericFloatI16TexFormatRGFloat17TexFormatRGBAHalfEEvPKNS_9InnerInfoE
SG:__ZN12AudioManager22CreateFMODSoundFromWWWEP10IWWWStream15FMOD_SOUND_TYPE17FMOD_SOUND_FORMATjjbbP10SampleClip
H2b:__ZNK32RendererMaterialAnimationBinding15GenerateBindingERKN4core12basic_stringIcNS0_20StringStorageDefaultIcEEEEbRN11UnityEngine9Animation14GenericBindingE
R2:__ZN8Remapper23GetOrGenerateInstanceIDERK26SerializedObjectIdentifier
ZQf:_StreamWriter_Flush_m3426120024
Ya:invoke_iiiiiifffiiifii
DOf:_MemoryStream__ctor_m1489366847
u$d:_SecurityElement_IsValidTag_m64902195
b_h:_Enumerator_System_Collections_IEnumerator_get_Current_m229223308_AdjustorThunk
Vxh:_PropertyInfo_SetValue_m2961483868
qMh:_GUILayoutEntry_set_style_m70917293
jff:_List_1_System_Collections_IList_Contains_m4193366963_gshared
Bnh:_ConstructorInfo_Invoke_m2144827141
qsb:__ZN6Sprite8TransferI24GenerateTypeTreeTransferEEvRT_
hkc:__Z48Register_UnityEngine_Transform_SetAsFirstSiblingv
CKh:_Font_get_fontSize_m1732593415
ssb:__ZN7SubMesh8TransferI24GenerateTypeTreeTransferEEvRT_
Etd:__ZN14dense_hash_mapI10KeyWrapperIPK14Il2CppAssemblyEPK16MonoAssemblyNameN6il2cpp5utils11PointerHashIS2_EENS4_14EqualsComparerINSt3__28equal_toIS3_EEEENSD_9allocatorINSD_4pairIKS4_S7_EEEEE13set_empty_keyERSJ_
Zwh:_MonoProperty_get_CanWrite_m2124922514
uVi:__Z112RuntimeInvoker_Int32_t2071877448_Il2CppObject_Int32_t2071877448_Int32_t2071877448_Int32_t2071877448_Il2CppObjectPK10MethodInfoPvPS2_
gQj:_poll
pOf:_Stream_BeginRead_m1985960185
dPh:_GUIStyle_GetFontInternalDuringLoadingThread_m229734483
u0b:__ZN13ProduceHelperI14Texture2DArrayLb0EE7ProduceE18MemLabelIdentifier18ObjectCreationMode
h8f:_MD4Managed_GG_m1462438360
Dgc:__Z46Mesh_CUSTOM_PrintErrorCantAccessMeshForIndicesP12Il2CppObject
Wbc:__ZN9Transform23SetSiblingIndexInternalEib
dMf:_BinaryReader_CheckBuffer_m1059275266
Fua:__ZN13GfxDeviceGLES17DestroySubProgramEPN9ShaderLab10SubProgramE
Dx:__ZN7mecanim5human12HumanPoseSubERNS0_9HumanPoseERKS1_S4_
V7f:_MD4_Create_m2582504069
SCd:__ZN6il2cpp8metadata15GenericMetadata15GetGenericClassEiPK17Il2CppGenericInst
U9d:_Boolean_System_IConvertible_ToInt16_m977801621
QFb:__Z18Transfer_BlittableI14SafeBinaryReadLb0E10Matrix4x4fEvRK29SerializationCommandArgumentsR31RuntimeSerializationCommandInfo
mOa:__Z24GetFixedBehaviourManagerv
vUa:__ZN12FlareManager9UpdateJobEP25FlareManagerUpdateJobData
kjd:__ZN6il2cpp2vm10ThreadPool4WaitEP17Il2CppAsyncResultPPv
rOj:_vfprintf
F0i:_Debug_get_logger_m4173808038
iVa:__ZN20DynamicPropertySheetD0Ev
m8a:__ZN14SafeBinaryRead17RegisterConverterEPKcS1_PFbPvRS_E
oZ:__ZN35RegisterRuntimeInitializeAndCleanup8RegisterEPFvPvES2_iS0_
LBf:_ReadOnlyCollection_1_System_Collections_IList_Clear_m2600246370_gshared
aOi:__Z135RuntimeInvoker_RaycastHit2D_t4063908774_Vector2_t2243707579_Vector2_t2243707579_Single_t2076509932_Int32_t2071877448_Single_t2076509932PK10MethodInfoPvPS2_
q$f:_DSAManaged_NormalizeArray_m2287089393
Tti:_InternalEnumerator_1_System_Collections_IEnumerator_get_Current_m2389982234_AdjustorThunk
qOa:__ZN8Material26ResetAllCachedMaterialDataEP6Shader
YYc:_UNITY_TT_Get_MM_Var
Wpa:__ZN24GenerateTypeTreeTransfer21TransferResourceImageE19ActiveResourceImagePKcR13StreamingInfoPvjiPKN5Unity4TypeE
ba:invoke_diddi
uBe:_ExecuteEvents__cctor_m288775360
o_c:__ZNK2UI6Canvas13GetRenderModeEv
Rme:_Double_TryParseStringConstant_m2585405703
cTh:_Mathf_RoundToInt_m2927198556
oFb:__Z18Transfer_BlittableI14SafeBinaryReadLb0EiEvRK29SerializationCommandArgumentsR31RuntimeSerializationCommandInfo
_hd:__ZN6il2cpp2vm13MetadataCache30GetPropertyDefinitionFromIndexEi
cdj:_ResourceEnumerator__ctor_m1679839941
ZVd:_RijndaelTransform_Clear_m1652144089
F3e:_BaseInvokableCall_ThrowOnInvalidArg_TisIl2CppObject_m1349548392_gshared
x7c:__ZN22BaseUnityConnectClient17InitializeSessionERKN4core12basic_stringIcNS0_20StringStorageDefaultIcEEEES6_N19CloudServiceHandler13InitModeFlagsE
IVf:_NumberFormatter_get_IsZero_m1325357749
awe:_Enum_ToObject_m322320225
phc:__ZN13MonoBehaviour34StopCoroutineFromEnumeratorManagedE18ScriptingObjectPtr
HZd:_X509Certificate__ctor_m3860837120
CF:__Z100Register_UnityEngine_Experimental_Director_AnimatorControllerPlayable_INTERNAL_CALL_SetTriggerStringv
IKh:_GameObject_Internal_CreateGameObject_m3428198595
F3i:_Camera_RaycastTry2D_m755036866
GBf:_ReadOnlyCollection_1_System_Collections_Generic_IListU3CTU3E_set_Item_m3663361643_gshared
$wc:__ZN11UnityEngine9Analytics18SceneLoadTimeEvent12SetSceneLoadERKN4core12basic_stringIcNS2_20StringStorageDefaultIcEEEEiyyyy
lbj:_AnimatorControllerPlayable_GetCurrentAnimatorStateInfo_m689786022
TAb:__ZN30RuntimeInitializeOnLoadManager8TransferI18StreamedBinaryReadILb0EEEEvRT_
dqh:_TypeBuilder_not_supported_m3178173643
bRc:_UNITY_tt_face_load_pclt
SBb:__ZN21ArchiveStorageCreator14StoreDirectoryEv
Nac:__ZL34GetComponentsImplementationRecurseILb1ELi0ELi2EEbR10GameObjectbRK17CompareParametersRK39GetComponentsImplementation_ReturnValue
tDc:__ZN10ClipperLib7Clipper24InsertLocalMinimaIntoAELEx
D4h:_Dictionary_2_Init_m1045257495_gshared
Pwc:__ZNK27PerformanceReportingManager26GetTypeInfoVirtualInternalEv
vee:_ArrayListWrapper_Remove_m1105489978
wUa:__ZNK6Camera18WorldToScreenPointERK8Vector3fPb
s3c:__ZN14UnityAnalyticsD0Ev
mie:_HashKeys_CopyTo_m3566668422
pce:_Convert_ToSByte_m2665932200
e2:__ZNSt3__227__insertion_sort_incompleteIRPFbRKN18AwakeFromLoadQueue4ItemES4_EPS2_EEbT0_S9_T_
Jrj:_PKCS12_Encrypt_m2154408631
_oh:_ILGenerator_label_fixup_m1325994348
Ujh:_Base64Constants__cctor_m1807522504
Qbi:_Navigation_Equals_m4214630671_AdjustorThunk
Syf:_ReadOnlyCollection_1_System_Collections_Generic_IListU3CTU3E_set_Item_m257196015_gshared
luh:_FieldInfo_GetPseudoCustomAttributes_m2500972355
Cpb:__ZN26EnlightenSystemInformation8TransferI14SafeBinaryReadEEvRT_
Abg:_TlsClientCertificate__ctor_m987604448
r4e:_Array_InternalArray__get_Item_TisLink_t2723257478_m2281261655_gshared
zvb:__ZN12MeshRendererD0Ev
nhe:_Hashtable__ctor_m2702360557
Fh:_utime
fod:__ZNSt3__26vectorIN6il2cpp2vm17TypeNameParseInfoENS_9allocatorIS3_EEE8allocateEj
H6f:_PrimalityTest_Invoke_m4058801829
Keh:_RemotingConfiguration_SetCustomErrorsMode_m1844153208
yn:FUNCTION_TABLE_viiiiii
GVi:__Z84RuntimeInvoker_Int32_t2071877448_Il2CppObject_CustomAttributeNamedArgument_t94157543PK10MethodInfoPvPS2_
wye:_CultureInfo_GetFormat_m3560116485
QA:__ZN7mecanim9animation22DestroyAvatarWorkspaceEPNS0_15AvatarWorkspaceERNS_6memory9AllocatorE
Ptj:_ScriptableObject_CreateInstance_m3271154163
xrg:_FactoryCache__ctor_m254400436
tnj:_AnchorInfo_get_IsPosition_m3791659233
SXe:_Array_InternalArray__IndexOf_TisResourceCacheItem_t333236149_m761772858_gshared
Qlc:__ZNSt3__210__list_impIN10GUIManager12SortedScriptE11memory_poolIS2_EE5clearEv
Omb:__ZN14PlayableOutput17SetSourcePlayableEP8Playable
efh:_TrackingServices__cctor_m3639412334
woc:__Z32GUIStyle_Set_Custom_PropRichTextP12Il2CppObjecth
Fu:__ZN7mecanim9animation29MotionOutputGetDeltaTransformEPKNS0_12MotionOutputE
q_b:__Z13RegisterClassI16GraphicsSettingsEvv
_wc:__ZN27PerformanceReportingManager21OnSceneTimingCallbackERK15SceneLoadTimingRKN4core12basic_stringIcNS3_20StringStorageDefaultIcEEEE
AC:__ZN8Animator14OnAddComponentEPN5Unity9ComponentE
olf:_List_1_CheckMatch_m1184924052_gshared
Fjc:__Z43Transform_CUSTOM_INTERNAL_get_localRotationP12Il2CppObjectP11Quaternionf
tXj:_glGetShaderInfoLog__wrapper
gi:_emscripten_glGetTexParameteriv
c9f:_RSAManaged_ImportParameters_m3060955884
xfj:_ChannelData_CopyFrom_m4049054607
w_b:__Z13RegisterClassI4MeshEvv
YWe:_Array_FindLastIndex_TisIl2CppObject_m869210470_gshared
smb:__ZN8PlayableD0Ev
hI:__ZN12AudioManager8TransferI19StreamedBinaryWriteILb0EEEEvRT_
WOf:_WriteDelegate_Invoke_m2103848735
POb:__ZN18StreamedBinaryReadILb1EE21TransferSTLStyleArrayI13dynamic_arrayI11ColorRGBA32Lj4EEEEvRT_17TransferMetaFlags
Mzj:_Locale_GetText_m512920887
CPb:__Z18Transfer_BlittableI18StreamedBinaryReadILb0EELb0E8Vector2fEvRK29SerializationCommandArgumentsR31RuntimeSerializationCommandInfo
seh:_RemotingConfiguration_get_ProcessId_m3870172209
uZh:_SceneManager_LoadScene_m1386820036
YGf:_SortKey_ToString_m2406913228
jX:__ZN22LocalFileSystemHandler9MakeLocalER13FileEntryDatab
MLd:__ZN6il2cpp2vm8Profiler10AllocationEP12Il2CppObjectP11Il2CppClass
Xle:_Convert_ToDateTime_m1020507389
VNc:__ZNSt3__23mapIN20TextRenderingPrivate7FontRefENS1_6OSFontENS_4lessIS2_EENS_9allocatorINS_4pairIKS2_S3_EEEEEixERS8_
mjd:__ZN6il2cpp2vm8basepathEPKc
qgh:_ObjectManager_RegisterObjectInternal_m879109503
zSe:_Array_get_swapper_TisVector4_t2243707581_m97441823_gshared
tra:__ZNSt3__26__sortIRNS_4lessIiEEPiEEvT0_S5_T_
cLc:__ZN14SafeBinaryRead21TransferSTLStyleArrayI10vector_mapINSt3__24pairIttEEfN20TextRenderingPrivate8FontImpl14KerningCompareENS2_9allocatorINS3_IS4_fEEEEEEEvRT_17TransferMetaFlags
T_b:__Z13RegisterClassI15QualitySettingsEvv
YKd:__ZN6il2cpp2vm6String21InitializeEmptyStringEP11Il2CppClass
P$a:__ZN25DeferredRenderLoopScratchD0Ev
Jy:__ZN27AnimationLayerMixerPlayable14SetInputWeightEif
zx:__ZN7mecanim9animation17EvaluateHumanPoseERKNS0_18ClipMuscleConstantERKNS0_15ClipMuscleInputEPKfRKNS0_12MotionOutputERNS_5human9HumanPoseE
gJc:__ZN14dense_hash_mapINSt3__24pairIPK10Collider2DS4_EE11Collision2DNS2_23ColliderPairHashFunctorENS0_8equal_toIS5_EE13stl_allocatorINS1_IKS5_S6_EEL18MemLabelIdentifier65ELi16EEE15set_deleted_keyERSB_
BSb:__ZN15dense_hashtableINSt3__24pairIKiN4core17string_with_labelILi1EEEEEi18SInt32HashFunctionN14dense_hash_mapIiS5_S7_NS0_8equal_toIiEE13stl_allocatorIS6_L18MemLabelIdentifier1ELi16EEE9SelectKeyESA_SD_E9copy_fromERKSG_j
Cea:__ZN6Camera11ResetAspectEv
bog:_X509BasicConstraintsExtension_get_HasPathLengthConstraint_m3788532759
qlb:__ZNK17InstancedPropInfo22FillInstancePropertiesER19ShaderPropertySheetjPK17BatchInstanceDatajRK15RenderNodeQueue
$fa:__ZN22CreateGpuProgramOutputD2Ev
XAd:__ZN6il2cpp6icalls8mscorlib6System2IO6MonoIO9SetLengthE12Il2CppIntPtrxPi
SSd:__ZN6il2cpp8metadata22Il2CppSignatureCompare6EqualsERK13dynamic_arrayIPK10Il2CppTypeLj4EES8_
xO:__ZN13ProduceHelperI13AudioListenerLb0EE7ProduceE18MemLabelIdentifier18ObjectCreationMode
bEf:_DateTimeFormatInfo_GetInstance_m3133223810
$5f:_ModulusRing_BarrettReduction_m2802101099
eLa:__ZN12HandlerChain4OpenER13FileEntryData14FilePermission16FileAutoBehavior
Kqd:__ZN15dense_hashtableINSt3__24pairIK10KeyWrapperINS1_IPK10MethodInfoP11Il2CppClassEEEjEES9_17ReflectionMapHashIS8_EN14dense_hash_mapIS9_jSD_NS9_14EqualsComparerINS0_8equal_toIS8_EEEENS0_9allocatorISB_EEE9SelectKeyESI_SK_E6insertERKSB_
hxc:__ZN27PerformanceReportingManager29OnSceneLoadedAfterAwakeStaticEPS_iR18AwakeFromLoadQueueN19RuntimeSceneManager11LoadingModeE
S4:__ZN14FileCacherReadD2Ev
xqa:__ZN13RendererScene23UpdatePreviousFrameDataEii
BXd:_RSAPKCS1SignatureDeformatter_VerifySignature_m1825067195
sKj:__ZL25UnresolvedVirtualCall_123P12Il2CppObjectffPK10MethodInfo
jec:__Z50Register_UnityEngine_CullingGroup_FinalizerFailurev
K6e:_KeyValuePair_2_ToString_m2613351884_gshared
zjb:__ZN6Camera15ThreadedCleanupEv
P5g:__ZL69ColorBlock_t2652774230_CustomAttributesCacheGenerator_m_DisabledColorP21CustomAttributesCache
Sci:_Scrollbar__ctor_m2244981801
TAd:__ZN6il2cpp6icalls8mscorlib6System2IO6MonoIO9GetLengthE12Il2CppIntPtrPi
eYd:_SHA256Managed_HashCore_m4111458495
mye:_CultureInfo_get_CompareInfo_m3085280862
ryg:__ZL55Dictionary_2_t2276497324_CustomAttributesCacheGeneratorP21CustomAttributesCache
rhh:_ObjectManager_RecordDelayedFixup_m1895730844
P7d:_ArrayTypeMismatchException__ctor_m1898555879
hG:__ZN9AudioClip23VirtualRedirectTransferER18StreamedBinaryReadILb0EE
tcg:_ClientSessionInfo_CheckDisposed_m1394638186
tjh:_SByte_Parse_m2544167007
l1d:_Single_CompareTo_m2081476257
KQi:__Z61RuntimeInvoker_Boolean_t3825574718_Int32_t2071877448_IntPtr_tPK10MethodInfoPvPS2_
Rdb:__ZN24GenerateTypeTreeTransfer8TransferIN11AssetBundle9AssetInfoEEEvRT_PKc17TransferMetaFlags
FYf:_BigInteger__ctor_m2945783161
deg:_TlsClientHello_Update_m1723542631
bIf:_IndexOutOfRangeException__ctor_m3497760912
Fj:_glCopyTexSubImage2D
dQa:_UNITY_png_write_zTXt
eW:__ZN18ScreenManagerWebGL13SetShowCursorEb
JLd:__ZN6il2cpp6icalls8mscorlib6System7Convert24InternalFromBase64StringEP12Il2CppStringb
ANa:__ZZ23InitPlayerLoopCallbacksvEN37EarlyUpdateProcessMouseInWindowstruct7ForwardEv
Fii:_Text_get_preferredWidth_m3352156860
Y0c:__ZN2UI13CanvasManager14GetRenderOrderEPKNS_6CanvasE
OFb:__Z18Transfer_BlittableI14SafeBinaryReadLb0E5RectTIfEEvRK29SerializationCommandArgumentsR31RuntimeSerializationCommandInfo
Wzf:_ReadOnlyCollection_1_System_Collections_Generic_IListU3CTU3E_RemoveAt_m878653284_gshared
YAa:__ZN18AsyncUploadManager19AsyncResourceUploadER9GfxDeviceii9TextureID
fAa:__ZN14GfxContextGLES14GetFramebufferEv
EZj:_emscripten_glGenVertexArrays__wrapper
nja:__ZN6prcoreL21CreateRemapAnyBlitterE13TextureFormatS0_
i9b:__ZN17AnimationCurveTplIfE16StripInvalidKeysEv
MYe:_Array_InternalArray__ICollection_Add_TisKeyValuePair_2_t3716250094_m2381539361_gshared
Q3f:_X509Extension_WriteLine_m2850991173
Q$c:__ZNK2UI6Canvas17GetSortingLayerIDEv
UFc:__ZN14Raycast2DQuery8RunQueryEb
D4b:__Z13RegisterClassI17GlobalGameManagerEvv
l2a:__ZN8Renderer24SetupNewRendererForSceneEv
VTe:_Array_InternalArray__ICollection_Remove_TisInt64_t909078037_m2653583130_gshared
hBh:_Thread_get_ExecutionContext_m922067206
y5b:__ZN14PlayableOutput6HandleEv
tn:FUNCTION_TABLE_iiiiiiiiiiiiii
TRc:_UNITY_tt_get_cmap_info
e6a:__ZN16ReflectionProbes8ScheduleEN18ReflectionProbeJob7JobTypeEP15ReflectionProbei
jtf:_Collection_1_IsFixedSize_m3675221982_gshared
L5:__ZN16MessageForwarder13HandleMessageEPviR11MessageData
u9e:_Enumerator_MoveNext_m3293920409_AdjustorThunk
zX:__Z18IsDirectoryCreatedRKN4core12basic_stringIcNS_20StringStorageDefaultIcEEEE
hwi:_Comparer_1__cctor_m3112251759_gshared
lng:_X509KeyUsageExtension_ToString_m1992050580
ANc:_UNITY_FT_GlyphLoader_Done
K7b:__ZN9Polygon2D16CheckConsistencyEv
gfj:_ConstructionCall__ctor_m1143766850
gRh:_GUIStyleState_Init_m2434147050
iwi:_Comparer_1_System_Collections_IComparer_Compare_m3203078743_gshared
AGc:__ZN19OverlapPointQuery2D14InitializeAABBER6b2AABB
HSc:_tt_cmap14_char_var_index
cKi:__Z77RuntimeInvoker_TimeSpan_t3430258949_TimeSpan_t3430258949_TimeSpan_t3430258949PK10MethodInfoPvPS2_
eUc:_psh_globals_new
KOf:_FileStream_Seek_m950719389
hme:_Decimal_stripStyles_m294582157
aBh:_UTF8Decoder_GetChars_m3819660582
Nta:__ZN9GfxDevice20SetMaxBufferedFramesEi
Pff:_List_1_RemoveAll_m4125997475_gshared
QBc:__ZN10Collider2D19WakeAllBodyContactsEv
zTj:dynCall_vdd
t0c:__ZN2UIL17UnloadAllCanvasesEv
H9a:__Z23ConvertIntegerToTypePtrIsEbPvR14SafeBinaryRead
Kzc:__ZN12b2MouseJoint11ShiftOriginERK6b2Vec2
qcd:__ZN6il2cpp2vm5Class12HasAttributeEP11Il2CppClassS3_
See:_FixedSizeArrayListWrapper_Remove_m1359458911
Oui:_InternalEnumerator_1_get_Current_m747506907_gshared
vja:__ZN6prcoreL29inner_stretch_rgb565_bilinearEPKNS_9InnerInfoE
apj:_Uri__ctor_m3927533881
I2c:__Z33Canvas_Get_Custom_PropWorldCameraP12Il2CppObject
Thi:_Text_get_mainTexture_m813502234
X_a:__ZNK14RenderSettings19GetFlatAmbientColorEv
a6a:__ZN6prcoreL10inner_flipILj4EEEvPhS1_j
Byb:__ZN18StreamedBinaryReadILb0EE21TransferSTLStyleArrayI10vector_mapIPKN5Unity4TypeE7Hash128NSt3__24lessIS6_EENS8_9allocatorINS8_4pairIS6_S7_EEEEEEEvRT_17TransferMetaFlags
Wu:__ZNK27StateMachineBehaviourPlayer15IsSenderEnabledEv
S$i:_CustomEventData_Add_m1028036439
exi:_Enumerator_VerifyState_m2118679243_gshared
YNe:_InputField_get_shouldHideMobileInput_m3694613599
ckc:__Z40Register_UnityEngine_Transform_SetParentv
t2i:_AudioConfigurationChangeHandler_Invoke_m635374412
gtb:__ZN14Texture2DArray17UploadToGfxDeviceEv
qzf:_ReadOnlyCollection_1_System_Collections_Generic_IListU3CTU3E_Insert_m4216310986_gshared
Avf:_ReadOnlyCollection_1_System_Collections_Generic_IListU3CTU3E_set_Item_m1532495847_gshared
UJ:__Z14FMODMemoryFreePvjPKc
Dfb:__ZN15dense_hashtableINSt3__24pairIKN4core12basic_stringIcNS2_20StringStorageDefaultIcEEEES6_EES6_20StringHash32FunctionIS6_EN14dense_hash_mapIS6_S6_SA_NS0_8equal_toIS6_EE13stl_allocatorIS8_L18MemLabelIdentifier54ELi16EEE9SelectKeyESD_SG_EC2ERKSJ_j
zNe:_Image_AddQuad_m1600600902
xVc:_cf2_glyphpath_moveTo
Wqe:_DateTimeOffset__ctor_m1796624924
eNh:_GUILayoutUtility_get_spaceStyle_m1918520192
Pze:_BaseRaycaster_OnDisable_m1716508791
LTe:_Array_InternalArray__ICollection_Remove_TisKeyValuePair_2_t3716250094_m2566517826_gshared
pbd:__ZN6il2cpp2vmL15GetBitmapNoInitEP11Il2CppClassPjRjj
APd:_GC_is_heap_ptr
Ut:__ZN7mecanim5human10RetargetToEPKNS0_5HumanEPKNS0_9HumanPoseES6_RKN4math4trsXEPS4_PNS_8skeleton13SkeletonPoseTIS8_EESF_
Wx:__ZN7mecanim9animation8SeekClipERKNS0_12StreamedClipERNS0_18StreamedClipMemoryEf
jm:_emscripten_glIsTexture
eTh:_Mathf_Clamp_m3542052159
yee:_ArrayListWrapper_CopyTo_m793444109
Qk:_emscripten_glHint
LYc:_ft_var_readpackeddeltas
nqe:_DateTime_AddMilliseconds_m1813199744_AdjustorThunk
Hth:_TypeBuilder_IsValueTypeImpl_m1499671481
Bqg:_X509ChainStatus_t4278378721_marshal_pinvoke
U8f:_RSAManaged__ctor_m1680944437
mm:_SDL_UpperBlit
kQh:_GUIStyle_op_Implicit_m781448948
C$a:__Z35GetTextureDecodeValuesWithIntensity16TextureUsageMode17TextureColorSpace10ColorSpacef
Bbe:_Byte_GetHashCode_m2885528842_AdjustorThunk
_ud:__ZN15dense_hashtableINSt3__24pairIK10KeyWrapperINS1_IPK9EventInfoP11Il2CppClassEEEjEES9_17ReflectionMapHashIS8_EN14dense_hash_mapIS9_jSD_NS9_14EqualsComparerINS0_8equal_toIS8_EEEENS0_9allocatorISB_EEE9SelectKeyESI_SK_E15set_deleted_keyERKSB_
t2h:_Dictionary_2_OnDeserialization_m2092139626_gshared
Fzc:__ZNK12b2MouseJoint10GetAnchorAEv
t1:__ZN19RuntimeSceneManagerC2E18MemLabelIdentifier
HDb:__ZN14SafeBinaryRead20OverrideRootTypeNameEPKc
W4:__ZN14FileCacherRead16UnlockCacheBlockEj
U2f:_X509Certificate_GetUnsignedBigInteger_m3491353542
qLc:__ZNSt3__26vectorIN4core12basic_stringIcNS1_20StringStorageDefaultIcEEEE13stl_allocatorIS5_L18MemLabelIdentifier34ELi16EEE6assignINS_11__wrap_iterIPS5_EEEENS_9enable_ifIXaasr21__is_forward_iteratorIT_EE5valuesr16is_constructibleIS5_NS_15iterator_traitsISF_E9referenceEEE5valueEvE4typeESF_SF_
d2a:__ZN6Camera6RenderER11CullResultsR17ShaderPassContextPK21CameraRenderingParamsNS_10RenderFlagE
Qc:_emscripten_glUniform1f
FZb:__ZN13dynamic_arrayIS_I8Vector2fLj4EELj4EE18resize_initializedEjRKS1_12ResizePolicy
shg:_SslStreamBase_get_MightNeedHandshake_m3432170694
$Nc:__Z20ParseImageParametersR11UTF16StringRiRN20TextRenderingPrivate16TextFormatChangeE
Vc:_emscripten_glUniform1i
yDb:__ZN13MonoBehaviour9CallAwakeEv
lNh:__Z14bankers_roundff
XTb:__ZN9ShaderLab16SerializedTagMapaSERKS0_
eR:__ZN11UnityEngine15CloudWebService16SessionContainer20RestoreSessionHeaderERKN4core12basic_stringIcNS2_20StringStorageDefaultIcEEEES8_RNS0_13SessionHeaderE
Kqe:_DateTime_ToString_m1117481977
wRd:__ZN6il2cpp2os12Cryptography23GetCryptographyProviderEv
EA:__ZN11UnityEngine9Animation27CreateAvatarBindingConstantER9TransformPKN7mecanim9animation14AvatarConstantERNS3_6memory9AllocatorE
qAb:__ZN14SafeBinaryRead21TransferSTLStyleArrayINSt3__26vectorIN30RuntimeInitializeOnLoadManager9ClassInfoE13stl_allocatorIS4_L18MemLabelIdentifier12ELi16EEEEEEvRT_17TransferMetaFlags
AJh:_UnitySerializationHolder_GetObjectData_m2280028722
Pkj:_PatternCompiler_EmitFalse_m1188949782
aIh:_UInt64_System_IConvertible_ToDateTime_m2412118561
zbc:__ZN9BlobWriteC2ER13dynamic_arrayIhLj16EE24TransferInstructionFlags19BuildTargetPlatform
p3:__ZN14MessageHandler3GetEv
DOh:_GUISkin_set_verticalScrollbarThumb_m2647835739
GAa:__ZN10DynamicVBO9DrawChunkERK21DynamicVBOChunkHandle17ShaderChannelMaskS3_P17VertexDeclarationPKNS_10DrawParamsEi
hd:_emscripten_glAttachShader
gYb:__Z16tesedgeIntersectP10TESSvertexS0_S0_S0_S0_
hyf:_ReadOnlyCollection_1__ctor_m1539890895_gshared
Mta:__ZN9GfxDevice13SetActiveTierE12GraphicsTier
e8e:_Enumerator_System_Collections_IEnumerator_get_Current_m3079057684_AdjustorThunk
ixb:__ZNSt3__26vectorIN4core12basic_stringIcNS1_20StringStorageDefaultIcEEEENS_9allocatorIS5_EEE6assignIPS5_EENS_9enable_ifIXaasr21__is_forward_iteratorIT_EE5valuesr16is_constructibleIS5_NS_15iterator_traitsISC_E9referenceEEE5valueEvE4typeESC_SC_
K$f:_KeyPairPersistence_get_UserPath_m3433052783
Tug:__ZL58Decimal_t724701077_CustomAttributesCacheGenerator_MinusOneP21CustomAttributesCache
AFb:__Z18Transfer_BlittableI14SafeBinaryReadLb0E11QuaternionfEvRK29SerializationCommandArgumentsR31RuntimeSerializationCommandInfo
$Pb:__Z18Transfer_BlittableI18StreamedBinaryReadILb0EELb1E12PropertyNameEvRK29SerializationCommandArgumentsR31RuntimeSerializationCommandInfo
rV:_tlsf_walk_heap
s2f:_PKCS12_Decode_m731190390
Uqi:_InternalEnumerator_1_get_Current_m1550231132_gshared
NJh:_Version_CheckedSet_m76493673
mb:invoke_vif
nb:invoke_vid
vRj:__ZNSt3__212basic_stringIcNS_11char_traitsIcEENS_9allocatorIcEEE6insertEjPKc
uHg:__ZL67UnverifiableCodeAttribute_t765455733_CustomAttributesCacheGeneratorP21CustomAttributesCache
pb:invoke_vii
FIf:_Int16_System_IConvertible_ToUInt32_m883204517_AdjustorThunk
cxj:_Transform_get_localRotation_m4001487205
Fbb:__ZN12TLSAllocatorI14StackAllocatorE16ThreadInitializeEP13BaseAllocator
Wde:_ArrayList_Sort_m2778059513
qMe:_LayoutGroup_SetChildAlongAxis_m2732017156
P1c:__Z41CanvasRenderer_CUSTOM_DisableRectClippingP12Il2CppObject
L7f:_MD2_Create_m539024737
TKa:__ZN25SingleBlockMemoryFileDataD0Ev
Jdb:__ZNSt3__26vectorI14ConstantStringNS_9allocatorIS1_EEE6assignINS_11__wrap_iterIPS1_EEEENS_9enable_ifIXaasr21__is_forward_iteratorIT_EE5valuesr16is_constructibleIS1_NS_15iterator_traitsISA_E9referenceEEE5valueEvE4typeESA_SA_
$Q:__ZN11UnityEngine15CloudWebService16SessionContainer21ConvertFromFolderTimeERKN4core12basic_stringIcNS2_20StringStorageDefaultIcEEEEPjPt
PGb:__ZNSt3__26vectorI8GUIStyle13stl_allocatorIS1_L18MemLabelIdentifier1ELi16EEE7reserveEj
Ayd:__ZN6il2cpp6icalls8mscorlib6System9Threading6Thread27GetSerializedCurrentCultureEP12Il2CppThread
$Xe:_Array_InternalArray__IndexOf_TisUInt32_t2149682021_m3231515987_gshared
n0b:__Z31CalculateHierarchyTransformType23TransformAccessReadOnly
rfd:__ZN15dense_hashtableINSt3__24pairIK10KeyWrapperI13dynamic_arrayIPK10Il2CppTypeLj4EEEPFvvEEES8_N6il2cpp8metadata19Il2CppSignatureHashEN14dense_hash_mapIS8_SB_SF_NS8_14EqualsComparerINSE_22Il2CppSignatureCompareEEENS0_9allocatorISC_EEE9SelectKeyESJ_SL_E12resize_deltaEjj
M_b:__Z13RegisterClassI11TimeManagerEvv
KJ:__ZN4FMOD8ChannelI11setPositionEjj
d6i:_Component_SendMessage_m913946877
vNd:_GC_set_fl_marks
l9:__ZN17BaseObjectManager13StaticDestroyEPv
rvj:_TextGenerationSettings_CompareVector2_m592645251
xre:_DBNull_System_IConvertible_ToChar_m3344298044
F3f:_X509Certificate_GetObjectData_m3888130484
Uzb:__ZNSt3__26vectorIN15ResourceManager10DependencyE13stl_allocatorIS2_L18MemLabelIdentifier51ELi16EEEC2INS_11__wrap_iterIPS2_EEEET_SB_RKS5_PNS_9enable_ifIXaasr21__is_forward_iteratorISB_EE5valuesr16is_constructibleIS2_NS_15iterator_traitsISB_E9referenceEEE5valueEvE4typeE
ckj:_LinkStack_Push_m2660199875
EI:__ZN4FMOD6Reverb13setPropertiesEPK22FMOD_REVERB_PROPERTIES
SVa:__ZN9DepthPass13PrepareSubsetEjRK10RenderNodeifRK17ShaderReplaceData
URh:_Input_get_compositionString_m636835668
irj:_X509CertificateCollection_Add_m4008705157
Y7b:__Z35SetMeshComponentFromArrayFromScriptR4Mesh30InternalScriptingShaderChannel34InternalScriptingVertexChannelTypei17ScriptingArrayPtri
B9b:__Z18ExtractTagThrowingR11ICallString
rqf:_Collection_1_IsFixedSize_m1816795498_gshared
HNa:__ZZ23InitPlayerLoopCallbacksvEN40EarlyUpdatePlayerCleanupCachedDatastruct7ForwardEv
vq:__ZN4core20StringStorageDefaultIcE6assignEPKcj
SNh:_GUIStyleState_GetBackgroundInternal_m439046630
SDd:__ZN15dense_hashtableINSt3__24pairIK10KeyWrapperIP12Il2CppObjectEN6il2cpp2gc9CachedCCWEEES5_NS7_5utils11PointerHashIS3_EEN14dense_hash_mapIS5_S9_SD_NS5_14EqualsComparerINS0_8equal_toIS4_EEEENS0_9allocatorISA_EEE9SelectKeyESI_SK_E3endEv
tAb:__Z14resize_trimmedINSt3__26vectorIi13stl_allocatorIiL18MemLabelIdentifier12ELi16EEEEEvRT_j
ZCe:_MouseButtonEventData_ReleasedThisFrame_m482758300
Svd:__ZN15dense_hashtableINSt3__24pairIK10KeyWrapperINS1_IP11Il2CppClassjEEES4_EES6_N6il2cpp8metadata14ArrayClassHashEN14dense_hash_mapIS6_S4_SB_NS6_14EqualsComparerINSA_17ArrayClassCompareEEENS0_9allocatorIS8_EEE9SelectKeyESF_SH_E9copy_fromERKSK_j
Xee:_ReadOnlyArrayListWrapper_set_Item_m2199017141
L3a:__ZN6Camera6SetFarEf
drj:_DeriveBytes_DeriveIV_m3343375195
yPc:_UNITY_FT_Init_Class_ft_bitmap_glyph_class
PWd:_RNGCryptoServiceProvider_GetBytes_m167497991
aka:__ZN6prcoreL12RemapGenericI17TexFormatABGR888817TexFormatARGB8888EEvPKNS_9InnerInfoE
yhb:__ZN11GameManager17MainThreadCleanupEv
Feb:__Z17GetCachingManagerv
Dkd:__ZN6il2cpp6icalls8mscorlib6System18CollectTypeMethodsINS_5utils10functional6FilterINSt3__212basic_stringIcNS7_11char_traitsIcEENS7_9allocatorIcEEEENS4_11StringUtils23CaseInsensitiveComparerEEEEEvP11Il2CppClassPKSH_jRKT_RNS7_6vectorIPK10MethodInfoNSB_ISR_EEEERA65535_b
Nph:_TypeBuilder_get_Assembly_m492491492
yXc:_UNITY_tt_slot_init
BUd:_HMACSHA512__cctor_m1167457383
mRb:__Z25scripting_array_class_get17ScriptingClassPtrj
nsc:__ZL22Transfer_ManagedObjectI9JSONWriteLb1EEvRK29SerializationCommandArgumentsR31RuntimeSerializationCommandInfo
gva:__ZN9GfxDevice20DestroyRenderSurfaceER12ObjectHandleI17RenderSurface_TagP17RenderSurfaceBaseE
P0b:__ZL24PrepareSpriteRenderNodesILb1EEvR35RenderNodeQueuePrepareThreadContext
HIa:__ZN9GfxDevice22UpdateComputeResourcesEjPK9TextureIDPK16TextureDimensionPKijPKjjPK15ComputeBufferIDS7_PK20ComputeBufferCounterjSC_S2_S5_S9_SF_
l4b:__ZN12_GLOBAL__N_15qAsinEff
d3e:_Dictionary_2_Do_ICollectionCopyTo_TisKeyValuePair_2_t3749587448_m2536766696_gshared
Gbb:__ZN12TLSAllocatorI14StackAllocatorE13ThreadCleanupEv
zLd:__ZThn4_N6il2cpp2vm13ComObjectBase16MarshalInterfaceEP13Il2CppIStreamRK10Il2CppGuidPvjS7_j
$tb:__ZN4Mesh27SwizzleVertexColorsIfNeededEb
mcb:__Z27FindActiveTransformWithPathPKc
k4i:_CanvasGroup_get_alpha_m1304564441
V1i:_AsyncOperation_Finalize_m67522446
YJi:__Z56RuntimeInvoker_TimeSpan_t3430258949_TimeSpan_t3430258949PK10MethodInfoPvPS2_
jPa:_UNITY_png_write_info
YXa:__ZNK6Camera7GetNearEv
Pza:__ZN7ApiGLES11UnmapBufferEjN2gl12BufferTargetE
kHd:__ZN6il2cpp5utilsL24Utf32CharToSurrogatePairEjRA2_Ds
uob:__Z25GetNextAllowedTextureSizeib13TextureFormat
gX:__ZN20LocalFileSystemWebGL4CopyER13FileEntryDataS1_
_Nb:__Z18Transfer_BlittableI18StreamedBinaryReadILb1EELb1EdEvRK29SerializationCommandArgumentsR31RuntimeSerializationCommandInfo
$S:__ZN19CloudServiceHandler6RetainEv
B$d:_StrongName_Equals_m67226644
Kib:__ZN12BaseRenderer20FlattenToRenderQueueER15RenderNodeQueueRK20DeprecatedSourceData
uSf:_UnmanagedMemoryStream_get_Length_m587008850
Gma:__Z34scripting_liveness_calculation_endPv
MHd:__ZN6il2cpp2os6ThreadC2Ev
q0d:_SecurityFrame_InitFromRuntimeFrame_m45195821
ppg:_X509Chain_IsSignedWith_m292245392
QTe:_Array_InternalArray__ICollection_Remove_TisDateTime_t693205669_m1275668216_gshared
zOc:__ZNK19TextRenderingModule8TMGenGetERK11UTF16StringPN13TextRendering4FontE10TextAnchor13TextAlignmentfffbb11ColorRGBA32fii
Htc:__Z18Transfer_BlittableI8JSONReadLb0E8Vector3fEvRK29SerializationCommandArgumentsR31RuntimeSerializationCommandInfo
Bfj:_ChannelServices__cctor_m3534779830
txd:__ZN6il2cpp2vm6Thread6DetachEP12Il2CppThread
oTc:_Render_Single_Pass
$me:_Convert_ToInt16_m416789348
s5d:_EncoderExceptionFallback_Equals_m762170768
cai:_EqualityComparer_1__cctor_m2666196678_gshared
QLh:_GUIStyle_Init_m3872198731
KA:__ZN7mecanim8skeleton30SkeletonBuildReverseIndexArrayEPiPKiPKNS0_8SkeletonES6_
llc:__Z19GetGUIBlendMaterialv
yId:__ZN6il2cpp2os10ThreadImpl5SleepEjb
r4c:__ZN11UnityEngine9Analytics15UserCustomEvent3AddEPKcb
JBb:__ZN15FileSystemEntry4MoveERS_23FileSystemCopyMoveFlags
hjg:_ListDictionary_FindEntry_m432748847
dZj:_glBindSampler__wrapper
hDj:_UnityAction_1_Invoke_m3523417209_gshared
Of:_emscripten_set_mouseup_callback
i1f:_PrivateKeyInfo_Normalize_m3959595934
vuj:_SpaceAttribute__ctor_m1444406696
pW:__ZNK18ScreenManagerWebGL8GetWidthEv
KTj:dynCall_iiifii
ZLe:_GridLayoutGroup_set_startAxis_m1635162426
OF:__ZN10SampleClipD2Ev
hij:_SynchronizationAttribute_EnterContext_m2984912761
yye:_CultureInfo_construct_internal_locale_from_name_m971766383
g7b:__ZN19SpriteMeshGenerator7contourERNSt3__26vectorINS_6vertexENS0_9allocatorIS2_EEEERiRf
AZe:_Array_InternalArray__ICollection_Add_TisUIVertex_t1204258818_m3869382594_gshared
RD:__Z56AnimationOffsetPlayable_CUSTOM_INTERNAL_CALL_GetPositionR9HPlayableR8Vector3f
UWc:_cff_cmap_unicode_init
Rve:_Enum_ToObject_m2460371738
CZf:_PrimalityTests_Test_m1088386156
knc:__Z36Event_CUSTOM_Internal_SetNativeEvent13Il2Cpp_IntPtr
WPj:_readlink
Csd:__ZN15dense_hashtableINSt3__24pairIK10KeyWrapperINS1_IPK9EventInfoP11Il2CppClassEEEjEES9_17ReflectionMapHashIS8_EN14dense_hash_mapIS9_jSD_NS9_14EqualsComparerINS0_8equal_toIS8_EEEENS0_9allocatorISB_EEE9SelectKeyESI_SK_E12resize_deltaEjj
D1e:_Array_Resize_TisVector3_t2243707580_m893658391_gshared
jni:_InternalEnumerator_1_System_Collections_IEnumerator_get_Current_m4259662004_AdjustorThunk
Y4e:_Array_InternalArray__get_Item_TisKeyframe_t1449471340_m1003508933_gshared
m2f:_StrongName_get_PublicKeyToken_m1968460885
_wb:__ZNK6Sprite9GetBoundsE8Vector2fbb
vRa:__ZNK19RenderEventsContext21CleanupCommandBuffersEv
pya:__ZN11ContextGLES6CreateEi
$Lf:_BinaryReader_Dispose_m4249456877
Tng:_X500DistinguishedName_Decode_m3070515374
eme:_Double_ToString_m1085043609
NQb:__Z19TransferField_ArrayI18StreamedBinaryReadILb0EE27Converter_SimpleNativeClassI17AnimationCurveTplIfEEEvRK23StaticTransferFieldInfoR31RuntimeSerializationCommandInfoRT0_
nag:_CipherSuite_createEncryptionCipher_m1926075645
rbb:__ZN14StackAllocator16FrameMaintenanceEb
pLe:_Graphic_Raycast_m3582517890
cfb:__Z18ReadStringFromFilePN4core17string_with_labelILi1EEERKNS_12basic_stringIcNS_20StringStorageDefaultIcEEEE
v0:__ZNK10GameObject20QueryComponentByTypeEPKN5Unity4TypeE
j9e:_Enumerator_MoveNext_m1367380970_AdjustorThunk
bth:_OpCode_GetHashCode_m2974727122
oag:_CipherSuite_createDecryptionCipher_m1118350455
hlj:_PatternCompiler_EmitReference_m1381860071
UE:__Z78AnimatorControllerPlayable_CUSTOM_INTERNAL_CALL_IsParameterControlledByCurveIDR9HPlayablei
Hue:_Double_System_IConvertible_ToInt16_m4200640326
sfc:__Z53Register_UnityEngine_GameObject_get_activeInHierarchyv
qNi:__Z90RuntimeInvoker_Single_t2076509932_Single_t2076509932_Single_t2076509932_Single_t2076509932PK10MethodInfoPvPS2_
x_:__ZL30InitializeCoreScriptingClassesv
htf:_Collection_1_CheckWritable_m3938993573_gshared
Jg:_glBlitFramebuffer
KZf:_BigInteger_GeneratePseudoPrime_m2606361440
nIb:__Z35Transfer_Blittable_SingleValueFieldI14SafeBinaryReadhEvRT_R17GeneralMonoObjectRK23StaticTransferFieldInfo
K8c:__ZN22BaseUnityConnectClientC2ERN11UnityEngine7Connect20BasePersistentValuesE
fEi:__Z129RuntimeInvoker_Int32_t2071877448_Il2CppObject_Int32_t2071877448_Int32_t2071877448_Il2CppObject_Int32_t2071877448_SByte_t454417549PK10MethodInfoPvPS2_
Fch:_RemotingServices_GetRealProxy_m620317996
sWa:__ZN13dynamic_arrayI11CulledLightLj4EE6insertEPS0_PKS0_S4_
Ked:__ZNK15dense_hashtableI10KeyWrapperIPK19Il2CppGenericMethodES4_N6il2cpp8metadata23Il2CppGenericMethodHashEN14dense_hash_setIS4_S7_NS4_14EqualsComparerINS6_26Il2CppGenericMethodCompareEEENSt3__29allocatorIS4_EEE8IdentityESB_SE_E3endEv
oBj:_Predicate_1_Invoke_m2060780095_gshared
Rn:FUNCTION_TABLE_vif
Sn:FUNCTION_TABLE_vid
Un:FUNCTION_TABLE_vii
Sma:__Z40scripting_liveness_calculation_from_root18ScriptingObjectPtrPv
aPa:_UNITY_png_create_write_struct
dDi:__Z149RuntimeInvoker_Boolean_t3825574718_Int32_t2071877448_Il2CppObject_Int32_t2071877448_Int32_t2071877448_Il2CppObject_Int32_t2071877448_SByte_t454417549PK10MethodInfoPvPS2_
hfa:__ZN7Texture23VirtualRedirectTransferER24GenerateTypeTreeTransfer
FMc:_UNITY_FT_Set_Transform
eDd:__ZN6il2cpp8metadata15GenericMetadata20RegisterGenericClassEP18Il2CppGenericClass
KYj:_glDeleteFramebuffers__wrapper
RMe:_Image_get_overrideSprite_m706080347
O5f:_BigInteger_ModInverse_m1881894572
Ajd:__ZN6il2cpp2vm7Runtime17GetDelegateInvokeEP11Il2CppClass
Edf:_List_1_AddEnumerable_m3541747636_gshared
Epb:__ZN28EnlightenRendererInformation8TransferI14SafeBinaryReadEEvRT_
rCg:__ZL69DefaultDependencyAttribute_t3858269114_CustomAttributesCacheGeneratorP21CustomAttributesCache
zJa:__ZNK15Lz4Decompressor16DecompressMemoryEPKvPjPvS2_
KRc:_UNITY_tt_face_build_cmaps
HWh:_Ray_ToString_m2019179238
vIc:__ZN11Rigidbody2D8TransferI24GenerateTypeTreeTransferEEvRT_
Yre:_Decimal_System_IConvertible_ToType_m3828527724_AdjustorThunk
XQc:_UNITY_tt_face_load_os2
ZHc:__ZN17PolygonCollider2D8TransferI24GenerateTypeTreeTransferEEvRT_
D7f:_HMAC_get_Key_m2528863640
Vtf:_Collection_1_IsSynchronized_m1366278230_gshared
QHb:__Z29Transfer_Blittable_ArrayFieldI14SafeBinaryRead8Vector4fEvRT_R9ArrayInfoRK23StaticTransferFieldInfo
nSe:_Array_get_swapper_TisInt32_t2071877448_m2837069166_gshared
Ldi:_Selectable_Navigate_m915280351
bYh:_RectTransform_INTERNAL_get_rect_m1177342209
rCe:_PointerEventData_IsScrolling_m1971908975
zNd:_GC_print_finalization_stats
vx:__ZN7mecanim9animation12EvaluateClipEPKNS0_4ClipEPKNS0_9ClipInputEPNS0_10ClipMemoryEPNS0_10ClipOutputE
pwh:_MonoMethodInfo_GetReturnType_m2864247130
i0a:__ZN13RenderManager29SetCurrentCameraAndStackStateEP6CameraP25CameraStackRenderingState
fxd:__ZN15dense_hashtableINSt3__24pairIK10KeyWrapperINS1_IP11Il2CppClassjEEES4_EES6_N6il2cpp8metadata14ArrayClassHashEN14dense_hash_mapIS6_S4_SB_NS6_14EqualsComparerINSA_17ArrayClassCompareEEENS0_9allocatorIS8_EEE9SelectKeyESF_SH_E12resize_deltaEjj
Yh:_JS_WebRequest_Release
mNf:_DirectoryNotFoundException__ctor_m2242202556
zR:__ZN11UnityEngine15CloudWebService14DataErrorEventD0Ev
b4d:_String_CreateString_m2448464375
Wqg:_X509SubjectKeyIdentifierExtension__ctor_m2959112706
euh:_FieldInfo_get_IsNotSerialized_m2322769148
aDd:__ZN6il2cpp8metadata15GenericMetadata7InflateEPK19Il2CppGenericMethodPK20Il2CppGenericContext
jSa:__ZN19ShaderPropertySheet16SetArrayPropertyEN9ShaderLab16FastPropertyNameENS_12PropertyTypeEPKvj
iwh:_MonoGenericCMethod_get_ReflectedType_m2689239043
Wtf:_Collection_1_IsFixedSize_m499196375_gshared
iHe:_ColorTween_set_startColor_m3546206870_AdjustorThunk
O_c:__ZN2UI11CanvasGroup23VirtualRedirectTransferER19StreamedBinaryWriteILb0EE
Ypi:_InternalEnumerator_1_get_Current_m4083613828_gshared
vmc:__ZN8GUIState8EndOnGUIEv
Bzh:_UnicodeEncoding_GetString_m542738941
FXc:_UNITY_TT_Get_VMetrics
NMf:_Path_InsecureGetFullPath_m2635272425
Upe:_DateTime_System_IConvertible_ToUInt32_m1363211018
pih:_RuntimeMethodHandle__ctor_m1162528746
MUe:_SetPropertyUtility_SetStruct_TisSingle_t2076509932_m3849235084_gshared
aBa:__ZN7Texture21GetMasterTextureLimitEv
T4a:__Z12CanAddScriptR10GameObject17ScriptingClassPtrPS1_S2_
Bvd:__ZN6il2cpp2vm10Reflection12HasAttributeEP12Il2CppObjectP11Il2CppClass
yQa:_UNITY_png_write_sRGB
Mvc:__ZN8JSONRead21TransferSTLStyleArrayI13dynamic_arrayI4AABBLj4EEEEvRT_18MemLabelIdentifier17TransferMetaFlags
F0:__ZN9ShaderLabL25StaticInitializeShaderLabEPv
U:Math_max
Kld:_il2cpp_class_get_methods
QMf:_Path_CanonicalizePath_m383914732
cxi:_Enumerator_System_Collections_IEnumerator_get_Current_m1631145297_gshared
$de:_ArrayList_Synchronized_m2395071980
UHd:__ZN6il2cpp2os6Thread16GetCurrentThreadEv
G4b:__ZN10GameObject13ComponentPair15SetComponentPtrEPN5Unity9ComponentE
oSf:_UnexceptionalStreamWriter_Write_m3206913035
x_b:__Z13RegisterClassI10MeshFilterEvv
$C:__ZNK26AnimatorControllerPlayable24GetAnimatorClipInfoCountEib
wib:__ZN10TagManager8TransferI19StreamedBinaryWriteILb0EEEEvRT_
JEb:__ZN11PreloadData23VirtualRedirectTransferER18StreamedBinaryReadILb0EE
Hkh:_DESTransform_ProcessBlock_m2826669227
NLi:__Z115RuntimeInvoker_Void_t1841601450_Il2CppObject_Int32_t2071877448_Int32_t2071877448_SByte_t454417549_Int32_t2071877448PK10MethodInfoPvPS2_
IIf:_Int16_CompareTo_m3493496879
Srb:__ZN6Sprite17MainThreadCleanupEv
aL:__ZN10AudioMixer14UpdateMuteSoloEv
jzd:__ZN6il2cpp2vm9Exception27RaiseNullReferenceExceptionEv
rbi:_MaskableGraphic_UnityEngine_UI_IClippable_get_gameObject_m954171032
Vfa:__ZN9ShaderLab10SubProgram7CompileEv
dAa:__ZN7ApiGLES16SetPatchVerticesEi
MPf:_MonoIOStat_t1621921065_marshal_pinvoke
hKa:__ZN10MemoryFileC2E18MemLabelIdentifierP14MemoryFileData14FilePermission
Ndh:_TrackingServices_NotifyUnmarshaledObject_m1794048369
Mad:__ZN6il2cpp2vm5Class20FromGenericParameterEPK22Il2CppGenericParameter
BT:__ZN19CloudServiceHandler11FlushEventsEv
wbj:_AnimatorControllerPlayable_INTERNAL_CALL_GetAnimatorClipInfoInternal_m3180917212
L8:__ZN15GlobalCallbacksC2Ev
qdb:__ZN11AssetBundle8TransferI14SafeBinaryReadEEvRT_
d0e:_Array_InternalArray__set_Item_TisLabelFixup_t4090909514_m565370771_gshared
jFc:__ZN7b2World10CreateBodyEPK9b2BodyDef
eOc:_UNITY_FT_New_Memory_Face
oE:__Z81AnimatorControllerPlayable_CUSTOM_INTERNAL_CALL_GetAnimatorTransitionInfoInternalR9HPlayablei
UNa:__ZZ23InitPlayerLoopCallbacksvEN43PostLateUpdatePlayerSendFrameCompletestruct7ForwardEv
kta:__ZN26VertexDeclarationCacheGLES24DestroyVertexDeclarationEP17VertexDeclaration
_9c:__ZL7log2_32j
NSh:_Material_HasProperty_m3175512802
g3a:__ZN16ReflectionProbes40UpdateRealtimeReflectionProbesTimeslicedEv
l2b:__ZN16ReflectionProbes15InitializeClassEv
YOc:_UNITY_FT_Destroy_Class_psnames_module_class
Lkj:_MRUList_Evict_m2430323183
Pyf:_ReadOnlyCollection_1_System_Collections_Generic_ICollectionU3CTU3E_Remove_m1060547576_gshared
LEd:__ZN6il2cpp2vm5Image9GetCorlibEv
PPc:_ft_bitmap_glyph_bbox
wA:__ZN8Animator13BatchedFKPassERK13dynamic_arrayIP14PlayableOutputLj4EE
kOd:_GC_reclaim_uninit
K5i:_Component_GetComponent_m4225719715
z2e:_Array_Sort_TisVector4_t2243707581_m474199742_gshared
Rdf:_List_1_CheckIndex_m2247532995_gshared
YRf:_TextWriter_Write_m576684782
Kyj:_Vector3_Max_m2105825185
Uj:_glIsVertexArray
yF:__Z100Register_UnityEngine_Experimental_Director_AnimatorControllerPlayable_INTERNAL_CALL_SetIntegerStringv
MAb:__ZNSt3__26vectorIN4core12basic_stringIcNS1_20StringStorageDefaultIcEEEE13stl_allocatorIS5_L18MemLabelIdentifier12ELi16EEEC2INS_11__wrap_iterIPS5_EEEET_SE_RKS8_PNS_9enable_ifIXaasr21__is_forward_iteratorISE_EE5valuesr16is_constructibleIS5_NS_15iterator_traitsISE_E9referenceEEE5valueEvE4typeE
gKa:__ZN25SingleBlockMemoryFileDataC2E18MemLabelIdentifierPvjb
fa:invoke_fff
jii:_Text_get_fontSize_m3105730761
PVj:b14
Neg:_TlsServerHello_Update_m1740270635
ZZc:__ZN2UI6Canvas17MainThreadCleanupEv
Ecd:__ZN13Il2CppHashMapIPK19Il2CppGenericMethodPK26Il2CppGenericMethodIndicesN6il2cpp8metadata23Il2CppGenericMethodHashENS7_26Il2CppGenericMethodCompareENSt3__29allocatorINSA_4pairIK10KeyWrapperIS2_ES5_EEEEEC2EjRKS8_RKS9_
tjf:_List_1_Find_m3862454845_gshared
Akj:_MatchCollection_get_Item_m2609281578
WGa:__ZN7ApiGLES13CreateProgramEv
nkb:__ZN11HaloManager7AddHaloEv
zAh:_UTF8Encoding__ctor_m100325490
nBa:__ZN4crnd12crn_unpackerD2Ev
Ohi:_StencilMaterial_ClearAll_m1372779118
ek:_emscripten_glTexImage2D
dch:_ObjRefSurrogate_SetObjectData_m1873902916
qXc:_tt_driver_class_pic_init
p_:__ZN18ScriptingArguments9AddStringEPKc
EOd:_setup_header
wSj:runPostSets
spa:__ZL23stbir__resize_arbitraryPvPKviiiS_iiiffffPfiij14stbir_datatype12stbir_filterS4_10stbir_edgeS5_16stbir_colorspace
lff:_List_1_System_Collections_IList_Insert_m848656350_gshared
f7b:__ZN19SpriteMeshGenerator4maskC2EP11ColorRGBA32iihj
jKb:__Z18Transfer_BlittableI24GenerateTypeTreeTransferLb1E8Vector4fEvRK29SerializationCommandArgumentsR31RuntimeSerializationCommandInfo
gJf:_Int16_ToString_m3971652088_AdjustorThunk
pk:_pthread_detach
wid:__ZN6il2cpp2vm19SocketPollingThread7RunLoopEv
Rjj:_MethodDictionary_AllocInternalProperties_m3261295876
Ohc:__ZN15DirectorManager20ScheduleGraphDestroyERK14HPlayableGraph
$ra:__ZNSt3__213__stable_sortIRN10vector_mapI17ScriptingClassPtrPKN5Unity4TypeENS_4lessIS2_EENS_9allocatorINS_4pairIS2_S6_EEEEE13value_compareENS_11__wrap_iterIPSB_EEEEvT0_SJ_T_NS_15iterator_traitsISJ_E15difference_typeEPNSM_10value_typeEi
IUb:__ZN9ShaderLab25SerializedTextureProperty8TransferI24GenerateTypeTreeTransferEEvRT_
teb:__ZN15dense_hashtableINSt3__24pairIKN4core12basic_stringIcNS2_20StringStorageDefaultIcEEEEP11AssetBundleEES6_20StringHash32FunctionIS6_EN14dense_hash_mapIS6_S9_SC_NS0_8equal_toIS6_EENS0_9allocatorISA_EEE9SelectKeyESF_SH_E12resize_deltaEjj
u1j:_emscripten_glIsShader__wrapper
ttd:__ZN6il2cpp2gc19AppendOnlyGCHashMapINSt3__24pairIPK14Il2CppAssemblyP11Il2CppClassEEP24Il2CppReflectionAssembly17ReflectionMapHashIS9_ENS2_8equal_toIS9_EEEC2Ev
roc:__Z32GUIStyle_Get_Custom_PropFontSizeP12Il2CppObject
whh:_DelegatePInvokeWrapper_CallbackHandler_t362827733
suc:__Z18Transfer_BlittableI8JSONReadLb1EyEvRK29SerializationCommandArgumentsR31RuntimeSerializationCommandInfo
Mk:_emscripten_glMatrixMode
Rr:__ZN8Animator23VirtualRedirectTransferER18StreamedBinaryReadILb0EE
aOf:_NotSupportedException__ctor_m836173213
Pbh:_MethodReturnDictionary__ctor_m756139344
VQ:__ZN11UnityEngine15CloudWebService14DataDispatcher16PrepareDataBlockERNS0_16SessionContainerE
lHa:__ZN18GfxFramebufferGLES5ClearE13GfxClearFlagsRK10ColorRGBAffib
eQb:__ZL26Transfer_SimpleNativeClassI18StreamedBinaryReadILb0EE10RectOffsetLb0EEvRK29SerializationCommandArgumentsR31RuntimeSerializationCommandInfo
VOc:_UNITY_ft_destroy_default_module_classes
W1f:_SymmetricTransform_FinalDecrypt_m3674669784
Sbf:_List_1_CheckMatch_m1772343151_gshared
BVa:__ZL12DepthPassJobPN21GfxDeviceAsyncCommand10ArgScratchEPKNS_3ArgE
lTb:__ZNSt3__26vectorIN9ShaderLab20SerializedSubProgram16TextureParameterENS_9allocatorIS3_EEE6assignINS_11__wrap_iterIPS3_EEEENS_9enable_ifIXaasr21__is_forward_iteratorIT_EE5valuesr16is_constructibleIS3_NS_15iterator_traitsISC_E9referenceEEE5valueEvE4typeESC_SC_
ALf:_IntPtr_Equals_m1214967011_AdjustorThunk
lif:_List_1_Add_m3591975577_gshared
L1c:__Z55Register_UnityEngine_CanvasGroup_get_ignoreParentGroupsv
Z_b:__Z13RegisterClassI19LowerResBlitTextureEvv
Qm:FUNCTION_TABLE_iiiiiiiiiiii
Qjb:__ZN16GraphicsSettingsD0Ev
C_j:_pthread_mutex_init__wrapper
I1a:__ZN15LODGroupManager21CalculateLODDataArrayERK13LODParametersPK6Cameraf
n:cttz_i8
jVc:_UNITY_FT_GlyphLoader_Add
xmi:_InternalEnumerator_1_System_Collections_IEnumerator_get_Current_m1004764375_AdjustorThunk
KFf:_DateTimeFormatInfo_get_FullDateTimePattern_m2607507656
lfg:_HttpsClientStream_RaiseServerCertificateValidation_m3356770426
Lte:_DelegateSerializationHolder__ctor_m3915060553
PAb:__ZN15SerializeTraitsINSt3__26vectorIN30RuntimeInitializeOnLoadManager9ClassInfoE13stl_allocatorIS3_L18MemLabelIdentifier12ELi16EEEEE8TransferI24GenerateTypeTreeTransferEEvRS7_RT_
T2e:_Array_swap_TisUIVertex_t1204258818_TisUIVertex_t1204258818_m1163375424_gshared
Il:_emscripten_glViewport
AZb:__Z21GenerateTilingAreaJobP22GenerateTilingAreaInfoj
mLd:__ZN6il2cpp6icalls8mscorlib6System15MonoCustomAttrs17IsDefinedInternalEP12Il2CppObjectP20Il2CppReflectionType
Ltb:__ZN4Mesh21UnswizzleVertexColorsEb
Nqe:_DateTime_ToString_m2276663647_AdjustorThunk
nXc:_cff_parse_font_bbox
vB:__GLOBAL__sub_I_runtime_animation2_lump_cpp
Myb:__ZN14PlayerSettings23VirtualRedirectTransferER18StreamedBinaryReadILb0EE
GTd:__ZN6il2cpp2os5Event5ResetEv
f$a:__Z26CombineDepthNormalsTextureRK17RenderLoopContextR13dynamic_arrayI16RenderObjectDataLj4EE
Bbj:_AnimatorControllerPlayable_GetCurrentAnimatorClipInfoCount_m335090574
OCd:__ZN6il2cpp8metadata15GenericMetadata17InflateParametersEPK13ParameterInfohPK20Il2CppGenericContextb
LKf:_Int64_System_IConvertible_ToUInt32_m850395426_AdjustorThunk
h2i:_PCMReaderCallback_Invoke_m3610389815
yUd:_HMACSHA512__ctor_m2390736870
Ru:__ZNK17AnimationPlayable27GetNextCompatibleDescendantEi
ps:__ZN8Animator20ProcessAnimationsJobEPNS_11AnimatorJobEj
xqh:_TypeBuilder_GetInterfaces_m1818658502
Oaa:__Z25SetNeedToPerformRenderingb
Dwh:_MonoMethod_GetPseudoCustomAttributes_m466965107
tZa:__ZNSt3__227__insertion_sort_incompleteIR23CompareReflectionProbesP31RuntimeReflectionProbeBlendInfoEEbT0_S5_T_
QVa:__ZN14qsort_internal30FindAndMovePivotToLastPositionIP15RODataDepthPassi17ROSorterDepthPassEEvT_S4_T0_T1_
NZh:_Enumerator_System_Collections_IDictionaryEnumerator_get_Value_m3005608231_gshared
Iai:_MaskUtilities_NotifyStencilStateChanged_m1527407683
P1a:__ZN12CullingGroup10SendEventsEPK17CullingGroupEventj
k$f:_DSAManaged_GenerateKeyPair_m2711647034
P7a:__ZN13sorted_vectorINSt3__24pairIN4core12basic_stringIcNS2_20StringStorageDefaultIcEEEES6_EEN10vector_mapIS6_S6_27compare_tstring_insensitiveIS6_E13stl_allocatorIS7_L18MemLabelIdentifier37ELi16EEE13value_compareESD_E9erase_oneIS6_EEjRKT_
wqb:__ZThn32_NK8Renderer8GetLayerEv
dZe:_Array_InternalArray__ICollection_Add_TisResourceCacheItem_t333236149_m1151081240_gshared
QKb:__ZN15SerializeTraitsI31ArrayOfManagedObjectsTransfererE8TransferI24GenerateTypeTreeTransferEEvRS0_RT_
ifh:_SoapServices_GetXmlTypeForInteropType_m3821579913
t$j:_emscripten_glTexParameterfv__wrapper
Rnj:_CaptureAssertion_IsComplex_m1433259302
NVh:_Physics2D_INTERNAL_CALL_Internal_Raycast_m489831109
Bmd:_il2cpp_method_get_param_count
mZb:__ZN10systeminfo19ISOToSystemLanguageERN4core12basic_stringIcNS0_20StringStorageDefaultIcEEEE
hFc:__ZN18StreamedBinaryReadILb0EE21TransferSTLStyleArrayI13dynamic_arrayIS2_I8Vector2fLj4EELj4EEEEvRT_17TransferMetaFlags
msd:__ZNK15dense_hashtableINSt3__24pairIK10KeyWrapperINS1_IPK12PropertyInfoP11Il2CppClassEEEjEES9_17ReflectionMapHashIS8_EN14dense_hash_mapIS9_jSD_NS9_14EqualsComparerINS0_8equal_toIS8_EEEENS0_9allocatorISB_EEE9SelectKeyESI_SK_E3endEv
xIc:__ZN11Rigidbody2D8TransferI19StreamedBinaryWriteILb0EEEEvRT_
ZTd:__ZN6il2cpp8metadata26Il2CppGenericMethodCompare6EqualsEPK19Il2CppGenericMethodS4_
Lca:__ZNSt3__26vectorIP10MemoryPool13stl_allocatorIS2_L18MemLabelIdentifier72ELi16EEE21__push_back_slow_pathIKS2_EEvRT_
FTc:_ps_dimension_done
MEe:_LayoutRebuilder_MarkLayoutForRebuild_m640589351
PZc:__Z46Register_UnityEngine_TextGenerator_Dispose_cppv
tCe:_PointerEventData_get_pressEventCamera_m724559964
I_d:_String_IndexOfUnchecked_m3356721554
jpb:__ZN16LightmapSettings8TransferI14SafeBinaryReadEEvRT_
zCa:__ZN17BufferManagerGLES13ReleaseBufferEP14DataBufferGLES
quc:__Z18Transfer_BlittableI8JSONReadLb1EjEvRK29SerializationCommandArgumentsR31RuntimeSerializationCommandInfo
Zqj:_PKCS12_Decrypt_m1557069392
Bii:_VertexHelper_AddUIVertexQuad_m280792808
rmg:_WebHeaderCollection_ToString_m1246460752
Xni:_InternalEnumerator_1_System_Collections_IEnumerator_get_Current_m2842514953_AdjustorThunk
ip:stackSave
$Tc:_ps_dimension_end
Ogc:__Z41Register_UnityEngine_Mesh_Internal_Createv
iwb:__ZN14SpriteRenderer23VirtualRedirectTransferER24GenerateTypeTreeTransfer
MCd:__ZNK15dense_hashtableI10KeyWrapperIP18Il2CppGenericClassES3_N6il2cpp8metadata22Il2CppGenericClassHashEN14dense_hash_setIS3_S6_NS3_14EqualsComparerINS5_25Il2CppGenericClassCompareEEENSt3__29allocatorIS3_EEE8IdentityESA_SD_E12test_deletedERK30dense_hashtable_const_iteratorIS3_S3_S6_SF_SA_SD_E
Obd:__ZN6il2cpp2vm5Class14GetNestedTypesEP11Il2CppClassPPv
_Ud:_MACTripleDES_Initialize_m1318099802
p8f:_MD5SHA1_VerifySignature_m507888141
Qae:_Byte_System_IConvertible_ToChar_m4188836679
sFf:_NumberFormatter_InitDecHexDigits_m2036076025
q_h:_Enumerator_get_CurrentKey_m3839846791_AdjustorThunk
bvc:__ZN8JSONRead21TransferSTLStyleArrayI13dynamic_arrayIaLj1EEEEvRT_18MemLabelIdentifier17TransferMetaFlags
R3a:__ZN6Camera9SetAspectEf
xa:invoke_viiffiii
j5g:__ZL79TouchInputModule_t2561058385_CustomAttributesCacheGenerator_m_ForceModuleActiveP21CustomAttributesCache
L0j:_emscripten_glBindVertexArray__wrapper
P3h:_Dictionary_2_InitArrays_m435313205_gshared
M4a:__ZN9Transform37InitializeTransformHierarchyRecursiveER18TransformHierarchyRii
m0b:__Z34DefaultPrepareDispatchBoundsUpdateR13RendererScene18MemLabelIdentifier
BKe:_Graphic_get_useLegacyMeshGeneration_m1366444625
f7g:__ZL65InputField_t1631627530_CustomAttributesCacheGenerator_m_InputTypeP21CustomAttributesCache
zZf:_ModulusRing_Pow_m1137250399
NRa:__ZN17MeshRenderingData4InitEP4MeshS1_iP15SharedGfxBufferS3_
whe:_Hashtable__cctor_m2952659675
Eqg:_X509ChainStatus__ctor_m3628359961_AdjustorThunk
Y_d:_Evidence_get_HostEvidenceList_m2095478124
Wjc:__Z57Register_UnityEngine_Transform_INTERNAL_set_localPositionv
ubg:_Context_Clear_m4000337070
fxa:__ZN13GfxDeviceGLES26SetRandomWriteTargetBufferEi15ComputeBufferID
otg:_IntervalCollection_Normalize_m538796191
Yje:_Console_SetEncodings_m342145566
Pwj:_TrackedReference_op_Equality_m3491334086
sKe:_FontUpdateTracker_UntrackText_m3827316510
qeb:__ZN18AssetBundleManager19RegisterAssetBundleEP11AssetBundle
N4e:_Array_InternalArray__get_Item_TisSingle_t2076509932_m1495809753_gshared
s0e:_Array_InternalArray__set_Item_TisAnimatorClipInfo_t3905751349_m978873279_gshared
D9b:__ZNK11ICallString6ToUTF8Ev
Sad:__ZN15dense_hashtableINSt3__24pairIK10KeyWrapperIPK22Il2CppGenericParameterEP11Il2CppClassEES6_N6il2cpp5utils11PointerHashIS4_EEN14dense_hash_mapIS6_S9_SE_NS6_14EqualsComparerINS0_8equal_toIS5_EEEENS0_9allocatorISA_EEE9SelectKeyESJ_SL_E15insert_noresizeERKSA_
JMd:_GC_number_stack_black_listed
RVa:__ZNSt3__211__sift_downIR17ROSorterDepthPassP15RODataDepthPassEEvT0_S5_T_NS_15iterator_traitsIS5_E15difference_typeES5_
knh:_Default_SelectMethod_m3081239996
qha:__ZN18UnityPropertySheet11UnityTexEnvC2Ev
Bs:__ZN8Animator17ApplyOnAnimatorIKEiRNS_11AnimatorJobE
e5:__ZN12FileAccessor4ReadEyyPvPy
Sfa:__ZN13dynamic_arrayI16ShaderKeywordSetLj4EE6insertEPS0_PKS0_S4_
Sjj:_MethodDictionary_IsOverridenKey_m3922224650
Lie:_SyncHashtable_Contains_m3042906549
blf:_List_1_System_Collections_IList_set_Item_m4016273526_gshared
Vqg:_X509KeyUsageExtension_CopyFrom_m931530012
q3a:__ZN13RenderTexture9SetHeightEi
F5i:_Color32__ctor_m1932627809_AdjustorThunk
$hg:_SslStreamBase_Read_m1036897444
wci:_RectMask2D_PerformClipping_m1232012832
PAd:__ZN6il2cpp6icalls8mscorlib6System2IO6MonoIO17GetFileAttributesEP12Il2CppStringPi
Z_h:_Transform_1_Invoke_m4020530914_gshared
lSc:_tt_cmap8_char_index
jYb:__Z14tessMeshDeleteP8TESSmeshP12TESShalfEdge
L_:__Z24scripting_class_get_name17ScriptingClassPtr
Z6:__ZN13RuntimeStaticI15GUIEventManagerLb0EE13StaticDestroyEPv
pEa:__ZN7ApiGLES14TextureSamplerEjj17TextureFilterMode15TextureWrapModeifb18ShadowSamplingModeN2gl17TextureSrgbDecodeE
r$i:_CustomEventData_AddUInt16_m3349298376
_Gb:__Z29Transfer_Blittable_ArrayFieldI14SafeBinaryReadjEvRT_R9ArrayInfoRK23StaticTransferFieldInfo
C3i:_Camera_FireOnPostRender_m94860165
le:_emscripten_set_keydown_callback
gie:_Enumerator_get_Value_m3684748062
xib:__ZN19StreamedBinaryWriteILb0EE21TransferSTLStyleArrayINSt3__26vectorI17SortingLayerEntryNS2_9allocatorIS4_EEEEEEvRT_17TransferMetaFlags
QGh:_UInt32_Parse_m3371984903
m5:__ZN12FileAccessorC2Ev
L5a:__ZN9Transform35SetLocalPositionWithoutNotificationERKN4math7_float3E
Dlj:_PatternLinkStack_GetCurrent_m2994645935
mjb:__ZN6Camera8TransferI19StreamedBinaryWriteILb0EEEEvRT_
MIc:__ZN23ColliderTilingExtensionC2Ev
rcj:_AnimatorControllerPlayable_PlayInFixedTime_m2629510873
Ujj:_MethodDictionary_set_Item_m3475146889
Rii:_Toggle_PlayEffect_m3950629415
xTf:_MonoCustomAttrs_GetCustomAttribute_m100274015
rEb:__Z39WriteQueueForTransferSignatureIntoCacheRK31TransferFunctionScriptingTraitsRK24TransferRequestSignature17ScriptingClassPtrR23CachedSerializationDataRb
Qna:__ZN13RenderManager18UpdateAllRenderersEv
k5c:__ZN22BaseUnityConnectClient30OnEnteringStatePausedOrStoppedEv
NDc:__ZN10ClipperLib7Clipper18SwapPositionsInAELEPNS_5TEdgeES2_
iBb:__ZN14CachingManager13WriteInfoFileERKN4core12basic_stringIcNS0_20StringStorageDefaultIcEEEERKNSt3__26vectorIS4_NS7_9allocatorIS4_EEEEl
Xrd:__ZN15dense_hashtableINSt3__24pairIK10KeyWrapperINS1_IPK12PropertyInfoP11Il2CppClassEEEjEES9_17ReflectionMapHashIS8_EN14dense_hash_mapIS9_jSD_NS9_14EqualsComparerINS0_8equal_toIS8_EEEENS0_9allocatorISB_EEE9SelectKeyESI_SK_E12resize_deltaEjj
Qx:__ZN7mecanim5human12HumanPoseAddERNS0_9HumanPoseERKS1_S4_
L0i:_Animator_ResetTrigger_m865269317
Orf:_Collection_1_IsFixedSize_m218241296_gshared
G5a:__Z24MergeTransformComponentsR9TransformS0_b
u2i:_DelegatePInvokeWrapper_AudioConfigurationChangeHandler_t3743753033
LPf:_MonoIO_get_PathSeparator_m2635828107
TUf:_MonoType_get_Name_m865859211
$xe:_CultureInfo__cctor_m2290268677
t2d:_String_Trim_m3982520224
qeh:_RemotingConfiguration__cctor_m2129988840
dqf:_Collection_1_Insert_m44548038_gshared
oLd:__ZN6il2cpp2vm13ComObjectBase19GetRuntimeClassNameEPP15Il2CppHString__
Sj:_emscripten_glVertexAttribPointer
Yla:__ZN14PreloadManager26UpdatePreloadingSingleStepENS_21UpdatePreloadingFlagsEi
GSh:_Material__ctor_m1440882780
DYd:_SHA512Managed_Initialize_m891287980
sPi:__Z82RuntimeInvoker_Boolean_t3825574718_Il2CppObject_TextGenerationSettings_t2543476768PK10MethodInfoPvPS2_
k$d:_SecurityException__ctor_m1484114982
htj:_X509Crl_GetHashName_m183504634
D7d:_Array_GetValue_m1507415734
cic:__Z57Register_UnityEngine_RectTransform_INTERNAL_set_anchorMinv
gEf:_Object_MemberwiseClone_m2655589444
uja:__ZN6prcoreL25inner_stretch_i8_bilinearEPKNS_9InnerInfoE
rS:__ZN11UnityEngine15CloudWebService13WWWRestClient17GetResponseStatusEv
Mwh:_MonoMethod_get_IsGenericMethod_m4276550811
k$h:_Transform_1_BeginInvoke_m3826027984_gshared
pR:__ZN11UnityEngine15CloudWebService16SessionContainer24GetSessionHeaderJsonDataERKN4core12basic_stringIcNS2_20StringStorageDefaultIcEEEERNS2_13StringBuilderE
rme:_Decimal_op_Implicit_m2149927308
M6:__ZN13RuntimeStaticI21AssetReferenceStorageLb0EE13StaticDestroyEPv
DGh:_UInt16_System_IConvertible_ToUInt32_m1864968312
yHd:__ZN6il2cpp6icalls8mscorlib6System9AppDomain22InternalGetProcessGuidEP12Il2CppString
WUc:_cf2_builder_moveTo
I$f:_KeyPairPersistence_get_UseMachineKeyStore_m560802076
kxi:_Enumerator_System_Collections_IDictionaryEnumerator_get_Entry_m345330700_AdjustorThunk
GYj:_glBindRenderbuffer__wrapper
DKb:__Z18Transfer_BlittableI24GenerateTypeTreeTransferLb1EjEvRK29SerializationCommandArgumentsR31RuntimeSerializationCommandInfo
O7f:_MD2Managed_Padding_m410163267
Qad:__ZN6il2cpp2os12FastAutoLockD2Ev
alb:__ZN11ColorRGBA328TransferI14SafeBinaryReadEEvRT_
H2i:_Bounds__ctor_m1202659404_AdjustorThunk
Qf:_emscripten_glClearDepth
urb:__ZN14SafeBinaryRead21TransferSTLStyleArrayINSt3__26vectorIN15QualitySettings14QualitySettingENS1_9allocatorIS4_EEEEEEvRT_17TransferMetaFlags
ANf:_File_OpenText_m4058508963
Yya:__ZN7ApiGLES13CreateTextureEjN2gl9TexFormatEiiiii
TLi:__Z54RuntimeInvoker_Double_t4078015681_Interval_t2354235237PK10MethodInfoPvPS2_
xyb:__ZNSt3__26vectorINS_4pairIPKN5Unity4TypeE7Hash128EENS_9allocatorIS7_EEE8__appendEj
ufh:_WellKnownClientTypeEntry__ctor_m670594074
sY:__ZL41FileEntryInfoListToFolderContentsAbsoluteRK13dynamic_arrayI13FileEntryInfoLj8EERNSt3__23setIN4core12basic_stringIcNS6_20StringStorageDefaultIcEEEENS4_4lessISA_EENS4_9allocatorISA_EEEE
Jpe:_DateTime_System_IConvertible_ToSingle_m3927769066_AdjustorThunk
zWc:_cff_font_load
UJd:__GLOBAL__sub_I_LibraryLoader_cpp
jcc:__Z13IsPathCreatedRKN4core12basic_stringIcNS_20StringStorageDefaultIcEEEE
ypa:__ZL22stbir__encode_scanlineP11stbir__infoiPvPfiii
NKc:__ZN20QuadTreeNodeRenderer13StaticDestroyEPv
_$b:__ZN9Transform12CleanupClassEv
iQd:__ZN6il2cpp6icalls8mscorlib6System9Threading16NativeEventCalls19CloseEvent_internalE12Il2CppIntPtr
Nt:__ZN11UnityEngine9Animation33SetGenericTransformPropertyValuesERKNS0_30AnimatorGenericBindingConstantERKN7mecanim10ValueArrayEP9Transformb
sbg:_ClientContext_set_ClientHelloProtocol_m2246603449
iOc:_UNITY_FT_Set_Pixel_Sizes
QQe:_U3CMouseDragOutsideRectU3Ec__Iterator1_MoveNext_m2845491958
ZTb:__ZNSt3__26vectorIN9ShaderLab19SerializedSubShaderENS_9allocatorIS2_EEE26__swap_out_circular_bufferERNS_14__split_bufferIS2_RS4_EE
mNj:_AnalyticsTracker_TriggerEvent_m1494303835
DDe:_StandaloneInputModule_IsModuleSupported_m623598506
sxd:__ZN6il2cpp2vmL24thread_cleanup_on_cancelEPv
yjh:_SByte_ToString_m4105923225_AdjustorThunk
_gb:_LZ4_compress_generic
dye:_CultureInfo_ConstructCurrentUICulture_m3363349599
nsb:__ZN13dynamic_arrayI7SubMeshLj4EE18resize_initializedEjRKS0_12ResizePolicy
H9g:__ZL75CanvasScaler_t2574720772_CustomAttributesCacheGenerator_m_FallbackScreenDPIP21CustomAttributesCache
qUf:_MonoType_GetEvent_m4160342003
gci:_RawImage_set_texture_m2400157626
HHj:_PrimeHelper_ToPrime_m1606935350_gshared
nlb:__Z30ProcessDynamicBatchGeometryJobP25DynamicVBOGeometryJobDataj
zWa:__ZNSt3__27__sort4IRNS_6__lessI11CulledLightS2_EEPS2_EEjT0_S6_S6_S6_T_
VWf:_MSCompatUnicodeTable_Level3_m260824928
a_:__Z26scripting_object_get_class18ScriptingObjectPtr
C$b:__ZNK28MonoBehaviourPropertyBinding15GenerateBindingERKN4core12basic_stringIcNS0_20StringStorageDefaultIcEEEEbRN11UnityEngine9Animation14GenericBindingE
EQh:_GUIStyle_CalcMinMaxWidth_m2027503105
aJf:_Int32_FindExponent_m3187554672
U$f:_KeyPairPersistence_Load_m1355205585
cKf:_Int32_ToString_m2960866144_AdjustorThunk
EBj:_Predicate_1_Invoke_m3539717340_gshared
_Hj:_HashSet_1_Contains_m3626542335_gshared
p1d:_Single_CompareTo_m2081476257_AdjustorThunk
tWi:__Z57RuntimeInvoker_Int32_t2071877448_RaycastHit2D_t4063908774PK10MethodInfoPvPS2_
MJd:__ZN6il2cpp6icalls8mscorlib6System11Environment15internalGetHomeEv
ucb:__ZNK5Unity9Component7GetNameEv
fhh:__ZN21InterfaceFuncInvoker4IP12Il2CppObjectS1_P28SerializationInfo_t22898743028StreamingContext_t1417235061S1_E6InvokeEjP11Il2CppClassS1_S1_S3_S4_S1_
uGj:_ObjectPool_1_Get_m3724675538_gshared
NQa:_UNITY_png_set_error_fn
tAc:__ZNK11b2RopeJoint16GetReactionForceEf
yt:__ZN7mecanim8skeleton26SkeletonPoseComputeGlobalQEPKNS0_8SkeletonEPKNS0_13SkeletonPoseTIN4math4trsXEEEPS7_ii
awc:__ZN8JSONRead21TransferSTLStyleArrayI13dynamic_arrayIfLj4EEEEvRT_18MemLabelIdentifier17TransferMetaFlags
Iff:_List_1_GetEnumerator_m2672519407_gshared
Zs:__ZN9BlobWrite8TransferI22OffsetPtrArrayTransferIiEEEvRT_PKc17TransferMetaFlags
GWf:_ContractionComparer_Compare_m314873025
qRh:_GUIUtility_EndGUIFromException_m2091524531
uKf:_Int64_System_IConvertible_ToDouble_m638786774
iK:__ZN4FMOD6System7releaseEv
Q4:__Z18PathToAbsolutePathRKN4core12basic_stringIcNS_20StringStorageDefaultIcEEEE
W6e:_Enumerator_MoveNext_m3078170540_AdjustorThunk
X3c:__ZN21UnityAnalyticsManager15ThreadedCleanupEv
PHc:__ZThn160_N17PolygonCollider2D5ResetEv
z5i:_Color_Lerp_m3323752807
Igc:__Z22Mesh_CUSTOM_HasChannelP12Il2CppObject30InternalScriptingShaderChannel
z5b:__ZN15DirectorManager17AcquireOutputNodeEv
Sw:__ZN8Playable11SetDurationEd
oGa:__ZN16GeometryJobTasks20ScheduleGeometryJobsER9GfxDevicePFvP15GeometryJobDataEPK22GeometryJobInstructionjb
iQh:_GUIUtility_Internal_GetHotControl_m2510727642
jI:__ZN12AudioManager29ShutdownReinitializeAndReloadEv
Jqj:_NetscapeCertTypeExtension_Decode_m2210025005
AYh:_RectTransform_GetLocalCorners_m1836626405
XKd:__GLOBAL__sub_I_String_cpp
Pad:__ZN15dense_hashtableINSt3__24pairIK10KeyWrapperIPK22Il2CppGenericParameterEP11Il2CppClassEES6_N6il2cpp5utils11PointerHashIS4_EEN14dense_hash_mapIS6_S9_SE_NS6_14EqualsComparerINS0_8equal_toIS5_EEEENS0_9allocatorISA_EEE9SelectKeyESJ_SL_E6insertERKSA_
ENf:_FileLoadException__ctor_m1356374414
Hza:__ZN14DataBufferGLES16RecreateWithDataEjPKv
Ibc:__Z29GetGlobalAllowNameConversionsv
E6a:__ZN8Material8SetColorEN9ShaderLab16FastPropertyNameERK10ColorRGBAf
Wuh:_Module_GetCustomAttributes_m3581287913
bM:__ZN11AudioSource23VirtualRedirectTransferER18StreamedBinaryReadILb0EE
vd:___syscall91
R6:__ZN21AssetReferenceStorageC2Ev
sLc:__ZNSt3__26vectorIN4core12basic_stringIcNS1_20StringStorageDefaultIcEEEE13stl_allocatorIS5_L18MemLabelIdentifier34ELi16EEEC2INS_11__wrap_iterIPS5_EEEET_SE_RKS8_PNS_9enable_ifIXaasr21__is_forward_iteratorISE_EE5valuesr16is_constructibleIS5_NS_15iterator_traitsISE_E9referenceEEE5valueEvE4typeE
P_:__ZL41AssemblyNameMatchesWithOrWithoutExtensionPKcS0_
HEc:__ZN23ColliderTilingExtension5ResetEv
YDa:__ZN14GfxContextGLES43AddRenderSurfaceToDeferredFBOInvalidateListEPK17RenderSurfaceGLES
qyd:__ZN6il2cpp6icalls8mscorlib6System9Threading6Thread15Thread_internalEP12Il2CppThreadP14Il2CppDelegate
afa:__ZN11NamedObject23VirtualRedirectTransferER14SafeBinaryRead
YNc:__ZNSt3__26vectorIN20TextRenderingPrivate8FontImpl13CharacterInfoE13stl_allocatorIS3_L18MemLabelIdentifier1ELi16EEE6insertENS_11__wrap_iterIPKS3_EERS9_
gma:__ZN23PreloadManagerOperation6IsDoneEv
Gjd:__ZN6il2cpp2vm7Runtime15InvokeWithThrowEPK10MethodInfoPvPS5_
z3f:_X509Certificate_get_RawData_m3000055075
g6b:__Z33GetHasChangedDeprecatedSystemMaskv
QGd:__ZN6il2cpp5utils11StringUtils11Utf16ToUtf8ERKNSt3__212basic_stringIDsNS2_11char_traitsIDsEENS2_9allocatorIDsEEEE
TMf:_MonoIO_GetException_m2577367044
_xi:_Enumerator_VerifyState_m1165543189_AdjustorThunk
pqe:_DateTime_AddSeconds_m722082155_AdjustorThunk
yfe:_SynchronizedArrayListWrapper_CopyTo_m956887031
vqa:__ZN21LightProbeProxyVolume18HasHardwareSupportEv
HFc:__ZNK20b2SeparationFunction17FindMinSeparationEPiS0_f
pja:__ZN6prcoreL31inner_stretch_argb8888_bilinearEPKNS_9InnerInfoE
KNb:__Z18Transfer_BlittableI18StreamedBinaryReadILb1EELb1E8BitFieldEvRK29SerializationCommandArgumentsR31RuntimeSerializationCommandInfo
BQc:_UNITY_FT_Outline_Decompose
Edg:_TlsClientCertificate_get_ClientCertificate_m3062440489
O_d:_StrongNamePublicKeyBlob_ToString_m3721281223
VOd:_GC_init_size_map
nni:_InternalEnumerator_1_get_Current_m198513457_AdjustorThunk
lUa:__Z20scripting_object_new17ScriptingClassPtr
fS:__ZN11UnityEngine15CloudWebService10RestClientINS0_16WWWRestHeaderMapEED2Ev
Ekc:__Z58Register_UnityEngine_Object_Internal_CloneSingleWithParentv
qE:__Z75AnimatorControllerPlayable_CUSTOM_INTERNAL_CALL_GetAnimatorClipInfoInternalP12Il2CppObjectR9HPlayableihS0_
P_a:__ZN18ShadowMapJobHeaderD0Ev
HKe:_Graphic_OnRectTransformDimensionsChange_m1610753363
ooe:_Convert_ToUInt16_m3265369225
P:Math_exp
XTf:_MonoEnumInfo_get_Cache_m3551569711
Ko:FUNCTION_TABLE_iiifi
JGd:__ZN6il2cpp2os5posix13PosixAutoLockD2Ev
ATe:_Array_InternalArray__ICollection_Contains_TisVector3_t2243707580_m3625701788_gshared
Esa:__ZNSt3__26vectorINS_4pairIyP17VertexDeclarationEENS_9allocatorIS4_EEE6insertENS_11__wrap_iterIPKS4_EERS9_
JUc:_cff_get_advances
t4a:__ZN13MonoBehaviour9SetScriptERK4PPtrI10MonoScriptE18ScriptingObjectPtr
CMg:__ZL55g_Mono_Security_Assembly_CustomAttributesCacheGeneratorP21CustomAttributesCache
hQc:_UNITY_FT_Create_Class_sfnt_module_class
caj:_AnimatorControllerPlayable_SetFloatString_m3937146789
Jse:_Decimal_IsZero_m3557909184_AdjustorThunk
cde:_Char_ToString_m1401375624
hVd:_MD5CryptoServiceProvider__cctor_m3309191799
MX:__ZNK10FileSystem16LastErrorMessageEv
tMd:__ZNK6il2cpp8metadata14Il2CppTypeLessclEPK10Il2CppTypeS4_
Ocd:__ZN15dense_hashtableINSt3__24pairIK10KeyWrapperIPK11Il2CppClassEPKcEES6_N6il2cpp5utils11PointerHashIS3_EEN14dense_hash_mapIS6_S9_SE_NS6_14EqualsComparerINS0_8equal_toIS5_EEEENS0_9allocatorISA_EEE9SelectKeyESJ_SL_E14squash_deletedEv
qgj:_ConfigHandler_ReadCustomProviderData_m784203316
H8e:_Enumerator_System_Collections_IEnumerator_Reset_m3052395060_gshared
m9c:__ZN22UnityWebRequestManager10InitializeEv
X5f:_Kernel_DwordDivMod_m3728402123
$Cb:__ZN13MonoBehaviour13AwakeFromLoadE17AwakeFromLoadMode
p1c:__ZZN2UI14CanvasRenderer15InitializeClassEvEN38FunctorImpl_810kCanvasHierarchyChanged4CallEPviR11MessageData
bJb:__ZL26Transfer_SimpleNativeClassI17RemapPPtrTransfer8GradientLb1EEvRK29SerializationCommandArgumentsR31RuntimeSerializationCommandInfo
u6b:__ZN12CachedWriter9InitWriteER15CacheWriterBase
a5b:__Z21UnsignedInt64ToStringy
sAh:_UTF7Decoder__ctor_m549434986
uWh:_Quaternion_ToString_m2638853272
Dti:_InternalEnumerator_1_get_Current_m1025321669_AdjustorThunk
ehc:__Z36MonoBehaviour_CUSTOM_InvokeRepeatingP12Il2CppObjectP12Il2CppStringff
fkc:__Z66Register_UnityEngine_Transform_INTERNAL_CALL_InverseTransformPointv
fpi:_InternalEnumerator_1_get_Current_m1089848479_AdjustorThunk
eRd:__ZN6il2cpp2os9MutexImpl7TryLockEjb
qtj:_X509Crl_VerifySignature_m1390212587
Grg:_Group__ctor_m4103922028
cRa:__ZN6Camera26ClearIntermediateRenderersEj
oQa:_UNITY_png_write_pCAL
u0j:_glLinkProgram__wrapper
Wja:__ZN6prcoreL12RemapGenericI17TexFormatARGB888815TexFormatBGR888EEvPKNS_9InnerInfoE
nVd:_MD5CryptoServiceProvider_ProcessFinalBlock_m1052610785
sE:__Z79AnimatorControllerPlayable_CUSTOM_INTERNAL_CALL_GetNextAnimatorClipInfoInternalR9HPlayablei
Ofe:_BitArray_Set_m2878881714
KHf:_Guid_CompareTo_m2203922782_AdjustorThunk
Ufi:_Selectable_get_colors_m3501193396
oCd:__ZN6il2cpp6icalls8mscorlib6System13Globalization11CultureInfo35construct_internal_locale_from_nameEP17Il2CppCultureInfoP12Il2CppString
jAi:__Z58RuntimeInvoker_Il2CppObject_Int32_t2071877448_Il2CppObjectPK10MethodInfoPvPS2_
PKb:__ZL22Transfer_ManagedObjectI24GenerateTypeTreeTransferLb1EEvRK29SerializationCommandArgumentsR31RuntimeSerializationCommandInfo
Lhj:_ContextAttribute_Equals_m53324298
f4i:_Canvas_ForceUpdateCanvases_m2446828475
$j:_emscripten_set_main_loop_timing
hKh:_WeakReference_AllocateHandle_m1783929473
Cza:__ZN14DataBufferGLES12RecordRenderEv
Y5a:__ZN14ImageReference10FlipImageYEv
d7i:_DebugLogHandler_LogFormat_m177245518
Nmc:__Z14GetDefaultSkini
IF:__ZN4FMOD3DSP9setBypassEb
Xab:__Z19NormalizeWheelInputf
ITe:_Array_InternalArray__ICollection_Remove_TisLink_t865133271_m1984184141_gshared
bwc:__Z29Transfer_Blittable_ArrayFieldI8JSONReadhEvRT_R9ArrayInfoRK23StaticTransferFieldInfo
ZRe:_LayoutRebuilder_IsDestroyed_m3442208294
G9b:__ZN11MonoManager25GetImageFromAssemblyIndexEi
qTd:__ZN6il2cpp2os20ThreadLocalValueImpl8SetValueEPv
PLd:__ZN6il2cpp2os11Environment17GetProcessorCountEv
Hrc:__Z18Transfer_BlittableI9JSONWriteLb1EtEvRK29SerializationCommandArgumentsR31RuntimeSerializationCommandInfo
FNf:_FileLoadException__ctor_m918124939
rk:___syscall85
sTa:__ZNSt3__26__sortIRPFbP10GUIElementS2_EPS2_EEvT0_S7_T_
E6f:_SequentialSearchPrimeGeneratorBase_GenerateSearchBase_m2930465198
N3b:__ZN16GraphicsSettings12CleanupClassEv
$L:__ZNK11AudioSource26GetTypeInfoVirtualInternalEv
ibd:__ZN6il2cpp2vmL21SetupInterfacesLockedEP11Il2CppClassRKNS_2os12FastAutoLockE
VEb:__ZN11MonoManager23VirtualRedirectTransferER24GenerateTypeTreeTransfer
rA:__ZN23AnimationPlayableOutput17SetSourcePlayableEP8Playable
HPh:_GUIStyle_set_clipOffset_m3871613343
RNe:_SubmitEvent__ctor_m222860306
lR:__ZN11UnityEngine15CloudWebService14DataDispatcher15SetupWebRequestEv
ZGi:__Z94RuntimeInvoker_Int32_t2071877448_Il2CppObject_Int32_t2071877448_Il2CppObject_Int32_t2071877448PK10MethodInfoPvPS2_
PRf:_TextWriter__cctor_m4047845042
i6c:__ZN11UnityEngine15PlatformWrapper13GetShaderCapsEv
U$a:__ZNSt3__211__sift_downIR26RenderDeferredObjectSorterP16RenderObjectDataEEvT0_S5_T_NS_15iterator_traitsIS5_E15difference_typeES5_
jOe:_InputField_CaretBlink_m3960486606
bk:_emscripten_glGetProgramiv
s0f:_SmallXmlParser_ReadCharacters_m1966365555
CId:__ZN6il2cpp2os10ThreadImpl22SetNativeThreadCleanupEPFvPvE
w4b:__ZN21FixedBehaviourManager6UpdateEv
Xbc:__ZN9Transform9SetParentEPS_NS_15SetParentOptionE
XLe:_GridLayoutGroup_set_startCorner_m1660251450
f0:__ZN19ShaderPropertySheet8SetFloatEN9ShaderLab16FastPropertyNameEfNS_8SetFlagsE
g7g:__ZL68InputField_t1631627530_CustomAttributesCacheGenerator_m_AsteriskCharP21CustomAttributesCache
sna:__ZN19RuntimeSceneManager24BeginIntegrateMainThreadEP10UnityScene
yKi:__Z80RuntimeInvoker_Void_t1841601450_Il2CppObject_Int32_t2071877448_Int16_t4041245914PK10MethodInfoPvPS2_
fJd:__ZNSt3__2plIcNS_11char_traitsIcEENS_9allocatorIcEEEENS_12basic_stringIT_T0_T1_EERKS9_S6_
GSf:_LocalDataStoreSlot__cctor_m1192669356
Fvd:__GLOBAL__sub_I_ArrayMetadata_cpp
RSj:_roundf
d4d:_String_CreateString_m2556700934
vib:__ZN18StreamedBinaryReadILb0EE21TransferSTLStyleArrayINSt3__26vectorI17SortingLayerEntryNS2_9allocatorIS4_EEEEEEvRT_17TransferMetaFlags
_r:__ZN8Animator15SetPrepareStageEv
nhi:_Slider_get_axis_m162140813
jbd:__ZN6il2cpp2vmL24SetupTypeHierarchyLockedEP11Il2CppClassRKNS_2os12FastAutoLockE
cbb:__ZL11TextHandleriPK23EmscriptenKeyboardEventPv
dZa:__Z20CalculateLightMatrixRK15SharedLightDataP10Matrix4x4f
Lfi:_ScrollRect_SetLayoutHorizontal_m3486408020
wNc:_destroy_face
H9i:_AnimationOffsetPlayable_INTERNAL_CALL_GetPosition_m602003518
Nth:_TypeBuilder_IsAssignableTo_m3210661829
BQd:__ZN6il2cpp6icalls8mscorlib6System8Security12Cryptography24RNGCryptoServiceProvider13RngInitializeEP11Il2CppArray
ilg:_IPAddress__cctor_m3624830012
kM:__ZN20SoundChannelInstance7setMuteEb
tWg:__ZL115AnimatorStateInfo_t2577870592_CustomAttributesCacheGenerator_AnimatorStateInfo_t2577870592____nameHash_PropertyInfoP21CustomAttributesCache
ang:_AsnEncodedData_EnhancedKeyUsageExtension_m1452131166
FOb:__Z19TransferField_ArrayI18StreamedBinaryReadILb1EE27Converter_SimpleNativeClassI17AnimationCurveTplIfEEEvRK23StaticTransferFieldInfoR31RuntimeSerializationCommandInfoRT0_
KIc:__ZN7b2World18SetContactListenerEP17b2ContactListener
kAa:__ZN18GfxFramebufferGLES22MakeCurrentFramebufferENS_7BuiltinE
msg:_Interpreter_Close_m1500459069
vk:_JS_SystemInfo_GetWidth
Spa:__ZN12CachedReader4ReadEPvj
dVc:_cf2_blues_init
rni:_InternalEnumerator_1_System_Collections_IEnumerator_get_Current_m3600601141_gshared
TXd:_SHA1Internal_HashFinal_m3188468925
Uyj:_Vector3_op_Inequality_m799191452
vYa:__Z24CalculateLightShadowFadeRK6CamerafffR8Vector4f
E1:__ZN19RuntimeSceneManagerD2Ev
wfj:_ChannelData_get_CustomProperties_m1470957369
oja:__ZN6prcore17GetIntegerBlitterE13TextureFormatS0_N14ImageReference8BlitModeE
v3i:_Camera_INTERNAL_CALL_ScreenPointToRay_m2752248646
krd:__ZN6il2cpp2gc19AppendOnlyGCHashMapINSt3__24pairIPK11Il2CppImageP11Il2CppClassEEP22Il2CppReflectionModule17ReflectionMapHashIS9_ENS2_8equal_toIS9_EEE11TryGetValueERKS9_PSB_
WZh:_Enumerator_VerifyState_m3173176371_AdjustorThunk
mkg:_TypeConverterAttribute__cctor_m506796812
Hbc:__ZN9BlobWrite14ReduceCopyImplERK14ReduceCopyDataj
Uvi:_Comparer_1_System_Collections_IComparer_Compare_m1790257529_gshared
LAc:__ZNK12b2WheelJoint10GetAnchorAEv
xXj:_glShaderSource__wrapper
EKa:__ZN25MultiBlocksMemoryFileData17AdjustBlocksCountEj
Wyd:__ZNSt3__214__split_bufferIN6il2cpp2vm22EmbeddedResourceRecordERNS_9allocatorIS3_EEED2Ev
zbg:_TlsClientHello__ctor_m1699671541
BLc:__ZN13TextRendering4Font8TransferI24GenerateTypeTreeTransferEEvRT_
ehj:_Context_NotifyGlobalDynamicSinks_m2916447645
lNa:__ZN23ManagedAttributeManager15InitializeClassEv
gec:__Z27CullingGroup_CUSTOM_DisposeP12Il2CppObject
wWh:_Random_Range_m2884721203
XRa:__ZN13ComputeShader15SetTextureParamEjRKN9ShaderLab16FastPropertyNameE9TextureID16TextureDimension
Egi:_Shadow_set_effectDistance_m1951993364
EMh:_GUILayoutEntry_ApplyStyleSettings_m371609721
X3h:_Dictionary_2_ContainsKey_m416495915_gshared
Bm:_glStencilMask
AId:__ZN6il2cpp2os10ThreadImpl16GetCurrentThreadEv
lcg:_TlsServerHelloDone__ctor_m2125611008
she:_Hashtable__ctor_m2337481811
BZh:_Enumerator_System_Collections_IEnumerator_get_Current_m2010873149_gshared
g9g:__ZL74SpriteState_t1353336012_CustomAttributesCacheGenerator_m_HighlightedSpriteP21CustomAttributesCache
Zdh:_RealProxy__ctor_m2505535530
WNd:_GC_push_conditional_with_exclusions
AHh:_UInt32_System_IConvertible_ToUInt16_m2798641702_AdjustorThunk
_fh:_BinaryFormatter_get_DefaultSurrogateSelector_m219714691
pxh:_MonoProperty_GetOptionalCustomModifiers_m3827844355
BXf:_SimpleCollator_GetSortKey_m2188419329
_9g:__ZL56LayoutElement_t2808691390_CustomAttributesCacheGeneratorP21CustomAttributesCache
Qhc:__Z33Register_UnityEngine_Random_Rangev
omb:__ZN14RenderSettings27UpdateIndirectSpecularColorEv
hzb:__ZN14PlayerSettings8TransferI18StreamedBinaryReadILb0EEEEvRT_
Ckd:__ZN6il2cpp6icalls8mscorlib6System8MonoType16GetMethodsByNameEP20Il2CppReflectionTypeP12Il2CppStringibS5_
doe:_Convert_ToSingle_m3186653037
hej:_GCHandle__ctor_m2952050298
Mai:_Mask_IsRaycastLocationValid_m62488857
E$:__ZN17DirectorFrameTime10SampleTimeEfff
Jsa:__ZNSt3__27__sort3IRNS_4lessIN22BuiltinResourceManager8ResourceEEEPS3_EEjT0_S7_S7_T_
gvi:_DefaultComparer_Compare_m3472472212_gshared
dOf:_MonoIO_GetLength_m2812344043
NTc:_ps_hints_t2mask
jF:__Z110Register_UnityEngine_Experimental_Director_AnimatorControllerPlayable_INTERNAL_CALL_GetParametersArrayInternalv
Xub:__ZN10BlendShape8TransferI19StreamedBinaryWriteILb0EEEEvRT_
Kcj:_PlayableHandle_INTERNAL_CALL_IsValidInternal_m2792360706
yxj:_Transform_IsChildOf_m10844547
xLf:__Z21il2cpp_codegen_sizeofP11Il2CppClass
lba:__Z19GetTimeSinceStartupv
x0d:_SecurityFrame_get_Assembly_m2816566490
$Od:_GC_notify_or_invoke_finalizers
cZc:_TT_Load_Composite_Glyph
Dzj:_NetFxCoreExtensions_CreateDelegate_m2492743074
Wyi:__Z51RuntimeInvoker_Boolean_t3825574718_Int64_t909078037PK10MethodInfoPvPS2_
c8d:_Array_Sort_m2994254654
Nkf:_List_1__ctor_m593058937_gshared
RWa:__ZN29RenderNodeQueuePrepareContextC2Ev
BTh:_Mesh_Clear_m231813403
XN:__ZN10SampleClipC2E18MemLabelIdentifier18ObjectCreationMode
DUb:__ZN9ShaderLab20SerializedSubProgram16TextureParameter8TransferI24GenerateTypeTreeTransferEEvRT_
cSd:__ZN6il2cpp2os11MutexHandle4WaitEj
Cac:__ZL34GetComponentsImplementationRecurseILb1ELi1ELi1EEbR10GameObjectbRK17CompareParametersRK39GetComponentsImplementation_ReturnValue
bSd:__ZN6il2cpp2os11MutexHandle4WaitEv
yde:_ArrayList_set_Capacity_m592558035
dla:__ZN6prcoreL17RemapGenericFloatI15TexFormatRGHalf18TexFormatARGBFloatEEvPKNS_9InnerInfoE
tKf:_Int64_System_IConvertible_ToDecimal_m3390697048_AdjustorThunk
TQa:__ZN13RenderManager23AddRemoveCamerasDelayedEv
qQa:_UNITY_png_write_pHYs
aUe:_Array_InternalArray__ICollection_Remove_TisILTokenInfo_t149559338_m1523907845_gshared
a4c:__ZN11UnityEngine9Analytics15AnalyticsConfigC2Ev
n6i:_ContactFilter2D_CheckConsistency_m1391185667
hOh:_GUISkin_set_toggle_m1758777401
tHj:_Enumerator_CheckState_m1761755727_gshared
Lhe:_Hashtable_Rehash_m2877670513
p3a:__ZN13RenderTexture8SetWidthEi
hQe:_InputField_Insert_m1593238693
eZc:_UNITY_FT_GlyphLoader_CheckSubGlyphs
w2e:_Array_Sort_TisVector3_t2243707580_m3220373153_gshared
_Ye:_Array_InternalArray__ICollection_Add_TisCustomAttributeTypedArgument_t1498197914_m3260005285_gshared
ZYa:__Z25SetupObjectBakedOcclusionbRK15SharedLightDataRK26SharedLightmapSettingsDataRK15LightmapIndicesR17ShaderPassContext
Aie:_SyncHashtable_GetObjectData_m3774367030
NHf:_Guid_GetHashCode_m1401300871
xpc:__Z42Register_UnityEngine_GUIStyle_set_fontSizev
ks:__ZN8Animator9BuildJobsERK13dynamic_arrayIP14PlayableOutputLj4EERS0_INS_11AnimatorJobELj4EEPS7_bb
I$:__ZN9ShaderLab16FastPropertyName4InitEPKc
V_b:__Z13RegisterClassIN2UI13RectTransformEEvv
ZWf:_MSCompatUnicodeTable_ToWidthCompat_m2299599532
j6i:_Component_BroadcastMessage_m444672650
HVf:_NumberFormatter_get_IsFloatingSource_m2830957202
wsb:__ZN10VertexData8TransferI17RemapPPtrTransferEEvRT_
Nca:__ZN13RenderTexture9SetMipMapEb
Lei:_ScrollRect_set_verticalScrollbarSpacing_m2356851539
PZ:__Z18GetDirectorManagerv
oWf:_OperatingSystem_GetObjectData_m2276196875
Uhb:__ZNK10TagManager26GetTypeInfoVirtualInternalEv
QBb:__ZN21ArchiveStorageCreator13AppendRawNodeERKN4core12basic_stringIcNS0_20StringStorageDefaultIcEEEEN20ArchiveStorageHeader9NodeFlagsEyy
Ejc:__Z38Transform_CUSTOM_INTERNAL_get_rotationP12Il2CppObjectP11Quaternionf
Zbj:_AnimatorControllerPlayable_CrossFadeInFixedTime_m1082259778
$qd:__ZNK15dense_hashtableINSt3__24pairIK10KeyWrapperINS1_IPK10MethodInfoP11Il2CppClassEEEjEES9_17ReflectionMapHashIS8_EN14dense_hash_mapIS9_jSD_NS9_14EqualsComparerINS0_8equal_toIS8_EEEENS0_9allocatorISB_EEE9SelectKeyESI_SK_E5beginEv
yCa:__ZN7ApiGLES19UploadBufferSubDataEjN2gl12BufferTargetEllPKv
T1d:_String_System_IConvertible_ToInt32_m1927223638
wUe:_Array_InternalArray__ICollection_Remove_TisContentType_t1028629049_m3085152315_gshared
W3i:_Canvas_set_sortingOrder_m2922819993
Z3d:_ASCIIEncoding__ctor_m4127831672
GGb:__Z19TransferField_ArrayI14SafeBinaryRead27Converter_SimpleNativeClassI8GUIStyleEEvRK23StaticTransferFieldInfoR31RuntimeSerializationCommandInfoRT0_
BAh:_UTF8Encoding__ctor_m3336862259
MQd:__ZN6il2cpp5utils10MemoryPoolC2Ej
vpg:_X509Chain_GetAuthorityKeyIdentifier_m2607407678
IQd:__ZN6il2cpp5utils10MemoryPoolC2Ev
Qlb:__ZN14RenderSettings5ResetEv
qzd:__ZNSt3__212basic_stringIDsNS_11char_traitsIDsEENS_9allocatorIDsEEE6appendEPKDsj
YCi:__Z117RuntimeInvoker_Int32_t2071877448_Il2CppObject_Il2CppObject_Int32_t2071877448_Int32_t2071877448_BooleanU26_t3168250738PK10MethodInfoPvPS2_
xsi:_InternalEnumerator_1_get_Current_m3724267862_AdjustorThunk
r3e:_Dictionary_2_Do_ICollectionCopyTo_TisKeyValuePair_2_t3716250094_m1740410536_gshared
xLh:_GUI_CallWindowDelegate_m2039577415
kId:__ZN6il2cpp2os10ThreadImplD2Ev
y1f:_RSAManaged_Dispose_m3018788098
Mzc:__ZN12b2MouseJoint23InitVelocityConstraintsERK12b2SolverData
xqc:__ZN8Gradient8TransferI9JSONWriteEEvRT_
Cbb:__ZNK12TLSAllocatorI14StackAllocatorE22GetAllocatedMemorySizeEv
lBg:__ZL54AssemblyName_t894705941_CustomAttributesCacheGeneratorP21CustomAttributesCache
Boe:_Convert_ToUInt32_m3394039268
y5a:__ZN17RemapPPtrTransfer12PushMetaFlagE17TransferMetaFlags
tLa:__ZN12HandlerChain4NameEv
Ixb:__ZNSt3__26vectorI9InputAxisNS_9allocatorIS1_EEE10deallocateEv
LIf:_Int16_Equals_m3925135434_AdjustorThunk
w2c:__Z44Register_UnityEngine_CanvasRenderer_get_cullv
bzg:__ZL60IHashCodeProvider_t1980576455_CustomAttributesCacheGeneratorP21CustomAttributesCache
p$b:__ZN13ProduceHelperI13MonoBehaviourLb0EE7ProduceE18MemLabelIdentifier18ObjectCreationMode
X7e:_Enumerator_VerifyState_m1677639504_AdjustorThunk
Jag:_CipherSuiteCollection_get_Item_m280627160
mFb:__Z44InitializeTransferFunctionScriptingTraitsForI17RemapPPtrTransferEvR31TransferFunctionScriptingTraits
qdh:_SerializationInfoEnumerator_MoveNext_m1876990879
TDh:_TimeSpan_Duration_m4205681645
X6a:__ZN14UnityWebStream24UpdateAllUnityWebStreamsEv
Fxg:__ZL60ObsoleteAttribute_t3878847927_CustomAttributesCacheGeneratorP21CustomAttributesCache
npj:_Uri_ParseAsWindowsAbsoluteFilePath_m1108586962
w_e:_Array_InternalArray__ICollection_CopyTo_TisRaycastHit2D_t4063908774_m3837098618_gshared
qna:__ZN18LoadSceneOperation21MustCompleteNextFrameEv
NK:__ZNK12AudioManager16GetAudioListenerEv
DAe:_EventTrigger_OnScroll_m626934407
APg:__ZL48Camera_t189460977_CustomAttributesCacheGeneratorP21CustomAttributesCache
K2a:__ZNSt3__26vectorI11CameraStackNS_9allocatorIS1_EEE8__appendEj
OBc:__ZNK11Rigidbody2D20GetAttachedCollidersER13dynamic_arrayIP10Collider2DLj4EE
qPe:_InputField_OnDisable_m1865339380
xHh:_UInt32_System_IConvertible_ToType_m747769316
Bx:__ZN7mecanim9animation12GetHumanPoseERKNS0_18ClipMuscleConstantEPKNS0_10ValueDeltaERNS_5human9HumanPoseE
M3c:__ZN11UnityEngine9Analytics15UserCustomEvent12CustomParams6InsertEPKcRNS1_11CustomValueE
XYj:_glDeleteVertexArrays__wrapper
AX:__Z13GetFileSystemv
d6:__ZNK5Unity4Type21FindAllDerivedClassesER13dynamic_arrayIPKS0_Lj4EENS0_17TypeFilterOptionsE
Y6:__ZN13RuntimeStaticI15GUIEventManagerLb0EE16StaticInitializeEPv
Gwb:__ZN14SafeBinaryRead8TransferIfEEvRT_PKc17TransferMetaFlags
bGf:_DaylightTime_get_Delta_m2316831491
eGc:__ZNSt3__27__sort5IR24RayHitsByDepthComparitorP12RaycastHit2DEEjT0_S5_S5_S5_S5_T_
xTe:_Array_InternalArray__ICollection_Contains_TisUILineInfo_t3621277874_m1175659630_gshared
hDh:_WaitHandle_WaitOne_m370363697
Brg:_FactoryCache_Lookup_m1681894361
Jqe:_DateTime_Subtract_m698282245_AdjustorThunk
nwb:__ZThn32_N14SpriteRenderer15AddAsRenderNodeER15RenderNodeQueueRK20DeprecatedSourceData
SOb:__Z29Transfer_Blittable_ArrayFieldI18StreamedBinaryReadILb1EE5RectTIfEEvRT_R9ArrayInfoRK23StaticTransferFieldInfo
iSa:__ZN19ShaderPropertySheet9SetMatrixEN9ShaderLab16FastPropertyNameERK10Matrix4x4fNS_8SetFlagsE
lWd:_RIPEMD160Managed_Initialize_m3365407578
zob:__Z29GetTextureSizeAllowedMultiple13TextureFormat
hlg:_IPAddress_HostToNetworkOrder_m1092199707
$Ue:_SetPropertyUtility_SetStruct_TisSpriteState_t1353336012_m2898060836_gshared
B_d:_SecurityAttribute__ctor_m3425755778
V4b:__ZN21IntermediateRenderers3AddEP20IntermediateRenderer
yld:_il2cpp_array_element_size
bg:_glCheckFramebufferStatus
nWe:_Array_compare_TisInt32_t2071877448_m840310202_gshared
Fui:_InternalEnumerator_1_System_Collections_IEnumerator_get_Current_m442726479_AdjustorThunk
Ikh:_DESTransform_ECB_m2629024873
fti:_InternalEnumerator_1_System_Collections_IEnumerator_get_Current_m790514740_AdjustorThunk
S3d:__Z37il2cpp_codegen_get_executing_assemblyPK10MethodInfo
tXe:_Array_InternalArray__IndexOf_TisByte_t3683104436_m3605266236_gshared
YQh:_GUIStyle_set_richText_m1853532836
Pci:_RaycastAllCallback_Invoke_m981876639
ozh:_UnicodeEncoding__ctor_m72484327
pBd:__ZN14dense_hash_mapI10KeyWrapperIP14Il2CppIUnknownEjN6il2cpp5utils11PointerHashIS1_EENS3_14EqualsComparerINSt3__28equal_toIS2_EEEENS9_9allocatorINS9_4pairIKS3_jEEEEE15set_deleted_keyERSF_
I6:__ZN22BuiltinResourceManager16StaticInitializeEPv
eFf:_NumberFormatter_ScaleOrder_m1915154678
tyc:__ZN24b2ChainAndCapsuleContact8EvaluateEP10b2ManifoldRK11b2TransformS4_
Ecg:_ClientSessionInfo_SetContext_m2649357891
CJf:_Int32_System_IConvertible_ToInt64_m3790029067_AdjustorThunk
fAe:_RaycasterManager_GetRaycasters_m1154876874
Rhg:_SslStreamBase_InternalReadCallback_m2524917586
G5:__ZN8Remapper6RemoveEi
Wcf:_List_1_CheckCollection_m2608305187_gshared
dOc:__ZL36CleanupTextRenderingScriptingClassesv
l3a:__ZN15ReflectionProbe17UseRendererResultEP13ProbeRenderer
K7d:_Array_BinarySearch_m3270245097
Ggc:__Z34Mesh_CUSTOM_SetArrayForChannelImplP12Il2CppObject30InternalScriptingShaderChannel34InternalScriptingVertexChannelTypeiP11Il2CppArrayi
rNf:_MonoIO_DeleteFile_m3273821223
JYf:_BigInteger_GenerateRandom_m2507308768
zpe:_DateTime_System_IConvertible_ToDouble_m1431748426_AdjustorThunk
CXi:__Z76RuntimeInvoker_Void_t1841601450_Int32_t2071877448_ContactPoint2D_t3659330976PK10MethodInfoPvPS2_
jTe:_Array_InternalArray__ICollection_Contains_TisUInt16_t986882611_m510319131_gshared
x$e:_Array_InternalArray__Insert_TisRaycastHit2D_t4063908774_m3174907903_gshared
Zse:_Decimal_ToString_m541380585
U8c:__ZZN18UnityConnectClient23RegisterGlobalCallbacksEvEN41EarlyUpdateUnityConnectClientUpdatestruct7ForwardEv
NB:__ZN11UnityEngine9Animation28GenericAnimationBindingCache25RegisterIAnimationBindingEPKN5Unity4TypeEiP17IAnimationBinding
ZE:__Z106Register_UnityEngine_Experimental_Director_AnimatorControllerPlayable_INTERNAL_CALL_GetLayerWeightInternalv
A2c:__Z70RectTransformUtility_CUSTOM_INTERNAL_CALL_RectangleContainsScreenPointP12Il2CppObjectRK13Vector2fIcallS0_
bwe:_Enum_ToObject_m2601523252
tTj:dynCall_viiffiii
xVa:__Z20RenderSceneDepthPassRK19SharedRendererSceneRK17ShaderReplaceDatabR17ShaderPassContext
u3c:__ZN14UnityAnalytics25UnregisterGlobalCallbacksEv
o1a:__Z40ProcessCameraIndexListIsNodeVisibleInOutRK22SceneCullingParametersPK9SceneNodePK4AABBR9IndexList
Qkb:__ZN16GraphicsSettings8TransferI17RemapPPtrTransferEEvRT_
yQf:_StreamReader__ctor_m2654332332
_$c:__ZN2UI6Canvas13UpdateBatchesEb
dFc:__ZN17PolygonCollider2D15TransformPointsERK13dynamic_arrayI8Vector2fLj4EERK10Matrix4x4fRKS1_fP6b2Vec2
abf:_List_1_CheckCollection_m3968030679_gshared
Uyh:_StringBuilder_ToString_m617673931
H6c:__ZN11UnityEngine7Connect13ConfigHandler12GetListenersERKN4core12basic_stringIcNS2_20StringStorageDefaultIcEEEE
xva:__ZN9GfxDevice18AllocRenderSurfaceEb
wZb:__ZN10TagManager32GetSortingLayerUniqueIDFromValueEi
onj:_AnchorInfo_get_IsComplete_m1247624133
iJe:_Dropdown_Show_m324374589
LCe:_PointerInputModule_ShouldStartDrag_m4163638715
yCe:_RaycastResult_get_isValid_m2482925612
vgc:__Z26AnimationCurve_CUSTOM_InitP12Il2CppObjectP11Il2CppArray
$_j:_glUniform1uiv__wrapper
ayc:__ZNK14b2PolygonShape5CloneEP16b2BlockAllocator
ntd:__ZN6il2cpp2vm10Reflection7IsEventEP12Il2CppObject
n2:__ZN17PersistentManager26GetStreamNameSpaceInternalEi
uG:__ZN4FMOD6System11createSoundEPKcjP22FMOD_CREATESOUNDEXINFOPPNS_5SoundE
O4i:_CanvasRenderer_get_cull_m3577089379
bo:FUNCTION_TABLE_iiifiiii
jVh:_Object_Destroy_m4145850038
HOi:__Z109RuntimeInvoker_Void_t1841601450_PlayableHandleU26_t3483893774_Int32_t2071877448_SByte_t454417549_Il2CppObjectPK10MethodInfoPvPS2_
God:__ZN6il2cpp2vm4Type14IsSystemDBNullEPK10Il2CppType
C0:__ZN9ShaderLab19CommonPropertyNames13StaticCleanupEPv
v3:__Z31scripting_method_get_returntype18ScriptingMethodPtr
Tei:_ScrollRect_UpdateBounds_m3266596336
Ipb:__ZN15SerializeTraitsI12LightmapDataE8TransferI24GenerateTypeTreeTransferEEvRS0_RT_
RGe:_ColorBlock_GetHashCode_m649325222
zXj:_glStencilOpSeparate__wrapper
a8b:__ZN4Mesh5SetUvEiPKfjj
Tna:__ZN7Texture13SetAnisoLimitENS_20AnisotropicFilteringE
ioa:__ZN28LightProbeProxyVolumeManager25UpdateSHCoeffsTextureDataER21LightProbeProxyVolume
vJa:__Z18CreateDecompressor15CompressionType18MemLabelIdentifier
QO:__ZN11AudioModule16SetListenerPauseEb
Vh:_emscripten_glCompressedTexSubImage2D
ODa:__ZN13GfxDeviceGLES22MemoryBarrierImmediateEyN2gl17MemoryBarrierTypeE
Aoe:_Convert_ToUInt32_m1336475941
sla:__ZN6prcoreL26RemapGenericFloatToIntegerI18TexFormatARGBFloat17TexFormatARGB8888EEvPKNS_9InnerInfoE
lXc:_cff_ps_has_glyph_names
TCj:_InvokableCall_1__ctor_m2837611051_gshared
yMd:_GC_write
alj:_PatternCompiler_EmitPosition_m3013268572
Zqg:_X509SubjectKeyIdentifierExtension__ctor_m1109455121
QYb:__Z13tessTesselateP14TESStesselatoriiiiPKf
uLe:_Graphic_CreateColorFromAlpha_m2614574534
Jpc:__Z44Register_UnityEngine_GUIStyle_SetDefaultFontv
_6b:__ZN19SpriteMeshGenerator9MakeShapeEP11ColorRGBA32iifhbjfi
eNb:__Z18Transfer_BlittableI18StreamedBinaryReadILb1EELb1EiEvRK29SerializationCommandArgumentsR31RuntimeSerializationCommandInfo
Xs:__ZN9BlobWrite8TransferI22OffsetPtrArrayTransferIKN4math7_float3EEEEvRT_PKc17TransferMetaFlags
wZd:_TripleDES_IsWeakKey_m483013953
mog:_X509Certificate2_get_PrivateKey_m2662162956
csd:__ZN15dense_hashtableINSt3__24pairIK10KeyWrapperINS1_IPK12PropertyInfoP11Il2CppClassEEEjEES9_17ReflectionMapHashIS8_EN14dense_hash_mapIS9_jSD_NS9_14EqualsComparerINS0_8equal_toIS8_EEEENS0_9allocatorISB_EEE9SelectKeyESI_SK_E12maybe_shrinkEv
wNb:__Z18Transfer_BlittableI18StreamedBinaryReadILb1EELb1EsEvRK29SerializationCommandArgumentsR31RuntimeSerializationCommandInfo
oz:__ZN26AnimatorControllerPlayable17IsMultithreadableEv
$0d:_Single_System_IConvertible_ToSByte_m3757385387
rOf:_StreamAsyncResult_SetComplete_m2141125667
Yna:__ZL21SetAnisoLimitEnumImplN7Texture20AnisotropicFilteringEb
h5c:__ZN22BaseUnityConnectClient17OnEnterStateReadyEv
xY:__GLOBAL__sub_I_platformdependent_webgl_source_lump_cpp
ykb:__ZN14GrowableBufferD2Ev
Qfc:__Z29Input_CUSTOM_GetMouseButtonUpi
ald:__ZN6il2cpp6icalls8mscorlib6System8MonoType16InternalGetEventEP20Il2CppReflectionTypeP12Il2CppStringi
DId:__ZN6il2cpp2osL23CleanupThreadIfCanceledEPv
$fc:__Z46Input_CUSTOM_INTERNAL_set_compositionCursorPosRK13Vector2fIcall
qu:__ZN7mecanim5human12FullBodyMaskEv
b0:__ZN19ShaderPropertySheet11ComputeHashEv
Med:__ZN30dense_hashtable_const_iteratorI10KeyWrapperIPK19Il2CppGenericMethodES4_N6il2cpp8metadata23Il2CppGenericMethodHashEN14dense_hash_setIS4_S7_NS4_14EqualsComparerINS6_26Il2CppGenericMethodCompareEEENSt3__29allocatorIS4_EEE8IdentityESB_SE_EppEv
Dyc:__ZN12b2EPCollider24ComputePolygonSeparationEv
n$e:_Array_InternalArray__Insert_TisUInt16_t986882611_m2263078_gshared
VFe:_CanvasScaler_HandleScaleWithScreenSize_m80056230
PR:__ZN11UnityEngine15CloudWebService16SessionContainer16GetJsonDataBlockEjRKN4core12basic_stringIcNS2_20StringStorageDefaultIcEEEERS6_PjSA_
jkd:__ZNK6il2cpp5utils10functional6FilterINSt3__212basic_stringIcNS3_11char_traitsIcEENS3_9allocatorIcEEEENS0_11StringUtils21CaseSensitiveComparerEEclIPKcEEbRKT_
jAh:_UTF7Encoding_InternalGetBytes_m2772055844
jXf:_SimpleCollator__cctor_m2693747668
Sse:_Decimal_CompareTo_m2454501434_AdjustorThunk
C2:__ZN14SafeBinaryReadD2Ev
iGh:_UInt16_System_IConvertible_ToChar_m4055364664
O_b:__Z13RegisterClassI7TextureEvv
DOb:__ZN8Gradient8TransferI18StreamedBinaryReadILb1EEEEvRT_
Z$h:_Enumerator_Dispose_m2369319718_AdjustorThunk
tpc:__Z45Register_UnityEngine_GUIStyle_SetFontInternalv
JEc:__ZN19CollisionListener2DD0Ev
ebd:__ZN6il2cpp2vmL17SetupEventsLockedEP11Il2CppClassRKNS_2os12FastAutoLockE
fAd:__ZN6il2cpp6icalls8mscorlib6System4Type15MakeGenericTypeEP20Il2CppReflectionTypeP11Il2CppArray
oj:_SDL_PauseAudio
Vld:_il2cpp_class_from_type
q8d:_Array_Sort_m2323017822
_md:__ZN6il2cpp2os4File11GetStdErrorEv
wNh:_GUILayoutUtility__cctor_m2957755459
B0:__ZN9ShaderLab19CommonPropertyNames16StaticInitializeEPv
Asa:__ZN17ShaderPassContext8CopyFromERKS_
DA:__ZN7mecanim9animation18CreateAvatarOutputEPKNS0_14AvatarConstantEbbRNS_6memory9AllocatorE
Tpc:__Z45GUIUtility_CUSTOM_Internal_GetKeyboardControlv
ikh:_CspParameters__ctor_m2546931874
dM:__ZN11AudioSource23VirtualRedirectTransferER24GenerateTypeTreeTransfer
g4c:__ZN14UnityAnalytics15SendCustomEventERN11UnityEngine9Analytics15UserCustomEventE
Zsb:__ZN14Texture2DArray23VirtualRedirectTransferER14SafeBinaryRead
qYa:__ZNK6Camera21CalculateCanDoShadowsEv
CLe:_Graphic__cctor_m1643894470
YHd:__ZN6il2cpp2os6Thread12SetStackSizeEj
Iog:_X509ChainElementEnumerator_get_Current_m2232618221
rFe:_U3COnFinishSubmitU3Ec__Iterator0_Reset_m2080388334
v8b:__ZNK8Renderer16IsVisibleInSceneEv
F2i:_Behaviour_get_isActiveAndEnabled_m3838334305
Nei:_ScrollRect_set_onValueChanged_m3957749575
_X:__Z13VFormatBufferPciPKcz
vPb:__Z18Transfer_BlittableI18StreamedBinaryReadILb0EELb1EhEvRK29SerializationCommandArgumentsR31RuntimeSerializationCommandInfo
MAj:_U3CCreateWhereIteratorU3Ec__Iterator1D_1_Dispose_m1879652802_gshared
BZb:__ZL24GenerateTilingJobCombineP22GenerateTilingAreaInfo
uNe:_Image_GenerateSimpleSprite_m4275440988
n7i:_Display_get_systemHeight_m3377672024
ZGh:_UInt16_ToString_m3280699191
wla:__ZN6prcoreL27StretchGenericFloatBilinearI15TexFormatRFloatEEvPKNS_9InnerInfoE
_zi:__Z130RuntimeInvoker_Int32_t2071877448_Il2CppObject_Int32_t2071877448_Int32_t2071877448_Il2CppObject_Int32_t2071877448_Int32_t2071877448PK10MethodInfoPvPS2_
$Ei:__Z102RuntimeInvoker_Il2CppObject_Int32_t2071877448_Int32_t2071877448_Il2CppObject_Il2CppObject_Il2CppObjectPK10MethodInfoPvPS2_
dXe:_Array_IndexOf_TisCustomAttributeNamedArgument_t94157543_m745056346_gshared
ZBa:__Z14PadImageBorderR14ImageReferenceii
Hqd:__ZN15dense_hashtableINSt3__24pairIK10KeyWrapperINS1_IPK10MethodInfoP11Il2CppClassEEEjEES9_17ReflectionMapHashIS8_EN14dense_hash_mapIS9_jSD_NS9_14EqualsComparerINS0_8equal_toIS8_EEEENS0_9allocatorISB_EEE9SelectKeyESI_SK_E4findERSA_
Whd:__ZN6il2cpp2vm13MetadataCache28GetFieldDefaultValueForFieldEPK9FieldInfo
nki:_ArrayReadOnlyList_1_ReadOnlyError_m2289309720_gshared
Hy:__ZN27AnimationLayerMixerPlayableD2Ev
RMf:_Path_IsPathRooted_m1347207448
A8f:_PKCS1_Verify_v15_m478274703
tI:__ZN12AudioManager39HandlePendingAudioConfigurationCallbackEv
kk:_emscripten_glIsFramebuffer
NEa:__ZNK13TranslateGLES9GetFormatE13TextureFormat17TextureColorSpace
k4b:__ZN12_GLOBAL__N_16qAtan2Eff
bfi:_ScrollRect_OnEnable_m2748112742
Lne:_Convert_ToInt64_m954367741
ok:_JS_Sound_SetLoopPoints
qde:_ArrayList__ctor_m1467563650
oN:__ZN12AudioManager17ShouldSourcePauseEb
bRd:__ZN6il2cpp2vm26MetadataAllocGenericMethodEv
pGa:__ZN19ConstantBuffersGLES12RecordRenderEv
iqa:__ZN18AsyncUploadManager22UploadStreamingTextureEP28FileTextureUploadInstruction
zsc:__ZN9JSONWrite8TransferI10RectOffsetEEvRT_PKc17TransferMetaFlags
FBa:__ZN4crnd12symbol_codec11decode_bitsEj
Eyc:__ZN15b2CircleContact8EvaluateEP10b2ManifoldRK11b2TransformS4_
d2e:_Array_Sort_TisRaycastResult_t21186376_TisRaycastResult_t21186376_m38820193_gshared
M0i:_Animator_ResetTriggerString_m1445965342
BNf:_StreamReader__ctor_m3454466728
yI:__ZN4FMOD6System12createReverbEPPNS_6ReverbE
zIh:_UInt64_Equals_m1243465002
Pxj:_Vector2_get_Item_m2792130561
Ema:__Z16MarkDependenciesR27GarbageCollectorThreadStatej
Aqg:_X509ChainElementEnumerator_Reset_m3832280427
kVf:_MulticastDelegate_RemoveImpl_m2024746777
dGe:_CanvasUpdateRegistry_ParentCount_m2367607495
eVf:_MulticastDelegate_Equals_m3064081489
QSi:__Z54RuntimeInvoker_Void_t1841601450_ColorBlock_t2652774230PK10MethodInfoPvPS2_
u4f:_Activator_CreateInstance_m1465989661
w0:__ZNK9Transform11GetPositionEv
Poj:_PositionAssertion_GetWidth_m2294218483
YSa:__ZN23SharedMeshRenderingData18UnloadVertexStreamEi
_yj:_Vector4_set_Item_m3077071044
Tmh:_AssemblyName_set_Version_m1012722441
U4b:__ZN31CanvasBatchIntermediateRenderer11AddSubBatchERK16DrawBuffersRangePK19ShaderPropertySheet
u3b:__ZN19RenderEventsContextC2Ei
bQ:__Z6simd4fRKf
r_e:_Array_InternalArray__ICollection_CopyTo_TisColor32_t874517518_m379086718_gshared
lhi:_Slider_ClampValue_m2851810895
Rk:_emscripten_glEnable
WNh:_GUISkin_set_font_m4009958323
yEj:_UnityEvent_1_FindMethod_Impl_m3813546_gshared
QDd:__ZN6il2cpp2gc16GarbageCollector29RegisterFinalizerForNewObjectEP12Il2CppObject
_hb:__ZN10TagManager23VirtualRedirectTransferER14SafeBinaryRead
qQc:_UNITY_FT_Init_Class_ft_grays_raster
h$a:__Z15InitLightMeshesv
OIg:__ZL97WaitHandle_t677569169_CustomAttributesCacheGenerator_WaitHandle_t677569169____Handle_PropertyInfoP21CustomAttributesCache
h6e:_KeyValuePair_2_ToString_m1391611625_AdjustorThunk
Cn:FUNCTION_TABLE_iifiii
Pme:_Double_Parse_m1617409931
HRa:__ZN22RenderingCommandBuffer36AcquireAndRegisterSharedMaterialDataEP8Material
ILb:__Z18Transfer_BlittableI19StreamedBinaryWriteILb0EELb1E8Vector2fEvRK29SerializationCommandArgumentsR31RuntimeSerializationCommandInfo
lVc:_cf2_arrstack_init
CCg:__ZL65ClassInterfaceAttribute_t910653559_CustomAttributesCacheGeneratorP21CustomAttributesCache
KV:__Z15CleanLogHandler7LogTypePKcz
eVb:__ZN9ShaderLab19SerializedSubShader8TransferI19StreamedBinaryWriteILb0EEEEvRT_
Ozh:_UTF32Encoding_GetBytes_m2290150495
vDb:__ZN6Camera17RemoveImageFilterERK11ImageFilter
oDa:__ZNSt3__218__insertion_sort_3IR25ValueParameterArraySorterPN20GpuProgramParameters14ValueParameterEEEvT0_S6_T_
wDc:__ZN10ClipperLib7Clipper27ProcessEdgesAtTopOfScanbeamEx
jai:_LayoutUtility_GetLayoutProperty_m4052007472
XCj:_InvokableCall_1_Invoke_m3239892614_gshared
FSa:__ZNSt3__214__split_bufferI20ComputeShaderVariantRNS_9allocatorIS1_EEED2Ev
pLc:__ZNSt3__26vectorIN4core12basic_stringIcNS1_20StringStorageDefaultIcEEEE13stl_allocatorIS5_L18MemLabelIdentifier34ELi16EEE7reserveEj
adg:_Context_set_WriteSequenceNumber_m3356252710
LHf:_Guid_Equals_m2389236871
R0:__Z27LogRepeatingStringWithFlagsRKN4core12basic_stringIcNS_20StringStorageDefaultIcEEEE15LogMessageFlagsi
Tw:__ZNK8Playable11GetDurationEv
lx:__ZN17AnimationPlayable28ComputeNeedsBindingRebuildedEv
caf:_List_1_CheckIndex_m3609163576_gshared
tzb:__ZN15ResourceManagerD0Ev
iog:_X509ExtensionCollection__ctor_m1324282194
p7c:__ZN18UnityConnectClient33OnPlayerSessionStateChangedStaticEPS_jyy
Hyg:__ZL74CaseInsensitiveHashCodeProvider_t2307530285_CustomAttributesCacheGeneratorP21CustomAttributesCache
Qya:__ZN7ApiGLES4LoadE16GfxDeviceLevelGL
Vpb:__ZN18StreamedBinaryReadILb0EE21TransferSTLStyleArrayI13dynamic_arrayI31EnlightenSystemAtlasInformationLj8EEEEvRT_17TransferMetaFlags
yBa:__ZN4crnd12crn_unpacker22decode_color_endpointsEv
XCd:__ZN15dense_hashtableI10KeyWrapperIP18Il2CppGenericClassES3_N6il2cpp8metadata22Il2CppGenericClassHashEN14dense_hash_setIS3_S6_NS3_14EqualsComparerINS5_25Il2CppGenericClassCompareEEENSt3__29allocatorIS3_EEE8IdentityESA_SD_E15insert_noresizeERKS3_
nxf:_ReadOnlyCollection_1_System_Collections_IList_Clear_m3006875897_gshared
B2b:__ZZL31RegisterOtherRendererPropertiesR22GenericPropertyBindingEN30Wrapper_RendererReceiveShadows13GetFloatValueEPv
p9e:_Enumerator_System_Collections_IEnumerator_get_Current_m3866069145_gshared
Hba:__ZN8Material11SetPassFastEPN9ShaderLab4PassER17ShaderPassContextP6Shaderib
n7c:__ZN11UnityEngine7Connect20BasePersistentValues10SaveValuesER9JSONWrite
rXh:_Rect_get_max_m96665935_AdjustorThunk
Qdj:_RuntimeHelpers_InitializeArray_m3920580167
fBe:_ExecuteEvents_get_pointerDownHandler_m1172742772
dGc:__ZNSt3__27__sort4IR24RayHitsByDepthComparitorP12RaycastHit2DEEjT0_S5_S5_S5_T_
g9b:__Z14ScaleCurveTimeR17AnimationCurveTplIfEf
Xpg:_X509CertificateEnumerator_System_Collections_IEnumerator_MoveNext_m3708362145
bVa:__Z12SetupLODFadeR9GfxDeviceR17ShaderPassContextf
BBc:__ZN26b2PolygonAndCapsuleContact6CreateEP9b2FixtureiS1_iP16b2BlockAllocator
Vrj:_X501_ToString_m3328169518
W_a:__ZL24CollectForwardObjectsJobP27CollectForwardObjectsHeader
WZ:__ZN8Playable13SetGameObjectEP10GameObject
D2a:__ZNK25CameraStackRenderingState24ResolveTempToEyeTexturesEv
O0a:__Z13IsNodeVisibleRK9SceneNodeRK4AABBRK22SceneCullingParameters
C2c:__Z57RectTransformUtility_CUSTOM_INTERNAL_CALL_PixelAdjustRectP12Il2CppObjectS0_R5RectTIfE
Hfh:_DelayedFixupRecord_FixupImpl_m4249966635
Y0j:_emscripten_glStencilMask__wrapper
vOc:__ZZ29InitializeTextRenderingModulevEN40CleanUpTextRenderingGarbageCollectstruct7ForwardEv
J3:__ZN11TypeManager19ClassNameToTypeInfoEPKcb
VYf:_BigInteger_ToString_m3837784224
CRa:__ZN15RenderNodeQueue7CleanupEv
lKc:__ZN16NovodexAllocator8allocateEjPKcS1_i
v_a:__Z17PrepareShadowMapsRK11CullResultsRK11ActiveLightRK10MinMaxAABB
oBh:_NativeEventCalls_CreateEvent_internal_m1605829321
k1g:__ZL73RuntimePlatform_t1869584967_CustomAttributesCacheGenerator_MetroPlayerX64P21CustomAttributesCache
Ppi:_InternalEnumerator_1_System_Collections_IEnumerator_get_Current_m3239681450_AdjustorThunk
T_a:__ZN9ShaderLab10GrabPassesD2Ev
FUh:_MonoBehaviour_set_useGUILayout_m2666356651
itb:__ZN14Texture2DArray13UploadTextureEv
aTi:__Z69RuntimeInvoker_TextGenerationSettings_t2543476768_Vector2_t2243707579PK10MethodInfoPvPS2_
ESc:_tt_cmap14_done
tna:__ZN18AwakeFromLoadQueue25RegisterObjectInstanceIDsEv
Iae:_Buffer_BlockCopy_m1586717258
BFg:__ZL93X509Certificate_t283079845_CustomAttributesCacheGenerator_X509Certificate_GetName_m2354987368P21CustomAttributesCache
lMc:__ZN20TextRenderingPrivate19NativeTextGenerator15InsertCharacterEiPj
qDc:__ZTv0_n12_N10ClipperLib7ClipperD0Ev
Mxe:_CompareInfo_GetSortKey_m3691382873
yAc:__ZN11b2RopeJoint24SolveVelocityConstraintsERK12b2SolverData
Mre:_DBNull_ToString_m3228904745
nmg:_WebHeaderCollection_AddWithoutValidate_m1479880592
TJi:__Z80RuntimeInvoker_Void_t1841601450_Int32_t2071877448_Int32_t2071877448_Il2CppObjectPK10MethodInfoPvPS2_
R8f:_RC4_get_IV_m506011366
ctj:_X509Crl__ctor_m2469408229
wxi:_Enumerator_get_CurrentValue_m3562053380_AdjustorThunk
drg:_X509SubjectKeyIdentifierExtension_CopyFrom_m136762226
m7e:_Enumerator_System_Collections_IEnumerator_Reset_m610822832_AdjustorThunk
vhc:__Z41MonoBehaviour_Set_Custom_PropUseGUILayoutP12Il2CppObjecth
gNc:_UNITY_FT_Open_Face
PYj:_glGenRenderbuffers__wrapper
e3i:_Bounds_ToString_m1966597703
QZf:_BigInteger_op_Division_m1581119694
qRb:__ZN16ScriptingManagerD0Ev
C$i:_UnityAnalyticsHandler_CustomEvent_m2884790978
Ugh:_CallbackHandler_Invoke_m1498072969
Pkh:_DSACryptoServiceProvider__ctor_m701823690
mNh:_Mathf_Clamp_m2354025655
Hnh:_CustomAttributeData_GetCustomAttributes_m2421330738
nFd:__ZN30dense_hashtable_const_iteratorINSt3__24pairIK10KeyWrapperINS1_IPKcS4_EEEiEES6_24NamespaceAndNamePairHashN14dense_hash_mapIS6_iS9_NS6_14EqualsComparerI26NamespaceAndNamePairEqualsEENS0_9allocatorIS8_EEE9SelectKeyESD_SF_EppEv
PEh:_Type_get_IsEnum_m313908919
Zdc:__Z44Register_UnityEngine_Component_get_transformv
Jpf:_Collection_1_System_Collections_ICollection_CopyTo_m1335644572_gshared
Dgf:_List_1_CheckMatch_m2830747427_gshared
oJa:__ZN17ArchiveFileSystem12MountArchiveEPKcS1_
Jrc:__Z18Transfer_BlittableI9JSONWriteLb1E8Vector4fEvRK29SerializationCommandArgumentsR31RuntimeSerializationCommandInfo
C_:__Z11RequireTypePKcS0_S0_
Ixi:_Enumerator_System_Collections_IEnumerator_Reset_m70453843_gshared
zqb:__ZThn32_NK8Renderer14GetSubsetIndexEi
ryj:_Vector3_get_Item_m3616014016
p1b:__ZN13ProduceHelperI15ResourceManagerLb0EE7ProduceE18MemLabelIdentifier18ObjectCreationMode
mwa:__ZN9GfxDevice15ImmediateVertexEfff
v_b:__Z13RegisterClassI8MaterialEvv
Swe:_FieldAccessException__ctor_m3893881490
hQi:__Z82RuntimeInvoker_Int32_t2071877448_Rect_t3681755626_Il2CppObject_Vector2_t2243707579PK10MethodInfoPvPS2_
_ta:__ZN13GfxDeviceGLES15SetStencilStateEPK18DeviceStencilStatei
WOj:_cycle
Tvj:_TextGenerator_Populate_m4139823822
Ld:_emscripten_glUniform1iv
Iii:_Text_get_preferredHeight_m452532789
CFc:__ZN15b2DistanceProxy3SetEPK7b2Shapei
R1d:_String_System_IConvertible_ToDouble_m3860911722
X9a:__ZN16MemoryFileSystemD2Ev
j7f:_ARC4Managed__ctor_m2922048522
xMc:__Z17dynamic_pptr_castIP9Texture2D7TextureET_RK4PPtrIT0_E
Jx:__ZN7mecanim14ValueArrayLoopERKNS_10ValueArrayES2_RS0_fRKNS_14ValueArrayMaskE
Eyf:_ReadOnlyCollection_1_System_Collections_IList_set_Item_m1272038804_gshared
rli:_InternalEnumerator_1_System_Collections_IEnumerator_get_Current_m1931522460_AdjustorThunk
x_d:_SecurityPermission_IsEmpty_m1869313067
Qpg:_X509CertificateCollection__ctor_m3709509050
Bdc:__Z37Register_UnityEngine_Camera_get_depthv
b1f:_EncryptedPrivateKeyInfo_get_Salt_m2734354394
AAf:_ReadOnlyCollection_1_System_Collections_Generic_IListU3CTU3E_set_Item_m1918537449_gshared
LCd:__ZNK15dense_hashtableI10KeyWrapperIP18Il2CppGenericClassES3_N6il2cpp8metadata22Il2CppGenericClassHashEN14dense_hash_setIS3_S6_NS3_14EqualsComparerINS5_25Il2CppGenericClassCompareEEENSt3__29allocatorIS3_EEE8IdentityESA_SD_E10test_emptyERK30dense_hashtable_const_iteratorIS3_S3_S6_SF_SA_SD_E
IGd:__ZN6il2cpp2os5posix15PosixWaitObject4WaitEjb
fQi:__Z115RuntimeInvoker_Void_t1841601450_Rect_t3681755626_Il2CppObject_Int32_t2071877448_Int32_t2071877448_Int32_t2071877448PK10MethodInfoPvPS2_
x9:__ZN15dense_hashtableINSt3__24pairIKPKcPK4RTTIEES3_N11TypeManager23ConstCharPtrHashFunctorEN14dense_hash_mapIS3_S7_SA_NS9_19ConstCharPtrEqualToE13stl_allocatorIS8_L18MemLabelIdentifier6ELi16EEE9SelectKeyESC_SF_E12resize_deltaEjj
I9a:__Z23ConvertIntegerToTypePtrItEbPvR14SafeBinaryRead
Vaj:_AnimatorControllerPlayable_IsParameterControlledByCurveID_m4183631446
Gu:__ZN7mecanim5human29HumanGetGoalOrientationOffsetENS0_4GoalE
ae:_emscripten_glStencilFunc
mFi:__Z101RuntimeInvoker_Void_t1841601450_Il2CppObject_Il2CppObject_Il2CppObject_Il2CppObject_Int32_t2071877448PK10MethodInfoPvPS2_
gfe:_SynchronizedArrayListWrapper_get_Capacity_m2541698837
Jwh:_MonoMethod_MakeGenericMethod_impl_m2063853616
n0d:__Z46il2cpp_codegen_get_marshal_directive_exceptionPKc
gWb:__ZN9ShaderLab20SerializedSubProgram14AddMatrixParamEPKcii15ShaderParamTypei
ge:_glGetActiveUniformBlockName
CD:__ZN26AnimatorControllerPlayable23ValidateParameterStringE17GetSetValueResultRKN4core12basic_stringIcNS1_20StringStorageDefaultIcEEEE
THf:_Guid_AppendByte_m2890893073
rsh:_MethodBuilder_Invoke_m1874904900
Ube:_Char_System_IConvertible_ToType_m3106771703_AdjustorThunk
gtg:_Interval_Intersects_m3480157390_AdjustorThunk
qgc:__Z39Quaternion_CUSTOM_INTERNAL_CALL_InverseRK11QuaternionfRS_
oej:_GCHandle_Alloc_m1063472408
qJ:__ZN4FMOD7Channel20set3DConeOrientationEP11FMOD_VECTOR
rn:FUNCTION_TABLE_iiifii
Xjh:_CryptoConfig_CreateFromName_m391442950
mGd:__ZN6il2cpp2vm12GenericClass11SetupEventsEP11Il2CppClass
MYc:_tt_delta_interpolate
xSc:_tt_cmap12_get_info
Tie:_SortedList__ctor_m3698381356
SBd:__ZN6il2cpp2vm15ReboxIReferenceEP14Il2CppIUnknownP11Il2CppClass
bRf:_StreamWriter_LowLevelWrite_m4205372900
T9c:__ZN6il2cpp6icalls8mscorlib6System7Decimal14decimalCompareEP19il2cpp_decimal_reprS5_
UPd:__ZThn4_N6il2cpp2vm13CachedCCWBaseINS0_13ManagedObjectEE7ReleaseEv
yge:_CollectionBase_System_Collections_IList_get_Item_m2370387510
U1e:_Array_Sort_TisCustomAttributeNamedArgument_t94157543_m3436077809_gshared
a_j:_glCopyTexImage2D__wrapper
lZh:_ResourceRequest__ctor_m3340010930
ZQe:_LayoutElement__ctor_m789941073
z3i:_Camera_FireOnPreCull_m1679634170
Zia:__Z18ClearByDrawingQuad13GfxClearFlagsRK10ColorRGBAffjR17ShaderPassContext
_gj:_DynamicPropertyCollection_FindProperty_m1233265924
Uka:__ZN6prcoreL17RemapGenericFloatI14TexFormatRHalf15TexFormatRFloatEEvPKNS_9InnerInfoE
QUa:__Z16ShouldUseShadowsb
LZ:__ZN15DirectorManager21RebuildStageCallbacksEv
Vla:__ZN19RuntimeSceneManager9LoadSceneERKN4core12basic_stringIcNS0_20StringStorageDefaultIcEEEES6_S6_RK9UnityGUIDiNS_11LoadingModeE
rCa:__ZN7ApiGLES10DrawArraysE16GfxPrimitiveTypejjj
$7i:_Event_PopEvent_m1952528237
ZG:__ZN10SampleClip13LoadBaseSoundEv
MDi:__Z62RuntimeInvoker_Il2CppObject_Int32_t2071877448_SByte_t454417549PK10MethodInfoPvPS2_
cEd:__ZN15dense_hashtableINSt3__24pairIK10KeyWrapperIP12Il2CppObjectEN6il2cpp2gc9CachedCCWEEES5_NS7_5utils11PointerHashIS3_EEN14dense_hash_mapIS5_S9_SD_NS5_14EqualsComparerINS0_8equal_toIS4_EEEENS0_9allocatorISA_EEE9SelectKeyESI_SK_E15insert_noresizeERKSA_
Tsf:_Collection_1_Contains_m643401393_gshared
Yia:__ZN22DeviceMVPMatricesStateC2ER9GfxDevice
J1d:_String__ctor_m372528291
bn:FUNCTION_TABLE_iifii
Vfc:__Z31Input_Get_Custom_PropTouchCountv
cna:__ZNSt3__26__treeIiNS_4lessIiEE13stl_allocatorIiL18MemLabelIdentifier1ELi16EEE7destroyEPNS_11__tree_nodeIiPvEE
oc:invoke_viiifi
m9i:_AnimationClipPlayable_GetSpeed_m668389965
$Tf:_LongComparer_Compare_m3981323622
xhi:_Slider_FindSelectableOnUp_m15474611
Ora:__ZNK11AssetBundle14GetPreloadDataEiR13dynamic_arrayIiLj4EE
j2f:_EncryptedData_get_EncryptedContent_m2732115576
wGi:__Z81RuntimeInvoker_Boolean_t3825574718_SByte_t454417549_Il2CppObject_SByte_t454417549PK10MethodInfoPvPS2_
qf:_JS_Sound_SetPosition
qmj:_Assertion_set_FalseExpression_m1781616372
$qg:_X509SubjectKeyIdentifierExtension_FromHexChars_m2515150420
xhd:__ZL13GetSharedInstPK17Il2CppGenericInst
vxg:__ZL51IReflect_t3412036974_CustomAttributesCacheGeneratorP21CustomAttributesCache
KDe:_StandaloneInputModule_SendSubmitEventToSelectedObject_m3421155293
Q5i:_Component_GetComponentsInChildren_m908027537
u5c:__ZN22BaseUnityConnectClient17SaveSessionValuesEv
Nij:_CallContextRemotingData_Clone_m2226242476
b2:__Z63ThreadAndSerializationSafeCheckSetMonoBehaviourBeingTransferredP13MonoBehaviour
Z_a:__Z24SetupActiveLightsContextR21ActiveLightingContextRK12ActiveLightsRK11CullResultsP14ShadowMapCacheRK10MinMaxAABB
Mic:__Z38Sprite_CUSTOM_INTERNAL_get_textureRectP12Il2CppObjectP5RectTIfE
Ire:_DBNull_System_IConvertible_ToUInt32_m2681284284
oud:__ZNK15dense_hashtableINSt3__24pairIK10KeyWrapperIPK22Il2CppGenericParameterEPK24MonoGenericParameterInfoEES6_N6il2cpp5utils11PointerHashIS4_EEN14dense_hash_mapIS6_SA_SF_NS6_14EqualsComparerINS0_8equal_toIS5_EEEENS0_9allocatorISB_EEE9SelectKeyESK_SM_E3endEv
hjb:__ZN6Camera8TransferI24GenerateTypeTreeTransferEEvRT_
k8h:_EqualityComparer_1__cctor_m416314417_gshared
Ka:invoke_iiiiiiif
Ga:invoke_iiiiiiii
YBb:__ZN24RingBufferMemoryFileData16ConsumeReadBytesEy
TTh:_Mesh_GetUVChannel_m364477864
spg:_X509ChainElementCollection_Contains_m3599995067
k2a:__ZN8Renderer17PendingAddToSceneEv
S1j:b123
R1j:b122
U1j:b125
T1j:b124
W1j:b127
V1j:b126
Y1j:b129
aic:__Z52Register_UnityEngine_RectTransform_INTERNAL_get_rectv
o_:__Z21PostprocessStacktracePKcRN4core12basic_stringIcNS1_20StringStorageDefaultIcEEEE
jca:__ZN19RenderBufferManager13GetTempBufferEii17DepthBufferFormat19RenderTextureFormatj22RenderTextureReadWrite14VRTextureUsagei
lzb:__ZN18StreamedBinaryReadILb0EE21TransferSTLStyleArrayI13dynamic_arrayI16SplashScreenLogoLj4EEEEvRT_17TransferMetaFlags
gUe:_Array_InternalArray__ICollection_Remove_TisX509ChainStatus_t4278378721_m4127982424_gshared
Mdc:__Z47Register_UnityEngine_Camera_get_allCamerasCountv
Jad:___clang_call_terminate
x5c:__ZN22BaseUnityConnectClient20StartEventDispatcherEv
j8b:__ZNSt3__26vectorIj13stl_allocatorIjL18MemLabelIdentifier1ELi16EEE6assignIPKtEENS_9enable_ifIXaasr21__is_forward_iteratorIT_EE5valuesr16is_constructibleIjNS_15iterator_traitsIS9_E9referenceEEE5valueEvE4typeES9_S9_
zs:__ZN7mecanim9animation16EvaluateAvatarIKEPKNS0_14AvatarConstantEPKNS0_11AvatarInputEPNS0_12AvatarOutputEPNS0_12AvatarMemoryEPNS0_15AvatarWorkspaceEb
UCa:__ZL25ProgramUniformMatrix4x3fvPK7ApiGLESjiihPKv
nOi:__Z83RuntimeInvoker_Il2CppObject_RayU26_t3651946800_Single_t2076509932_Int32_t2071877448PK10MethodInfoPvPS2_
DOa:__ZN12InputManager13InputEndFrameEv
yie:_SyncHashtable__ctor_m2029869827
xkd:__ZNSt3__26__treeIP11Il2CppClassNS_4lessIS2_EENS_9allocatorIS2_EEE25__emplace_unique_key_argsIS2_JRKS2_EEENS_4pairINS_15__tree_iteratorIS2_PNS_11__tree_nodeIS2_PvEEiEEbEERKT_DpOT0_
Axd:__ZN6il2cpp2vm6Thread5SetupEP12Il2CppThread
PBf:_ReadOnlyCollection_1_System_Collections_IList_Remove_m2200089035_gshared
gof:_Collection_1_CheckWritable_m2756357359_gshared
$Pj:___munmap
sOe:_InputField_get_characterLimit_m2386380888
O5g:__ZL68ColorBlock_t2652774230_CustomAttributesCacheGenerator_m_PressedColorP21CustomAttributesCache
xne:_Convert_ToInt64_m1722087499
hg:_localtime_r
dNi:__Z74RuntimeInvoker_Vector3_t2243707580_Vector3_t2243707580_Vector3_t2243707580PK10MethodInfoPvPS2_
yMi:__Z80RuntimeInvoker_Il2CppObject_Ray_t2469606224_Single_t2076509932_Int32_t2071877448PK10MethodInfoPvPS2_
jg:_strftime
tca:__ZN7Texture33SetStoredColorSpaceNoDirtyNoApplyE17TextureColorSpace
gY:__ZN12FileAccessorD2Ev
Ttb:__ZN14VertexDataInfoC2Ev
qJd:__ZN6il2cpp2gc16GarbageCollector14CollectALittleEv
yyj:_Vector3_Equals_m2692262876_AdjustorThunk
yoi:_InternalEnumerator_1_get_Current_m2415979394_gshared
aOb:__ZL17Transfer_GUIStyleI18StreamedBinaryReadILb1EELb1EEvRK29SerializationCommandArgumentsR31RuntimeSerializationCommandInfo
xei:_ScrollRect_SetDirtyCaching_m1491302821
Skd:__ZN6il2cpp6icalls8mscorlib6SystemL9IsPrivateEPK12PropertyInfo
Jnh:_CustomAttributeData_GetCustomAttributes_m3258419955
N0:__ZN9shadertag10InitializeEv
dVa:__ZN13BatchRenderer20RenderSingleWithPassER17ShaderPassContextPK18SharedMaterialDataP6ShaderPN9ShaderLab4PassEiPKNS7_10GrabPassesEjib15BatchBreakCause
YD:__Z92Register_UnityEngine_Experimental_Director_AnimationOffsetPlayable_INTERNAL_CALL_SetRotationv
Frb:__ZN15QualitySettings14QualitySetting8TransferI24GenerateTypeTreeTransferEEvRT_
P4d:_DecoderReplacementFallback__ctor_m2344783488
j_h:_Enumerator_System_Collections_IDictionaryEnumerator_get_Key_m467957770_AdjustorThunk
KKe:_GraphicRegistry_UnregisterGraphicForCanvas_m820096873
xZc:__Z28Font_Get_Custom_PropMaterialP12Il2CppObject
aQd:__ZN6il2cpp6icalls8mscorlib6System9Threading16NativeEventCalls19ResetEvent_internalE12Il2CppIntPtr
t3g:__ZL65EventTrigger_t1967201810_CustomAttributesCacheGenerator_delegatesP21CustomAttributesCache
gqf:_Collection_1_Remove_m4136193368_gshared
zAe:_EventTrigger_OnPointerUp_m2791622548
Ggi:_Shadow_set_useGraphicAlpha_m141905402
C6b:__ZN22BlockMemoryCacheWriter14LockCacheBlockEjPPhS1_
keh:_RealProxy_InternalGetTransparentProxy_m3415358600
Suc:__Z22TransferField_NonArrayI8JSONRead27Converter_SimpleNativeClassI8GUIStyleEEvRK23StaticTransferFieldInfoR31RuntimeSerializationCommandInfoRT0_
Pg:_llvm_eh_typeid_for
B4b:__Z13RegisterClassI10GameObjectEvv
Xyg:__ZL53HashValues_t2390200547_CustomAttributesCacheGeneratorP21CustomAttributesCache
cog:_X509BasicConstraintsExtension_get_PathLengthConstraint_m3004531343
iTf:_MissingMemberException__ctor_m4277447068
Uaf:_List_1_Find_m1881447651_gshared
Zxh:_StrongNameKeyPair_System_Runtime_Serialization_ISerializable_GetObjectData_m1693082120
RPb:__Z18Transfer_BlittableI18StreamedBinaryReadILb0EELb1E8Vector4fEvRK29SerializationCommandArgumentsR31RuntimeSerializationCommandInfo
MId:__ZN6il2cpp2vm6Method8GetParamEPK10MethodInfoj
OKf:_Int64_CompareTo_m1953686218
xKf:_Int64_System_IConvertible_ToInt16_m2022633688_AdjustorThunk
y0j:_glBindVertexArray__wrapper
Lkh:_DSA_Create_m3450041777
Oga:__ZN8Material8TransferI14SafeBinaryReadEEvRT_
_6i:_Debug_LogWarningFormat_m79553173
vnb:__ZN12CubemapArray17UploadToGfxDeviceEv
Zei:_ScrollRect_AdjustBounds_m1033723448
fla:__ZN6prcoreL17RemapGenericFloatI15TexFormatRGHalf17TexFormatRGBAHalfEEvPKNS_9InnerInfoE
l8e:_Enumerator_System_Collections_IEnumerator_Reset_m2200349770_gshared
qWf:_OrdinalComparer__ctor_m2952942058
hKi:__Z107RuntimeInvoker_Boolean_t3825574718_Int32_t2071877448_Int64U5BU5DU26_t2476256456_StringU5BU5DU26_t3730240492PK10MethodInfoPvPS2_
Qog:_X509Chain_CheckRevocationOnChain_m2441901351
cjd:__ZN6il2cpp2vm19SocketPollingThread9WritePipeEic
hZd:_SymmetricAlgorithm_CreateDecryptor_m4240570785
uFh:_Type_GetMethod_m3650909507
tH:__ZN11AudioSource4StopEb
COj:_frexp
KHb:__ZN14SafeBinaryRead21TransferSTLStyleArrayI13dynamic_arrayI10Matrix4x4fLj4EEEEvRT_17TransferMetaFlags
Utf:_Collection_1_CheckWritable_m732350052_gshared
Vae:_Byte_System_IConvertible_ToDecimal_m1036493607
nba:__Z25GetSplashScreenBackgroundRK5RectTIfE
w9:__ZN14dense_hash_mapIPKcPK4RTTIN11TypeManager23ConstCharPtrHashFunctorENS5_19ConstCharPtrEqualToE13stl_allocatorINSt3__24pairIKS1_S4_EEL18MemLabelIdentifier6ELi16EEEixERSB_
t8c:__ZN13RuntimeStaticI19UnityConnectServiceLb0EE16StaticInitializeEPv
zvi:_DefaultComparer_Compare_m1247109616_gshared
myh:_ResourceManager__ctor_m498829021
XGa:__ZN18GlslGpuProgramGLESD2Ev
K6a:__ZN13RenderTexture14SetVolumeDepthEi
Vgh:_SerializationCallbacks__ctor_m722356782
wvc:__ZN10Matrix4x4f8TransferI8JSONReadEEvRT_
L3:__ZN14dense_hash_mapIPKcPK4RTTIN11TypeManager23ConstCharPtrHashFunctorENS5_19ConstCharPtrEqualToE13stl_allocatorINSt3__24pairIKS1_S4_EEL18MemLabelIdentifier6ELi16EEE5beginEv
R1:__ZN17PersistentManager18ReadObjectThreadedEi
_xa:__ZN25TransformFeedbackSkinning31CleanupTransformFeedbackShadersEv
qMd:__ZN6il2cpp6icalls8mscorlib6System7Runtime16CompilerServices14RuntimeHelpers15InitializeArrayEP11Il2CppArray12Il2CppIntPtr
Xpi:_InternalEnumerator_1_System_Collections_IEnumerator_get_Current_m2851415307_gshared
nMc:__ZNK20TextRenderingPrivate8FontImpl19GetCharacterAdvanceEjijfPj
qkg:_DefaultUriParser__ctor_m4218024811
hph:_DerivedType_GetField_m3960169619
jse:_Decimal_System_IConvertible_ToInt16_m3159038792_AdjustorThunk
Asb:__ZN10VertexData8TransferI18StreamedBinaryReadILb0EEEEvRT_
hEf:_DateTimeFormatInfo_GetFormat_m3676195179
O2f:_PKCS12_GetExistingParameters_m2413397265
SAj:_Nullable_1_get_Value_m1743067844_gshared
W6a:__ZN14PreloadManager16UpdatePreloadingEv
RCi:__Z148RuntimeInvoker_Int32_t2071877448_Il2CppObject_Int32_t2071877448_Int32_t2071877448_Il2CppObject_Int32_t2071877448_Int32_t2071877448_Int32_t2071877448PK10MethodInfoPvPS2_
ccb:__ZNK21UnityDefaultAllocatorI17LowLevelAllocatorE8ContainsEPKv
Zh:_emscripten_get_main_loop_timing
hNf:_DirectoryInfo__ctor_m3750996792
bFe:_BaseMeshEffect_ModifyMesh_m2134816219
Erb:__ZN24GenerateTypeTreeTransfer21TransferSTLStyleArrayINSt3__26vectorIN15QualitySettings14QualitySettingENS1_9allocatorIS4_EEEEEEvRT_17TransferMetaFlags
_4a:__ZN23ManagedAttributeManager52CallManagedGetParentTypeDisallowingMultipleInclusionE17ScriptingClassPtr
U4e:_Array_InternalArray__get_Item_TisAnimatorClipInfo_t3905751349_m2163447872_gshared
Exb:__ZNSt3__26vectorI9InputAxisNS_9allocatorIS1_EEE6resizeEj
QPd:__ZN6il2cpp2vm13ManagedObject7GetIidsEPjPP10Il2CppGuid
kVa:__ZN13BatchRendererC2ER15RenderLoopStatsRK15RenderNodeQueuebbb
E_d:_SecurityElement_IsValidAttributeValue_m483287146
N4d:_Decoder_set_Fallback_m1780632169
np:getTempRet0
iPi:__Z81RuntimeInvoker_Void_t1841601450_PlayableHandleU26_t3483893774_Vector3_t2243707580PK10MethodInfoPvPS2_
t9i:_AnimationClipPlayable_set_applyFootIK_m1054409049
AFi:__Z114RuntimeInvoker_Void_t1841601450_Il2CppObject_Il2CppObject_Int32_t2071877448_Il2CppObject_Il2CppObject_Il2CppObjectPK10MethodInfoPvPS2_
CNe:_Image_AddQuad_m1603575622
M8f:_PrivateKeyInfo_RemoveLeadingZero_m3396807048
vyd:__ZN6il2cpp6icalls8mscorlib6System9ThreadingL21lookup_cached_cultureEP12Il2CppThreadi
V$a:__ZN18DeferredRenderLoopD2Ev
E4:__ZNK16TypeTreeIterator4NameEv
FX:__ZN15FileSystemEntry3SetEPKc
Dmd:_il2cpp_method_has_attribute
SUd:_MACTripleDES__ctor_m884945242
$I:__ZN20SoundChannelInstance15ParameterBuffer5ApplyEPN4FMOD7ChannelE
bF:__Z117Register_UnityEngine_Experimental_Director_AnimatorControllerPlayable_INTERNAL_CALL_GetAnimatorTransitionInfoInternalv
kMc:__ZN20TextRenderingPrivate19NativeTextGenerator9InsertTabEv
CMh:_Rect_set_y_m4294916608
K5c:__ZN11UnityEngine15PlatformWrapper24GetRuntimePlatformStringEv
Hi:_glIsEnabled
$Db:__Z25scripting_class_get_image17ScriptingClassPtr
Li:_emscripten_glDrawElementsInstanced
Dz:__ZN26AnimatorControllerPlayable27SetupStateMachineBehavioursEv
m7f:_ARC4Managed_Dispose_m4102232694
G7f:_HMAC_Initialize_m3052649104
Jqa:__ZN18JobBatchDispatcherD2Ev
hXb:__ZN9Transform17MainThreadCleanupEv
AOd:_GC_clear_hdr_marks
wXj:_glScissor__wrapper
t1j:_emscripten_glCreateShader__wrapper
PUc:_cff_fd_select_get
qCg:__ZL73CompilationRelaxationsAttribute_t238494011_CustomAttributesCacheGeneratorP21CustomAttributesCache
HYd:_SHA512Managed_processBlock_m3220567420
Fjg:_NameObjectCollectionBase_get_Keys_m446053925
Vi:_emscripten_glGetShaderiv
ENa:__ZZ23InitPlayerLoopCallbacksvEN41EarlyUpdateUpdateAllUnityWebStreamsstruct7ForwardEv
bK:__ZN4FMOD6System10getVersionEPj
INf:_FileLoadException_GetObjectData_m2047020314
VXe:_Array_InternalArray__IndexOf_TisSByte_t454417549_m1427585061_gshared
e_c:__ZN2UI6Canvas23VirtualRedirectTransferER24GenerateTypeTreeTransfer
Eke:_Decimal_u64_m3991988111
xBj:_Predicate_1_BeginInvoke_m2959352225_gshared
F4h:_Dictionary_2_CopyToCheck_m2147716750_gshared
krj:_X509Certificate_Parse_m1764345628
bij:_SynchronizationAttribute_GetClientContextSink_m1264319894
SKc:__ZN13TextRendering4Font13AwakeFromLoadE17AwakeFromLoadMode
U0j:_emscripten_glCullFace__wrapper
vid:__ZN6il2cpp6icalls6System6System3Net7Sockets6Socket4SendE12Il2CppIntPtrP11Il2CppArrayiiNS4_11SocketFlagsEPi
uyb:__ZNSt3__27__sort5IRNS_6__lessINS_4pairIPKN5Unity4TypeE7Hash128EES8_EEPS8_EEjT0_SC_SC_SC_SC_T_
Yie:_Enumerator_Reset_m466659019
wdd:__ZNK15dense_hashtableINSt3__24pairIK10KeyWrapperIPKcEP11Il2CppClassEES5_N6il2cpp5utils11StringUtils12StringHasherIS4_EEN14dense_hash_mapIS5_S8_SE_NS5_14EqualsComparerINSC_21CaseSensitiveComparerEEENS0_9allocatorIS9_EEE9SelectKeyESI_SK_E10test_emptyEj
HNd:_GC_unreachable_finalize_mark_proc
dPd:_maybe_finalize
$ij:_ConstructionCall_GetObjectData_m3974358557
Uhc:__Z43RectTransform_CUSTOM_INTERNAL_get_anchorMaxP12Il2CppObjectP13Vector2fIcall
pre:_DateTimeOffset_get_DateTime_m229084964_AdjustorThunk
Bga:__ZN8Material28UpdateHashesOnPropertyChangeEN9ShaderLab16FastPropertyNameE
Gic:__Z53Register_UnityEngine_SortingLayer_GetLayerValueFromIDv
cge:_CaseInsensitiveComparer_Compare_m1192858479
NFb:__Z18Transfer_BlittableI14SafeBinaryReadLb1E8Vector4fEvRK29SerializationCommandArgumentsR31RuntimeSerializationCommandInfo
WRe:_LayoutRebuilder_Clear_m2390054824
tnh:_Default_SelectMethod_m622251293
hM:__ZN11AudioSource12AddToManagerEv
Qr:__ZN8Animator23VirtualRedirectTransferER19StreamedBinaryWriteILb0EE
Tv:__ZN11UnityEngine9Animation32CreateAnimatorGenericBindingsOptERKNS0_20AnimationSetBindingsER9TransformPKN7mecanim9animation14AvatarConstantEPKNS0_21AvatarBindingConstantEbRNS6_6memory9AllocatorER8Animator
NEd:__ZN6il2cpp2vm5Image13ClassFromNameEPK11Il2CppImagePKcS6_
yTj:dynCall_vdddddd
sUb:__ZN24GenerateTypeTreeTransfer21TransferSTLStyleArrayINSt3__26vectorIN9ShaderLab14SerializedPassENS1_9allocatorIS4_EEEEEEvRT_17TransferMetaFlags
w1:__ZL32MarkLevelGameManagerDependenciesR27GarbageCollectorThreadState
hxa:__ZNK13GfxDeviceGLES26HasActiveRandomWriteTargetEv
nYj:_glGetActiveUniformsiv__wrapper
Dic:__Z43Register_UnityEngine_Material_EnableKeywordv
W2:__ZN13MonoBehaviour19SetupScriptingCacheE17ScriptingClassPtrP10MonoScript
gr:__Z20AnimationEventToMonoRK14AnimationEventR18MonoAnimationEvent
h2g:__ZL74UnityEventBase_t828812576_CustomAttributesCacheGenerator_m_PersistentCallsP21CustomAttributesCache
yAd:__ZN6il2cpp2vm13LivenessState18ShouldProcessValueEP12Il2CppObjectP11Il2CppClass
kFi:__Z45RuntimeInvoker_Il2CppObject_IntPtr_t_IntPtr_tPK10MethodInfoPvPS2_
QTb:__ZNSt3__26vectorIN9ShaderLab14SerializedPassENS_9allocatorIS2_EEE8__appendEj
hTb:__ZNSt3__26vectorIN9ShaderLab20SerializedSubProgram13BufferBindingENS_9allocatorIS3_EEEC2INS_11__wrap_iterIPS3_EEEET_SB_RKS5_PNS_9enable_ifIXaasr21__is_forward_iteratorISB_EE5valuesr16is_constructibleIS3_NS_15iterator_traitsISB_E9referenceEEE5valueEvE4typeE
SAc:__ZN12b2WheelJoint24SolveVelocityConstraintsERK12b2SolverData
_Ci:__Z170RuntimeInvoker_Int32_t2071877448_Il2CppObject_Int32_t2071877448_Int32_t2071877448_Il2CppObject_Int16_t4041245914_Int32_t2071877448_SByte_t454417549_ContextU26_t3131521781PK10MethodInfoPvPS2_
Oob:__ZN9Texture2D23VirtualRedirectTransferER18StreamedBinaryReadILb0EE
rCc:__ZN10Collider2D8TransferI24GenerateTypeTreeTransferEEvRT_
Sue:_Double_System_IConvertible_ToUInt16_m286326038_AdjustorThunk
dfh:_TypeInfo__ctor_m1475908211
xrj:_PKCS12__ctor_m997996062
nib:__ZNSt3__26__treeINS_12__value_typeIN4core12basic_stringIcNS2_20StringStorageDefaultIcEEEEjEENS_19__map_value_compareIS6_S7_NS_4lessIS6_EELb1EEE13stl_allocatorIS7_L18MemLabelIdentifier6ELi16EEE7destroyEPNS_11__tree_nodeIS7_PvEE
C3:__ZN16ScriptingManager27NativeTypeForScriptingClassE17ScriptingClassPtr
Rog:_X509Chain_WrapUp_m1072032285
Gsj:_X509CertificateEnumerator_System_Collections_IEnumerator_MoveNext_m1448966539
RRc:_get_sfnt_table
r5e:_Object_FindObjectOfType_TisIl2CppObject_m2967490724_gshared
Uof:_Collection_1_IsSynchronized_m3261594010_gshared
GPa:_unity_z_tr_stored_block
pWe:_Array_compare_TisIl2CppObject_m1481822507_gshared
NBe:_PointerEventData_set_pressPosition_m2094137883
h1a:__ZL22ScheduleSceneNodesJobsP25ScheduleSceneNodesJobDataj
Jk:_emscripten_set_canvas_size
vhe:_Hashtable__ctor_m741952536
Rwi:_Comparer_1__cctor_m2253684996_gshared
zTb:__ZNSt3__26vectorIN9ShaderLab20SerializedSubProgramENS_9allocatorIS2_EEE8__appendEj
XU:__ZN20DynamicHeapAllocatorI17LowLevelAllocatorE8AllocateEji
I3c:__ZN11UnityEngine9Analytics15UserCustomEvent12ToJsonStringER9JSONWrite
MVa:__ZN20DynamicPropertySheet15SetVectorQueuedERKN9ShaderLab16FastPropertyNameERK8Vector4fN19ShaderPropertySheet8SetFlagsE
o3d:_String_Format_m1263743648
xzf:_ReadOnlyCollection_1_System_Collections_IEnumerable_GetEnumerator_m4248982967_gshared
xs:__ZN7mecanim9animation22EvaluateAvatarRetargetEPKNS0_14AvatarConstantEPKNS0_11AvatarInputEPNS0_12AvatarOutputEPNS0_12AvatarMemoryEPNS0_15AvatarWorkspaceEb
Slb:__ZN14RenderSettings23VirtualRedirectTransferER19StreamedBinaryWriteILb0EE
Yrc:__ZL26Transfer_SimpleNativeClassI9JSONWrite10RectOffsetLb0EEvRK29SerializationCommandArgumentsR31RuntimeSerializationCommandInfo
$Nd:_GC_push_conditional
V3c:__ZN21UnityAnalyticsManager23VirtualRedirectTransferER24GenerateTypeTreeTransfer
JAa:__ZN17GenericDynamicVBO10AllocateVBEjR21DynamicVBOChunkHandle
jcf:_List_1_get_Item_m1547593893_gshared
UMf:_Path_GetPathRoot_m1269357080
JCd:__ZN30dense_hashtable_const_iteratorI10KeyWrapperIP18Il2CppGenericClassES3_N6il2cpp8metadata22Il2CppGenericClassHashEN14dense_hash_setIS3_S6_NS3_14EqualsComparerINS5_25Il2CppGenericClassCompareEEENSt3__29allocatorIS3_EEE8IdentityESA_SD_EppEv
cAe:_EventSystem_SetSelectedGameObject_m2211816110
fl:_glMapBufferRange
Hob:__ZN9Texture2D8TransferI18StreamedBinaryReadILb0EEEEvRT_
Pfc:__Z31Input_CUSTOM_GetMouseButtonDowni
m5b:__ZN13PlayableGraph4PlayEv
wTa:__ZNK9Transform16GetLocalPositionEv
Tra:__ZN13LoadOperation19IntegrateTimeSlicedEi
nrb:__ZNK15QualitySettings26GetTypeInfoVirtualInternalEv
t3f:_X501__cctor_m3795360380
uxa:__ZN13GfxDeviceGLES22DispatchComputeProgramE12ObjectHandleI18ComputeProgram_TagPvE15ComputeBufferIDj
PQh:_GUIStyle_set_contentOffset_m2138084868
Yof:_Collection_1_System_Collections_ICollection_CopyTo_m4193844941_gshared
qne:_Convert_ToInt32_m2297793940
nqa:__Z17TransformAABBSlowRK4AABBRK10Matrix4x4fRS_
Apb:__ZN15SerializeTraitsI13dynamic_arrayI7Hash128Lj8EEE19ResizeSTLStyleArrayERS2_i18MemLabelIdentifier
kvd:__ZN13Il2CppHashMapINSt3__24pairIPK9FieldInfoP11Il2CppClassEEj17ReflectionMapHashIS7_ENS0_8equal_toIS7_EENS0_9allocatorINS1_IK10KeyWrapperIS7_EjEEEEEC2EjRKS9_RKSB_
oSb:__ZN9ShaderLab21SerializedShaderState8TransferI14SafeBinaryReadEEvRT_
HQj:_ftruncate
FXd:_RSAPKCS1SignatureFormatter_SetKey_m2365816458
MVc:_cf2_stack_pushInt
cBh:_CompressedStack__ctor_m276924800
rBe:_ExecuteEvents_get_cancelHandler_m1964324668
Mha:__ZN15SerializeTraitsINSt3__24pairIN4core12basic_stringIcNS2_20StringStorageDefaultIcEEEES6_EEE8TransferI24GenerateTypeTreeTransferEEvRS7_RT_
H_j:b89
G_j:b88
_Zj:b81
ZZj:b80
g_j:b83
f4:__ZN18ResourceImageGroup7CleanupEv
o_j:b85
Eaj:_AnimatorControllerPlayable_SetTrigger_m3144166126
F_j:b87
v_j:b86
Tii:_ToggleGroup_RegisterToggle_m3118973598
l3b:__ZN13ProduceHelperI4MeshLb0EE7ProduceE18MemLabelIdentifier18ObjectCreationMode
K8f:_PrivateKeyInfo_Decode_m1053025782
w2f:_PKCS12_Decrypt_m2457743414
Fmb:__ZN8Playable19SetOutputConnectionEPS_i
Pcd:__ZN15dense_hashtableINSt3__24pairIK10KeyWrapperIPK11Il2CppClassEPKcEES6_N6il2cpp5utils11PointerHashIS3_EEN14dense_hash_mapIS6_S9_SE_NS6_14EqualsComparerINS0_8equal_toIS5_EEEENS0_9allocatorISA_EEE9SelectKeyESJ_SL_EC2ERKSO_j
Vl:_glDeleteShader
Iwe:_Exception_GetType_m3898489832
ala:__ZN6prcoreL17RemapGenericFloatI15TexFormatRGHalf16TexFormatRGFloatEEvPKNS_9InnerInfoE
Zlf:_Stack_1_Peek_m1548778538_gshared
zNa:__ZZ23InitPlayerLoopCallbacksvEN38EarlyUpdateExecuteMainThreadJobsstruct7ForwardEv
Dgi:_Shadow_set_effectColor_m3110056844
_Vh:_Physics2D_GetColliderFromInstanceID_m95920619
xbc:__Z27scripting_add_internal_callPKcPKv
q$e:_Array_InternalArray__Insert_TisUriScheme_t1876590943_m2728325409_gshared
Wud:__ZN13Il2CppHashMapINSt3__24pairIPK9EventInfoP11Il2CppClassEEj17ReflectionMapHashIS7_ENS0_8equal_toIS7_EENS0_9allocatorINS1_IK10KeyWrapperIS7_EjEEEEEC2EjRKS9_RKSB_
nDd:__GLOBAL__sub_I_GarbageCollector_cpp
Tsj:_X509Store_CheckStore_m1027496478
CVi:__Z87RuntimeInvoker_Int32_t2071877448_UIVertex_t1204258818_UIVertex_t1204258818_Il2CppObjectPK10MethodInfoPvPS2_
tPi:__Z93RuntimeInvoker_TextGenerationError_t780770201_Il2CppObject_TextGenerationSettings_t2543476768PK10MethodInfoPvPS2_
Vu:__ZN26AnimatorControllerPlayable18SetLayerAutoWeightEv
Kb:invoke_vffff
hRj:__ZNSt3__212basic_stringIcNS_11char_traitsIcEENS_9allocatorIcEEEC2ERKS5_jjRKS4_
_2d:_String_Contains_m4017059963
dvi:_DefaultComparer_Compare_m1606207039_gshared
o0c:__ZN2UI14CanvasRenderer12SyncMaterialENS0_8SyncFlagE
ZRd:__ZN6il2cpp2vm9Parameter30GetDefaultParameterValueObjectEPK10MethodInfoPK13ParameterInfoPb
c0e:_Array_InternalArray__set_Item_TisLabelData_t3712112744_m2253365137_gshared
mUh:_MonoBehaviour_Invoke_m666563676
iRf:_StringReader__ctor_m643998729
llg:_IPv6Address_TryParse_m2220524278
dJi:__Z75RuntimeInvoker_DateTime_t693205669_DateTime_t693205669_TimeSpan_t3430258949PK10MethodInfoPvPS2_
IRc:_UNITY_tt_face_done_kern
Rgj:_Context_get_DefaultContext_m2211922324
Hoc:__Z59GUIStyle_CUSTOM_Internal_GetNumCharactersThatFitWithinWidth13Il2Cpp_IntPtrP12Il2CppStringf
$8f:_RSAManaged_GetPaddedValue_m2972141669
mfi:_ScrollRect_OnDrag_m1424848249
Daa:__Z19scripting_gc_enablev
jnj:_AnchorInfo__ctor_m617409099
i2c:__Z55Register_UnityEngine_CanvasRenderer_DisableRectClippingv
ktg:_Interval_CompareTo_m2909556284_AdjustorThunk
Ptb:__ZN14SafeBinaryRead21TransferSTLStyleArrayI13dynamic_arrayI11ColorRGBA32Lj4EEEEvRT_17TransferMetaFlags
bsg:_Interpreter_GetLastDefined_m2450713313
Amj:_Parser_ParseAssertionType_m3316669790
egi:_Selectable_get_isPointerDown_m774209881
bXb:__ZNSt3__27__sort4IRNS_6__lessIN4core12basic_stringIcNS2_20StringStorageDefaultIcEEEES6_EEPS6_EEjT0_SA_SA_SA_T_
cUj:dynCall_viiiifii
ytd:__ZN6il2cpp2gc19AppendOnlyGCHashMapINSt3__24pairIPK11Il2CppImageP11Il2CppClassEEP22Il2CppReflectionModule17ReflectionMapHashIS9_ENS2_8equal_toIS9_EEEC2Ev
O1:__Z20GetPersistentManagerv
ZYc:_UNITY_TT_Set_Var_Design
eaa:__ZN21SystemInfoStringCache16StaticInitializeEPv
wag:_TlsStream__ctor_m4117943603
Vhi:_Text_FontTextureChanged_m4236993972
AJd:__ZN6il2cpp2gc16GarbageCollector23MakeDescriptorForObjectEPji
Oxh:_ParameterModifier_t1820634920_marshal_pinvoke
cDb:__ZNK13MonoBehaviour7GetNameEv
Jyd:__ZN6il2cpp6icalls8mscorlib6System10Reflection8Assembly13get_code_baseEP24Il2CppReflectionAssemblyb
VCd:__ZN15dense_hashtableI10KeyWrapperIP18Il2CppGenericClassES3_N6il2cpp8metadata22Il2CppGenericClassHashEN14dense_hash_setIS3_S6_NS3_14EqualsComparerINS5_25Il2CppGenericClassCompareEEENSt3__29allocatorIS3_EEE8IdentityESA_SD_E6insertERKS3_
hlb:__Z20RenderMultipleMeshesRK15RenderNodeQueueRK18RenderMultipleData17ShaderChannelMask
tod:__ZN6il2cpp2vm4Type19GetGenericParameterEPK10Il2CppType
K1c:__Z51Register_UnityEngine_CanvasGroup_get_blocksRaycastsv
Iti:_InternalEnumerator_1_get_Current_m2826780083_gshared
O1j:b119
tvc:__ZN8JSONRead21TransferSTLStyleArrayI13dynamic_arrayI11ColorRGBA32Lj4EEEEvRT_18MemLabelIdentifier17TransferMetaFlags
Ad:_glBeginQuery
hmh:_Assembly_GetCustomAttributes_m95309865
NLh:_GUILayoutUtility_INTERNAL_CALL_Internal_GetWindowRect_m3236664463
hJc:__ZN10Effector2D25CheckEffectorColliderMaskEP10Collider2DS1_
_Qa:__ZN6Camera12RenderStereoENS_10RenderFlagE8CullFlagPNS_24PerformEyeRenderFunctionE
OW:__ZN20LocalFileSystemPosix10ToAbsoluteEPKc
ULe:_GridLayoutGroup__ctor_m1099847132
XCi:__Z136RuntimeInvoker_Boolean_t3825574718_Il2CppObject_Il2CppObject_Int32_t2071877448_Int32_t2071877448_SByte_t454417549_ContextU26_t3131521781PK10MethodInfoPvPS2_
wLd:__ZN6il2cpp2vm13ComObjectBase16DisconnectObjectEj
DQa:_UNITY_png_default_flush
iee:_ArrayListWrapper_set_Capacity_m2792463350
xPj:_getcwd
_yh:_StringBuilder_Append_m1128243247
xBc:__ZN16b2CapsuleContact6CreateEP9b2FixtureiS1_iP16b2BlockAllocator
Nbb:__ZN25ThreadsafeLinearAllocatorD2Ev
G0e:_Array_InternalArray__set_Item_TisVector4_t2243707581_m3878172417_gshared
aba:__Z21SendMessageToEveryoneRK17MessageIdentifier11MessageData
s7:__ZN21BillboardBatchManager16StaticInitializeEPv
QOh:_Object_get_name_m2079638459
M1j:b117
uZ:__ZN12_GLOBAL__N_138ArchiveRedirectFileSystemStaticDestroyEPv
zwe:_EventHandler_Invoke_m1137722757
Jfd:__ZNK15dense_hashtableINSt3__24pairIK10KeyWrapperI13dynamic_arrayIPK10Il2CppTypeLj4EEEPFvvEEES8_N6il2cpp8metadata19Il2CppSignatureHashEN14dense_hash_mapIS8_SB_SF_NS8_14EqualsComparerINSE_22Il2CppSignatureCompareEEENS0_9allocatorISC_EEE9SelectKeyESJ_SL_E5beginEv
FUf:_MonoType_IsSubclassOf_m2211166238
uqf:_Collection_1_System_Collections_ICollection_CopyTo_m2859266050_gshared
Qu:__ZN7mecanim14ValueArrayCopyEPKNS_10ValueArrayEPS0_PKNS_14ValueArrayMaskE
gee:_ArrayListWrapper_get_Count_m2207944952
wqg:_X509ChainElementCollection_System_Collections_IEnumerable_GetEnumerator_m2559704689
Mng:_PublicKey_get_Key_m126090744
eNc:__ZNSt3__23mapIN20TextRenderingPrivate7FontRefEP11FT_FaceRec_NS_4lessIS2_EENS_9allocatorINS_4pairIKS2_S4_EEEEEixERS9_
tJa:__ZN17ArchiveFileSystem10AddStorageEP20ArchiveStorageReader
v5i:_Color_Equals_m661618137
yzc:__ZNK12b2MotorJoint16GetReactionForceEf
VEa:__ZN12_GLOBAL__N_112UploadFormatE13TextureFormat
k7h:_EqualityComparer_1_System_Collections_IEqualityComparer_GetHashCode_m1203798961_gshared
bbd:__ZN6il2cpp2vm5Class15GetEnumBaseTypeEP11Il2CppClass
$nb:__ZNK9Texture2D16GetNpotTexelSizeEv
Bai:_Mask_get_rectTransform_m3304369086
qwj:_TooltipAttribute__ctor_m2640804852
ncj:_AnimatorControllerPlayable_INTERNAL_CALL_PlayInFixedTimeInternal_m847261734
OAa:__ZN9GfxDevice22GetDefaultVertexBufferE26GfxDefaultVertexBufferTypej
Wof:_Collection_1__ctor_m3903788797_gshared
Uyf:_ReadOnlyCollection_1_System_Collections_ICollection_CopyTo_m1129689124_gshared
PPj:___fseeko_unlocked
nTi:__Z162RuntimeInvoker_Void_t1841601450_Il2CppObject_Int32_t2071877448_SByte_t454417549_SByte_t454417549_SingleU26_t4173844468_SingleU26_t4173844468_SingleU26_t4173844468PK10MethodInfoPvPS2_
i_j:_glGetActiveUniform__wrapper
HPj:_sscanf
gub:__ZN14SafeBinaryRead21TransferSTLStyleArrayINSt3__26vectorI17BlendShapeChannelNS1_9allocatorIS3_EEEEEEvRT_17TransferMetaFlags
aja:__Z17BeginSplashScreenv
nyj:_Vector3__ctor_m2638739322_AdjustorThunk
SSe:_Array_InternalArray__ICollection_Contains_TisInt16_t4041245914_m698926112_gshared
RGh:_UInt32_Parse_m2400360707
AA:__ZN7mecanim9animation18CreateAvatarMemoryEPKNS0_14AvatarConstantERNS_6memory9AllocatorE
Rje:_Stack_Pop_m3788808882
zxi:_Enumerator_VerifyCurrent_m4246196125_AdjustorThunk
Qqe:_DateTime_op_Equality_m1867073872
Pt:__ZN7mecanim8skeleton16SkeletonPoseCopyIN4math4trsXENS2_7affineXEEEvPKNS0_13SkeletonPoseTIT_EEPNS5_IT0_EE
uAa:__ZN18GfxFramebufferGLES18GetFramebufferNameERK20GfxRenderTargetSetup
DSj:_saveSetjmp
SAd:__ZN6il2cpp6icalls8mscorlib6System2IO6MonoIO11GetFileTypeE12Il2CppIntPtrPi
hnc:__Z30Event_Get_Custom_PropCharacterP12Il2CppObject
UZ:__ZN13PlayableGraph27SchedulePlayableDestructionERK9HPlayable
qXj:_glGetFramebufferAttachmentParameteriv__wrapper
FGb:__Z22scripting_array_length17ScriptingArrayPtr
A_d:_SecurityElement_GetAttribute_m4288291176
kFj:_IndexedSet_1_get_Count_m2839545138_gshared
Ppa:__ZN14SafeBinaryRead20TransferTypelessDataEjPvi
nKh:_RenderPipelineManager_get_currentPipeline_m679160301
tCg:__ZL66StringFreezingAttribute_t2691375565_CustomAttributesCacheGeneratorP21CustomAttributesCache
Wqc:__ZN9rapidjson13GenericReaderINS_4UTF8IcEES2_13JSONAllocatorE10ParseFalseILj1ENS_25GenericInsituStringStreamIS2_EENS_15GenericDocumentIS2_S3_S3_EEEEvRT0_RT1_
lNi:__Z69RuntimeInvoker_Single_t2076509932_Int32_t2071877448_Int32_t2071877448PK10MethodInfoPvPS2_
i0:__Z19GetActiveColorSpacev
y7h:_EqualityComparer_1__cctor_m1672307556_gshared
hdh:_SoapTypeAttribute_get_IsInteropXmlElement_m2941294827
gxb:__ZN14SpriteRenderer18UpdateCachedSpriteEv
V8e:_Enumerator_System_Collections_IEnumerator_get_Current_m3542273247_gshared
yce:_Char_System_IConvertible_ToUInt32_m1557991717_AdjustorThunk
J3d:_Encoding_get_UTF8Unmarked_m628720656
YEf:_NumberFormatter_RoundBits_m1545255255
Q0:__Z6StrCmpPKcS0_
xWb:__Z21CheckGpuProgramUsable20ShaderGpuProgramType
cnh:_Binder__cctor_m3736115807
cJd:__ZN6il2cpp2os9Directory20GetFileSystemEntriesERKNSt3__212basic_stringIcNS2_11char_traitsIcEENS2_9allocatorIcEEEESA_iiPi
Bad:__ZN30dense_hashtable_const_iteratorINSt3__24pairIK10KeyWrapperIPK22Il2CppGenericParameterEP11Il2CppClassEES6_N6il2cpp5utils11PointerHashIS4_EEN14dense_hash_mapIS6_S9_SE_NS6_14EqualsComparerINS0_8equal_toIS5_EEEENS0_9allocatorISA_EEE9SelectKeyESJ_SL_EppEv
P4h:_Dictionary_2_OnDeserialization_m2160537783_gshared
bMc:__ZN20TextRenderingPrivate19NativeTextGenerator5SetupEv
jzb:__ZN12AspectRatios8TransferI18StreamedBinaryReadILb0EEEEvRT_
M4b:__ZN10GameObject14CopyPropertiesERS_
kpc:__Z44Register_UnityEngine_GUIStyle_get_fixedWidthv
_Wd:_RSACryptoServiceProvider_Common_m2581564813
jPf:_MemoryStream_CheckIfClosedThrowDisposed_m2253054610
yki:_ArrayReadOnlyList_1_GetEnumerator_m634288642_gshared
r7a:__ZNK13ScreenManager12IsFullScreenEv
iQj:_rand
TXj:_emscripten_glFramebufferRenderbuffer__wrapper
nbj:_AnimatorControllerPlayable_INTERNAL_CALL_GetNextAnimatorStateInfoInternal_m1550960895
uHb:__ZN14SafeBinaryRead21TransferSTLStyleArrayINSt3__26vectorI17AnimationCurveTplIfE13stl_allocatorIS4_L18MemLabelIdentifier1ELi16EEEEEEvRT_17TransferMetaFlags
Scc:__Z60Register_UnityEngine_AsyncOperation_set_allowSceneActivationv
pgh:_ObjectManager_RegisterObject_m872610295
R0a:__Z22PrepareOptimizedPlanesPK5PlaneiPKN4math7_float4E
WXh:_RectOffset_t3387826427_marshal_pinvoke
FKe:_Graphic_SetVerticesDirty_m1607014370
q7:__ZN17UniqueIDGenerator15CreatePureIndexEv
D7b:__ZN14dense_hash_mapI12TriangleEdgei16TriangleEdgeHashNSt3__28equal_toIS0_EENS2_9allocatorINS2_4pairIKS0_iEEEEEixERS7_
AB:__ZN11UnityEngine9Animation28GenericAnimationBindingCache15DidReloadDomainEv
H4f:_AppDomain_InternalGetProcessGuid_m1278588156
XPe:_InputField_MoveRight_m386206014
XTe:_Array_InternalArray__ICollection_Remove_TisIl2CppObject_m2425110446_gshared
kMf:_BinaryReader_ReadBoolean_m2892291883
qad:__ZN15dense_hashtableINSt3__24pairIK10KeyWrapperIPK22Il2CppGenericParameterEP11Il2CppClassEES6_N6il2cpp5utils11PointerHashIS4_EEN14dense_hash_mapIS6_S9_SE_NS6_14EqualsComparerINS0_8equal_toIS5_EEEENS0_9allocatorISA_EEE9SelectKeyESJ_SL_E14squash_deletedEv
Wzb:__ZNSt3__26__treeINS_12__value_typeIN4core12basic_stringIcNS2_20StringStorageDefaultIcEEEE4PPtrI6ObjectEEENS_19__map_value_compareIS6_SA_NS_4lessIS6_EELb1EEE13stl_allocatorISA_L18MemLabelIdentifier51ELi16EEE7destroyEPNS_11__tree_nodeISA_PvEE
Izc:__ZNK12b2MouseJoint17GetReactionTorqueEf
nlc:__Z14GUIClipTextureP9Texture2DPhiiii
ueg:_TlsServerCertificate_validateCertificates_m1988583701
x0:__ZNK9Transform18TransformDirectionERK8Vector3f
yMh:_GUILayoutEntry_SetHorizontal_m1828181654
W0j:_emscripten_glClearStencil__wrapper
Dgd:__ZN15dense_hashtableINSt3__24pairIK10KeyWrapperIPK11Il2CppClassEPKcEES6_N6il2cpp5utils11PointerHashIS3_EEN14dense_hash_mapIS6_S9_SE_NS6_14EqualsComparerINS0_8equal_toIS5_EEEENS0_9allocatorISA_EEE9SelectKeyESJ_SL_E12resize_deltaEjj
URj:__ZNK10__cxxabiv120__si_class_type_info27has_unambiguous_public_baseEPNS_19__dynamic_cast_infoEPvi
EVj:_glTexSubImage3D__wrapper
yrg:_FactoryCache_Add_m2602974721
UOa:__Z21WriteImageAsyncThreadPv
u6:__ZL16GetInterfaceImpl18UnityInterfaceGUID
ubd:__ZN6il2cpp2vmL17SetupFieldOffsetsENS0_15FieldLayoutKindEP11Il2CppClassjRKNSt3__26vectorIjNS4_9allocatorIjEEEE
Iaf:_List_1_System_Collections_IList_get_Item_m936612973_gshared
lLd:__ZN6il2cpp6icalls8mscorlib6System15MonoCustomAttrs27GetCustomAttributesInternalEP12Il2CppObjectP20Il2CppReflectionTypeb
fZc:_UNITY_TT_Set_MM_Blend
zgh:_ObjectReader_ReadAssembly_m869834280
xkb:__ZN22RenderingCommandBufferD0Ev
Guf:_Collection_1_IsSynchronized_m971497175_gshared
bBe:_ExecuteEvents_Execute_m1617536317
Shi:_Text_get_cachedTextGeneratorForLayout_m1357670532
wI:__ZL31InitializeAudioScriptingClassesv
rTa:__Z14SortGUIByDepthP10GUIElementS0_
jJf:_NumberFormatter_NumberToString_m126384393
wZj:_emscripten_glVertexAttrib4fv__wrapper
A6:__ZN13RuntimeStaticI13dynamic_arrayIPK31TransferFunctionScriptingTraitsLj4EELb0EE16StaticInitializeEPv
ujj:_LogicalCallContext__ctor_m3173272863
Saj:_AnimatorControllerPlayable_IsParameterControlledByCurveString_m4036987523
rTf:_MonoCustomAttrs__cctor_m2608447972
YIf:_Int32_FindSign_m3803672540
Kxi:_Enumerator_System_Collections_IEnumerator_Reset_m70453843_AdjustorThunk
xX:__ZNK20LocalFileSystemPosix21GetAvailableDiskSpaceEPKcRy
haa:__ZNSt3__26__treeIiNS_4lessIiEENS_9allocatorIiEEE7destroyEPNS_11__tree_nodeIiPvEE
mag:_CipherSuite_InitializeCipher_m229247572
fog:_X509Certificate2__ctor_m1095336775
mua:__ZNK9GfxDevice14GetWorldMatrixEv
dxh:_MonoProperty_GetGetMethod_m1100580870
bWa:__Z19scripting_array_new17ScriptingClassPtrjj
lN:__ZN11SoundHandle13CreateChannelEb
mpb:__ZN14SafeBinaryRead21TransferSTLStyleArrayI13dynamic_arrayI12LightmapDataLj4EEEEvRT_17TransferMetaFlags
$4f:_ArgumentException__ctor_m3312963299
GTb:__ZNSt3__26vectorIN9ShaderLab20SerializedSubProgram16TextureParameterENS_9allocatorIS3_EEE6assignIPS3_EENS_9enable_ifIXaasr21__is_forward_iteratorIT_EE5valuesr16is_constructibleIS3_NS_15iterator_traitsISA_E9referenceEEE5valueEvE4typeESA_SA_
LAj:_U3CCreateWhereIteratorU3Ec__Iterator1D_1_MoveNext_m3533253043_gshared
eud:__ZN15dense_hashtableINSt3__24pairIK10KeyWrapperIPK22Il2CppGenericParameterEPK24MonoGenericParameterInfoEES6_N6il2cpp5utils11PointerHashIS4_EEN14dense_hash_mapIS6_SA_SF_NS6_14EqualsComparerINS0_8equal_toIS5_EEEENS0_9allocatorISB_EEE9SelectKeyESK_SM_E15set_deleted_keyERKSB_
brg:_X509SubjectKeyIdentifierExtension__ctor_m3887138480
b7e:_Enumerator_System_Collections_IEnumerator_get_Current_m2853089017_AdjustorThunk
TAc:__ZN12b2WheelJoint24SolvePositionConstraintsERK12b2SolverData
Ng:_emscripten_exit_fullscreen
VNe:_InputField_get_mesh_m3276583786
rej:_GCHandle_Free_m1639542352_AdjustorThunk
IHd:__ZN6il2cpp6icalls8mscorlib6System6String19InternalAllocateStrEi
Rvc:__Z29Transfer_Blittable_ArrayFieldI8JSONRead11QuaternionfEvRT_R9ArrayInfoRK23StaticTransferFieldInfo
vEg:__ZL65SoapParameterAttribute_t2780084514_CustomAttributesCacheGeneratorP21CustomAttributesCache
Hdc:__Z45Register_UnityEngine_Camera_get_targetDisplayv
T2b:__ZNK24RendererAnimationBinding15GenerateBindingERKN4core12basic_stringIcNS0_20StringStorageDefaultIcEEEEbRN11UnityEngine9Animation14GenericBindingE
jkb:__Z15GetFlareManagerv
Gkj:_Enumerator_System_Collections_IEnumerator_get_Current_m1429268283
Bwf:_ReadOnlyCollection_1_System_Collections_Generic_ICollectionU3CTU3E_Clear_m388357963_gshared
vT:__ZN19CloudServiceHandler10QueueEventEPN11UnityEngine15CloudWebService14CloudEventInfoE
vSj:___cxa_is_pointer_type
p3d:_String_Concat_m56707527
vu:__ZN7mecanim9animation16EvaluateAvatarDXEPKNS0_14AvatarConstantEPKNS0_11AvatarInputEPNS0_12AvatarMemoryEPNS0_15AvatarWorkspaceEPNS0_12AvatarOutputE
_Da:__ZN4gles20DestroyRenderSurfaceEP7ApiGLESP17RenderSurfaceGLES
a7e:_Enumerator_System_Collections_IEnumerator_get_Current_m2853089017_gshared
Qjc:__Z34Transform_CUSTOM_SetAsFirstSiblingP12Il2CppObject
zia:__ZN17PersistentManager40GlobalToLocalSerializedFileIndexInternalERK26SerializedObjectIdentifier
hR:__ZN11UnityEngine15CloudWebService17SessionEventQueue14ParseEventDataERKN4core12basic_stringIcNS2_20StringStorageDefaultIcEEEE
Nye:_BaseEventData_get_selectedObject_m3551206992
NXf:_SimpleCollator_CompareOrdinal_m2176988387
mxe:_CCGregorianCalendar_GetYear_m1289900195
wPi:__Z441RuntimeInvoker_Boolean_t3825574718_Il2CppObject_Il2CppObject_Il2CppObject_ColorU26_t3402129837_Int32_t2071877448_Single_t2076509932_Single_t2076509932_Int32_t2071877448_SByte_t454417549_SByte_t454417549_Int32_t2071877448_Int32_t2071877448_Int32_t2071877448_Int32_t2071877448_SByte_t454417549_Int32_t2071877448_Single_t2076509932_Single_t2076509932_Single_t2076509932_Single_t2076509932_SByte_t454417549_SByte_t454417549_UInt32U26_t2197289955PK10MethodInfoPvPS2_
hJf:_Int16_ToString_m2592645088
Sya:__ZN13TranslateGLES4InitERK12GraphicsCaps16GfxDeviceLevelGL
_hh:_SerializationInfoEnumerator_Reset_m2206466680
_Na:__ZZ23InitPlayerLoopCallbacksvEN33PostLateUpdateInputEndFramestruct7ForwardEv
D4c:__Z32CustomEventData_CUSTOM_AddUInt32P12Il2CppObjectP12Il2CppStringj
qHj:_GenericEqualityComparer_1_Equals_m1934771410_gshared
gCb:__ZN24RingBufferMemoryFileDataD0Ev
AAb:__ZNSt3__26vectorIN30RuntimeInitializeOnLoadManager15ClassMethodInfoE13stl_allocatorIS2_L18MemLabelIdentifier12ELi16EEE8__appendEj
F0b:__ZN13ProduceHelperI10TagManagerLb0EE7ProduceE18MemLabelIdentifier18ObjectCreationMode
CKi:__Z84RuntimeInvoker_Il2CppObject_Il2CppObject_Il2CppObject_Il2CppObject_Int32_t2071877448PK10MethodInfoPvPS2_
sMd:__ZN6il2cpp8metadataL7CompareEPK10Il2CppTypeS3_
WKh:_GameObject_set_layer_m2712461877
T8f:_RSAManaged__ctor_m1370411656
LDd:__ZNSt3__218uninitialized_fillIPNS_4pairIK10KeyWrapperIP12Il2CppObjectEN6il2cpp2gc9CachedCCWEEESA_EEvT_SC_RKT0_
knb:__ZN12CubemapArray23VirtualRedirectTransferER17RemapPPtrTransfer
Gac:__ZL27GetComponentsImplementationILb0ELi0EEbR10GameObjectbRK17CompareParametersRK39GetComponentsImplementation_ReturnValue
smg:_WebHeaderCollection_GetObjectData_m3940120977
LDb:__ZN9Scripting36IsSystemCollectionsGenericDictionaryE17ScriptingClassPtr
Nci:_Raycast3DCallback_EndInvoke_m3234280377
Gnj:_BalancingGroup__ctor_m2474435406
xHe:_ColorTweenCallback__ctor_m3619686788
J4:__ZL16ReadTypeTreeImplILb0EEbR8TypeTreeRK16TypeTreeIteratorRPKhS6_i
ebe:_Byte_System_IConvertible_ToInt32_m1032609763_AdjustorThunk
AWb:__ZN9ShaderLab7ProgramD0Ev
kmb:__ZNK22BuiltinResourceManager21GetResourceInstanceIDEPKN5Unity4TypeERKN4core12basic_stringIcNS4_20StringStorageDefaultIcEEEE
Cwa:__ZN9GfxDevice15BeginFrameStatsEv
Sec:__Z42Register_UnityEngine_RectOffset_set_bottomv
see:_ArrayListWrapper_IndexOf_m3574835167
mWa:__ZN28LightProbeProxyVolumeContext8CopyFromERKS_
A2a:__ZN23TransformChangeDispatch32QueueTransformChangeIfHasChangedER18TransformHierarchy
e$a:__ZN18DeferredRenderLoop15RenderFinalPassEP13RenderTextureS1_
$Da:__ZN7ApiGLES18DeleteRenderbufferERj
VCa:__ZL23ProgramUniformMatrix4fvPK7ApiGLESjiihPKv
oTb:__ZN9ShaderLab20SerializedSubProgram15MatrixParameter8TransferI14SafeBinaryReadEEvRT_
Iac:__ZL27GetComponentsImplementationILb0ELi1EEbR10GameObjectbRK17CompareParametersRK39GetComponentsImplementation_ReturnValue
hYc:_Round_Down_To_Grid
WAh:_UTF8Decoder__ctor_m1460357288
sea:__ZN13RenderTexture7ReleaseEv
qvb:__ZN10MeshFilter23VirtualRedirectTransferER14SafeBinaryRead
a$a:__ZN19ShaderPropertySheet26SetTextureWithExplicitSizeEN9ShaderLab16FastPropertyNameE9TextureIDiiff
Kke:_Convert_ToByte_m1201588964
Avb:__ZN12MeshRenderer17MainThreadCleanupEv
Gcc:__Z36AsyncOperation_Get_Custom_PropIsDoneP12Il2CppObject
KGa:__ZN22CreateGpuProgramOutput12CreateParamsEv
Iya:__ZNK14GfxContextGLES13GetDefaultFBOEv
fUe:_Array_InternalArray__ICollection_Remove_TisSByte_t454417549_m2474211570_gshared
jba:__ZN14GraphicsHelper5ClearE13GfxClearFlagsRK10ColorRGBAffjR17ShaderPassContext
Yld:_il2cpp_class_is_enum
Gxd:__ZN6il2cpp2vm6Thread49CheckCurrentThreadForInterruptAndThrowIfNecessaryEv
n5e:_GameObject_AddComponent_TisIl2CppObject_m3813873105_gshared
xga:__ZNSt3__23mapIN9ShaderLab16FastPropertyNameEN18UnityPropertySheet11UnityTexEnvENS_4lessIS2_EENS_9allocatorINS_4pairIKS2_S4_EEEEEixERS9_
xta:__ZNK13TranslateGLES25GetTextureTargetDimensionEj
WOe:_InputField_SetToCustom_m250029371
J$e:_Array_InternalArray__set_Item_TisByte_t3683104436_m1694926640_gshared
tlj:_PatternCompiler_EmitInfo_m597931026
i6f:_ModulusRing_Multiply_m3113924743
hjc:__Z47Texture2D_CUSTOM_INTERNAL_CALL_GetPixelBilinearP12Il2CppObjectffR10ColorRGBAf
Mi:_emscripten_glVertexAttrib4f
fwf:_ReadOnlyCollection_1_System_Collections_IEnumerable_GetEnumerator_m531171980_gshared
_Vb:__ZNSt3__26vectorIN20GpuProgramParameters14ConstantBufferENS_9allocatorIS2_EEE8__appendEj
n2e:_Array_Sort_TisUILineInfo_t3621277874_m3105833015_gshared
TYb:__Z15tessGetElementsP14TESStesselator
Oaf:_List_1_AddEnumerable_m2489692396_gshared
vzj:_WaitForSecondsRealtime__ctor_m1734539010
zza:__ZN4gles10SetTextureER15DeviceStateGLESjjj19BuiltinSamplerState
Hwa:__ZN9GfxDevice18SetGlobalDepthBiasEff
Rjd:__ZN6il2cpp6icalls8mscorlib6System8MonoType12get_AssemblyEP20Il2CppReflectionType
Zi:_emscripten_glGetPointerv
hu:__ZN8Animator22ApplyBuiltinRootMotionEv
DBd:__ZN30dense_hashtable_const_iteratorINSt3__24pairIK10KeyWrapperIP14Il2CppIUnknownEjEES5_N6il2cpp5utils11PointerHashIS3_EEN14dense_hash_mapIS5_jSB_NS5_14EqualsComparerINS0_8equal_toIS4_EEEENS0_9allocatorIS7_EEE9SelectKeyESG_SI_EppEv
Kqb:__ZN8Renderer23VirtualRedirectTransferER14SafeBinaryRead
Iph:_DerivedType_get_UnderlyingSystemType_m3904230233
HEi:__Z135RuntimeInvoker_IntPtr_t_Il2CppObject_Int32_t2071877448_Int32_t2071877448_Int32_t2071877448_Int32_t2071877448_MonoIOErrorU26_t1029615899PK10MethodInfoPvPS2_
XSa:__Z27ConvertSubMeshesToTrianglesR13dynamic_arrayI7SubMeshLj4EERS_ItLj2EE
mmc:__ZN5IMGUI14GUIWindowStateD2Ev
Fpg:_X509Certificate2Collection__ctor_m819526826
ZH:__ZN12AudioManager5ResetEv
v7f:_KeyBuilder_Key_m3814433741
a5f:_ArgumentException__ctor_m158205422
PWe:_Array_compare_TisVector3_t2243707580_m3709184876_gshared
yMe:_HorizontalLayoutGroup_SetLayoutHorizontal_m3237355818
_t:__ZN7mecanim5human14RetargetToTDoFEPKNS0_5HumanEPNS0_9HumanPoseEPNS_8skeleton13SkeletonPoseTIN4math4trsXEEESB_
LJd:__ZN6il2cpp6icalls8mscorlib6System11Environment20GetWindowsFolderPathEi
w9g:__ZL60AspectRatioFitter_t3114550109_CustomAttributesCacheGeneratorP21CustomAttributesCache
zy:__ZN7mecanim5human18HumanPoseBlendNodeERNS0_9HumanPoseEPS1_f
ZTc:_UNITY_FT_RoundFix
hWb:__ZN9ShaderLab20SerializedSubProgram15AddTextureParamEPKcii16TextureDimension
Pr:__ZNK8Animator26GetTypeInfoVirtualInternalEv
upj:_Uri_get_Parser_m2250631932
T7i:_Event_GetHashCode_m2214628668
yKe:_Graphic_set_color_m646149893
Rga:__ZN14SafeBinaryRead19TransferSTLStyleMapINSt3__23mapIN4core12basic_stringIcNS3_20StringStorageDefaultIcEEEES7_NS1_4lessIS7_EE13stl_allocatorINS1_4pairIKS7_S7_EEL18MemLabelIdentifier1ELi16EEEEEEvRT_17TransferMetaFlags
X$c:__ZN2UI6Canvas27UpdateEventIndexesRecursiveERi
wx:__ZN7mecanim9animation18EvaluateRootMotionERKNS0_18ClipMuscleConstantERKNS0_15ClipMuscleInputEPKfS8_RNS0_12MotionOutputEb
nR:__ZN11UnityEngine15CloudWebService16SessionContainer21PrepareDataErrorEventERN4core12basic_stringIcNS2_20StringStorageDefaultIcEEEE
_Pc:_UNITY_FT_Outline_New
DMb:__Z19TransferField_ArrayI19StreamedBinaryWriteILb0EE27Converter_SimpleNativeClassI8GUIStyleEEvRK23StaticTransferFieldInfoR31RuntimeSerializationCommandInfoRT0_
h9g:__ZL70SpriteState_t1353336012_CustomAttributesCacheGenerator_m_PressedSpriteP21CustomAttributesCache
Peh:_RemotingServices_RegisterInternalChannels_m1827304423
mPh:_GUIStyle_get_onNormal_m1675201777
kr:__ZL32CleanupAnimationScriptingClassesv
rid:__ZNSt3__213__vector_baseIN6il2cpp2os19SocketHandleWrapperENS_9allocatorIS3_EEED2Ev
jRh:_GUIStyleState_Cleanup_m705006206
ic:invoke_viiffi
A7a:__ZN13sorted_vectorINSt3__24pairIN4core12basic_stringIcNS2_20StringStorageDefaultIcEEEEPK17MessageIdentifierEEN10vector_mapIS6_S9_NS0_4lessIS6_EENS0_9allocatorISA_EEE13value_compareESF_E10insert_oneERKSA_
dCh:_Thread_GetCachedCurrentUICulture_m5590127
hnb:__ZNK12CubemapArray20GetRuntimeMemorySizeEv
Eyj:_Vector3_Dot_m3161182818
dUb:__Z14resize_trimmedINSt3__26vectorIN9ShaderLab18SerializedPropertyENS0_9allocatorIS3_EEEEEvRT_j
rkf:_List_1_CheckMatch_m4018158235_gshared
oYf:_Context_t2636657155_marshal_pinvoke_back
lgd:__ZN6il2cpp2vm13MetadataCache38GetMethodInfoFromMethodDefinitionIndexEi
Tae:_Byte_System_IConvertible_ToDateTime_m1583041031
rJj:__ZL24UnresolvedVirtualCall_68P12Il2CppObjectS0_iS0_S0_S0_S0_S0_S0_PK10MethodInfo
tsb:__ZN10VertexData8TransferI24GenerateTypeTreeTransferEEvRT_
iKd:__ZN13Il2CppHashMapIPK19Il2CppGenericMethodP10MethodInfoN6il2cpp8metadata23Il2CppGenericMethodHashENS6_26Il2CppGenericMethodCompareENSt3__29allocatorINS9_4pairIK10KeyWrapperIS2_ES4_EEEEEC2EjRKS7_RKS8_
h8h:_EqualityComparer_1_System_Collections_IEqualityComparer_Equals_m1089835085_gshared
r0a:__ZL10CullLightsRK22SceneCullingParametersR11CullResults
EJe:_Dropdown__cctor_m264401557
U7d:_Array_IndexOf_m2819632474
Jwi:_Comparer_1__cctor_m3996541505_gshared
cz:__ZN7mecanim12statemachine20GetBlendTreeConstantERKNS0_13StateConstantEi
M5b:__Z40GetTemporaryCachePathApplicationSpecificv
Uua:__ZN9GfxDevice16EndAsyncJobFrameEv
UQc:_UNITY_tt_face_load_hhea
cCb:__ZN24RingBufferMemoryFileData11SetGrowableEb
A8i:_PersistentCall__ctor_m2079279187
ike:_Convert_ToBase64String_m1936815455
Sk:___syscall3
Vk:___syscall6
Xk:___syscall4
$se:_Decimal_ToString_m759431975
nFe:_ColorBlock_get_fadeDuration_m987725262
_Dd:__ZN6il2cpp2vm3RCW14QueryInterfaceILb1EEEP14Il2CppIUnknownP15Il2CppComObjectRK10Il2CppGuid
Ojh:_CryptographicException__ctor_m2415891459
VFc:__ZNSt3__26__sortIR24RayHitsByDepthComparitorP12RaycastHit2DEEvT0_S5_T_
Uwc:__ZN27PerformanceReportingManager23VirtualRedirectTransferER14SafeBinaryRead
Tac:__ZN9Scripting25BroadcastScriptingMessageER10GameObjectPKc18ScriptingObjectPtr
kl:_emscripten_glShaderBinary
W6d:_Array_InternalArray__RemoveAt_m1126483634
E3i:_Camera_INTERNAL_CALL_RaycastTry_m1030092423
mX:__ZNK20LocalFileSystemPosix6ExistsERK13FileEntryData
AWh:_RangeInt_get_end_m913869897
wjg:_DictionaryNodeEnumerator_get_DictionaryNode_m3521889822
Nu:__ZN7mecanim5human19MaskHasLeftFootGoalERKNS_6bitsetILj70EEE
bUh:_Mesh_get_colors32_m4153271224
nHc:__ZNK17Physics2DSettings26GetTypeInfoVirtualInternalEv
p3c:__Z58Register_UnityEngine_Canvas_GetETC1SupportedCanvasMaterialv
WVh:_Physics2D_INTERNAL_CALL_GetRayIntersectionAll_m161475998
GOb:__ZN17AnimationCurveTplIfE8TransferI18StreamedBinaryReadILb1EEEEvRT_
jre:_DateTimeOffset_GetHashCode_m3312197462_AdjustorThunk
Y6c:__ZN18UnityConnectClientD2Ev
pld:_il2cpp_set_data_dir
ppj:_Uri_get_IsUnc_m2111738174
Luj:_DataUtility_INTERNAL_CALL_GetPadding_m1621366113
h6c:__ZN11UnityEngine15PlatformWrapper30GetGraphicsDriverLibraryStringEv
Uxj:_Vector2_ToString_m775491729
D8f:_EncryptedPrivateKeyInfo_Decode_m1706190306
IPb:__Z18Transfer_BlittableI18StreamedBinaryReadILb0EELb0E4AABBEvRK29SerializationCommandArgumentsR31RuntimeSerializationCommandInfo
qoe:_Convert_ToUInt16_m1665900934
V2a:__Z14DrawGUITextureRK5RectTIfEP7Texture11ColorRGBA32P8Materiali
Zhi:_Text_get_supportRichText_m3291105891
GYh:_RectTransform_GetParentSize_m1571597933
Ys:__ZN9BlobWrite8TransferI22OffsetPtrArrayTransferIKN4math7_float4EEEEvRT_PKc17TransferMetaFlags
$Qe:_LayoutElement_set_ignoreLayout_m1530090081
xxc:__ZNK11b2EdgeShape7RayCastEP15b2RayCastOutputRK14b2RayCastInputRK11b2Transformi
Dkj:_MatchCollection_GetEnumerator_m3516985966
ntc:__ZN9JSONWrite8TransferI4AABBEEvRT_PKc17TransferMetaFlags
dAh:_UTF7Encoding__ctor_m2365939916
BKa:__ZN25MultiBlocksMemoryFileData9SetLengthEy
_M:__Z30GetAudioSpatializerDefinitionsR13dynamic_arrayIP29AudioEffectInternalDefinitionLj4EE
uvj:_TextGenerationSettings_Equals_m3944651893_AdjustorThunk
Sai:_MatEntry__ctor_m3650167335
gSi:__Z143RuntimeInvoker_Void_t1841601450_Il2CppObject_Vector2_t2243707579_Vector2_t2243707579_Color32_t874517518_Vector2_t2243707579_Vector2_t2243707579PK10MethodInfoPvPS2_
XBc:__ZN10Collider2D13AwakeFromLoadE17AwakeFromLoadMode
GAb:__ZNSt3__26vectorIN30RuntimeInitializeOnLoadManager9ClassInfoE13stl_allocatorIS2_L18MemLabelIdentifier12ELi16EEE8__appendEj
Rnb:__ZNK9Texture2D20GetRuntimeMemorySizeEv
$Fh:_TypeInitializationException__ctor_m2993591639
HJd:__ZN6il2cpp2gc16GarbageCollector16InvokeFinalizersEv
uIf:_Int16_System_IConvertible_ToInt64_m733340257
RMc:_UNITY_FT_Outline_Transform
bjc:__Z60Register_UnityEngine_Sprites_DataUtility_Internal_GetMinSizev
Ibd:__ZN6il2cpp2vm5Class10GetMethodsEP11Il2CppClassPPv
eYa:__Z30AddDefaultStreamsToMeshBuffersR9GfxDeviceR11MeshBuffersRK16DrawBuffersRange17ShaderChannelMaskS6_
i$d:_Hash_GetObjectData_m315532943
bza:__ZN7ApiGLES17DeleteFramebufferERN2gl6HandleILNS0_10ObjectTypeE9EEES3_
PFa:__ZN15UniformTFMethod13MapBoneBufferEj
Qbg:_RecordProtocol_SendAlert_m2816808523
Z_c:__ZN2UI14CanvasRendererD2Ev
Ijj:_MethodCall_get_LogicalCallContext_m3769562079
eyd:__ZN6il2cpp6icalls8mscorlib6System5Array8SetValueEP11Il2CppArrayP12Il2CppObjectS5_
vRf:_SynchronizedReader_Read_m1399666181
Fvh:_MonoEvent_get_Name_m2796714646
naa:__Z9SetupArgviPPKc
jCe:_PointerEventData_set_worldNormal_m2025727441
Xcg:_Context_get_SentConnectionEnd_m3114190867
lnb:__ZN12CubemapArray23VirtualRedirectTransferER24GenerateTypeTreeTransfer
l5:__ZN12FileAccessor4OpenER15FileSystemEntry14FilePermission16FileAutoBehavior
Fxf:_ReadOnlyCollection_1__ctor_m2364452928_gshared
bJd:__ZN6il2cpp2os9Directory6CreateERKNSt3__212basic_stringIcNS2_11char_traitsIcEENS2_9allocatorIcEEEEPi
z2a:__ZN23TransformChangeDispatch32QueueTransformChangeIfHasChangedERK15TransformAccess
OBe:_PointerEventData_set_clickTime_m3931922487
QEf:_NumberFormatter_AppendNonNegativeNumber_m629862866
Dia:__ZNSt3__26vectorINS_4pairIN9ShaderLab16FastPropertyNameEN18UnityPropertySheet11UnityTexEnvEEENS_9allocatorIS6_EEE21__push_back_slow_pathIKS6_EEvRT_
odj:_ResourceInfo__ctor_m2401359321_AdjustorThunk
ohe:_Hashtable__ctor_m392789568
OBh:_Mutex_CreateMutex_internal_m2352956576
eAh:_UTF7Encoding__cctor_m4192443836
ooc:__Z31GUIStyle_CUSTOM_SetFontInternalP12Il2CppObjectS0_
B:tempValue
yIf:_Int16_System_IConvertible_ToSingle_m3277935657
J_:__Z29scripting_class_from_fullnamePKcS0_S0_
Lci:_Raycast3DCallback_Invoke_m2271859924
Bz:__ZN26AnimatorControllerPlayable18DeallocateBindingsEv
vN:__ZN11AudioSource19CreateOpenALRolloffEfff
Igd:__ZN15dense_hashtableINSt3__24pairIK10KeyWrapperIPKcEP11Il2CppClassEES5_N6il2cpp5utils11StringUtils12StringHasherIS4_EEN14dense_hash_mapIS5_S8_SE_NS5_14EqualsComparerINSC_21CaseSensitiveComparerEEENS0_9allocatorIS9_EEE9SelectKeyESI_SK_E12resize_deltaEjj
HRc:_UNITY_FT_Stream_ReadAt
fpa:__ZN9Texture3D34UpdateFileTextureUploadInstructionEP28FileTextureUploadInstructionj
OPh:_GUIStyle_get_lineHeight_m2132859383
PVi:__Z102RuntimeInvoker_Int32_t2071877448_Il2CppObject_UIVertex_t1204258818_Int32_t2071877448_Int32_t2071877448PK10MethodInfoPvPS2_
W8i:_UnityEvent_FindMethod_Impl_m3303953986
eGh:_UInt16_System_IConvertible_ToBoolean_m887616848
ZO:__ZN11AudioModule22CreateAudioClipFromWWWEP10IWWWStreamPKcbbi
Qyh:_StringBuilder_set_Length_m3039225444
Esf:_Collection_1_System_Collections_IList_Contains_m3870109702_gshared
qTe:_Array_InternalArray__ICollection_Contains_TisRaycastResult_t21186376_m3188614988_gshared
$oe:_CultureAwareComparer_GetHashCode_m3681260951
W0c:__Z13RegisterClassIN2UI11CanvasGroupEEvv
vf:_emscripten_glClear
Uci:_Selectable__ctor_m1440593935
UOd:_GC_initialize_offsets
k5b:__ZNK8Playable6HandleEv
y3:__ZN14MessageHandler28MessageIDToMessageIdentifierEi
Pkg:_HttpRequestCreator_Create_m3607509610
VQd:__ZN6il2cpp2vm10WaitHandle19NewManualResetEventEb
Yyf:_ReadOnlyCollection_1_System_Collections_IList_Contains_m3707723158_gshared
bKh:_Version_GetHashCode_m880841176
Q$i:_CustomEventData_Add_m4160204358
cE:__Z51Register_UnityEngine_Animator_get_hasBoundPlayablesv
aBj:_Nullable_1_ToString_m1238126148_AdjustorThunk
Md:emscriptenWebGLGetUniform
Ao:FUNCTION_TABLE_iiiiiiiiiii
U1a:__ZL10CleanUpJobP20CullingGroupsJobData
Dce:_Char_CompareTo_m3044885427_AdjustorThunk
xNf:_FileStream_GetSecureFileName_m508045384
nri:_InternalEnumerator_1_System_Collections_IEnumerator_get_Current_m2035754659_AdjustorThunk
pvb:__ZN10MeshFilter23VirtualRedirectTransferER24GenerateTypeTreeTransfer
O2a:__ZN13RenderManager15BatchModeUpdateEv
qtb:__ZN14SafeBinaryRead21TransferSTLStyleArrayI13dynamic_arrayI8Vector2fLj4EEEEvRT_17TransferMetaFlags
yia:__ZN17PersistentManager51InstanceIDToLocalSerializedObjectIdentifierInternalEiR31LocalSerializedObjectIdentifier
$Dc:__ZN10ClipperLib7Clipper15SetWindingCountERNS_5TEdgeE
LWc:_UNITY_FT_Create_Class_cff_services
pd:_glVertexAttribIPointer
Blh:_HMAC_set_HashName_m457235014
z8b:__ZNK6Sprite10GetPaddingE20SpriteRenderDataMode
BSe:_Array_InternalArray__ICollection_Contains_TisTableRange_t2011406615_m605506746_gshared
o2h:_Dictionary_2_Add_m1296007576_gshared
_ne:_Decimal_op_Explicit_m729046406
Yjh:_CryptoConfig_CreateFromName_m2169102076
YKe:_Graphic_OnEnable_m2900261811
$jh:_CryptographicUnexpectedOperationException__ctor_m3552441227
zbj:_AnimatorControllerPlayable_GetAnimatorClipInfoCountInternal_m826336390
oee:_ArrayListWrapper_Clear_m321161741
$Pe:_InputField_LineDownCharacterPosition_m2690468785
GRc:_UNITY_ft_glyphslot_alloc_bitmap
r2e:_Array_Sort_TisVector2_t2243707579_TisVector2_t2243707579_m2582252549_gshared
eIh:_UInt64_System_IConvertible_ToDouble_m2828923873
iEi:__Z45RuntimeInvoker_Il2CppObject_Int16_t4041245914PK10MethodInfoPvPS2_
L$b:__ZZN2UI13RectTransform15InitializeClassEvEN31FunctorImpl_62kTransformChanged4CallEPviR11MessageData
qgf:_List_1_System_Collections_IList_set_Item_m1129584681_gshared
aTc:_ft_raster1_render
eic:__Z57Register_UnityEngine_RectTransform_INTERNAL_set_anchorMaxv
kbf:_List_1_set_Capacity_m491101164_gshared
cRj:__ZNKSt3__221__basic_string_commonILb1EE20__throw_length_errorEv
mzh:_StringBuilder_Insert_m1733097906
EKi:__Z88RuntimeInvoker_Void_t1841601450_Il2CppObject_Int32_t2071877448_Il2CppObject_Il2CppObjectPK10MethodInfoPvPS2_
Ehg:_SslStreamBase_get_HashStrength_m480059173
uEa:__ZN18GfxFramebufferGLES13ReadbackImageER14ImageReferenceiiiiii
M0h:_ValueCollection_System_Collections_Generic_ICollectionU3CTValueU3E_Clear_m3271993638_gshared
Vje:_Enumerator_MoveNext_m1419609883
mJ:__ZN4FMOD7Channel19setReverbPropertiesEPK29FMOD_REVERB_CHANNELPROPERTIES
Z2:__ZN13MonoBehaviour22GetScriptFullClassNameEv
Zkg:_ServicePointManager_FindServicePoint_m3137356168
$yh:_StringBuilder_Append_m3541816491
Eoa:__ZN20SphericalHarmonicsL211AddWeightedERKS_f
BCe:_PointerInputModule_GetPointerData_m1695674453
yJb:__Z19TransferField_ArrayI17RemapPPtrTransfer27Converter_SimpleNativeClassI8GUIStyleEEvRK23StaticTransferFieldInfoR31RuntimeSerializationCommandInfoRT0_
Woe:_Convert_ToUInt64_m345450801
dBj:_Predicate_1_BeginInvoke_m2559992383_gshared
LXe:_Array_InternalArray__IndexOf_TisIl2CppObject_m2440219229_gshared
yqc:__ZN9JSONWrite8TransferI10ColorRGBAfEEvRT_PKc17TransferMetaFlags
s3:__Z25scripting_method_get_name18ScriptingMethodPtr
nic:__Z35Register_UnityEngine_Resources_Loadv
hIb:__Z19TransferField_ArrayI14SafeBinaryRead16Converter_StringEvRK23StaticTransferFieldInfoR31RuntimeSerializationCommandInfoRT0_
xQj:_rename
WOd:_GC_exit_check
sVf:_NotSupportedException__ctor_m3232764727
nkg:_TypeConverterAttribute_Equals_m2330345916
ZMf:_MonoIO_CreateDirectory_m379525469
Ps:__ZN9BlobWrite8TransferI22OffsetPtrArrayTransferI9OffsetPtrIN7mecanim12statemachine18StateMachineMemoryEEEEEvRT_PKc17TransferMetaFlags
bPc:_UNITY_ft_smooth_renderer_class_pic_free
ajf:_List_1_System_Collections_IList_Remove_m3763718607_gshared
mf:_emscripten_glStencilOpSeparate
l2d:_String_Concat_m2000667605
s4i:_CanvasRenderer_GetColor_m3395389094
rId:__ZN6il2cpp2os10ThreadImpl12QueueUserAPCEPFvPvES2_
P6c:__ZN22BaseUnityConnectClient10QueueEventERN11UnityEngine15CloudWebService17CloudServiceEventEPKcjb
UTh:_Mesh_DefaultDimensionForChannel_m153181993
BYc:_UNITY_FT_Hypot
h9d:_BitConverter_ToInt64_m1329623425
r0b:__ZN8RendererC2E12RendererType18MemLabelIdentifier18ObjectCreationMode
Sld:_il2cpp_class_is_abstract
Ff:_emscripten_glGetError
$J:__Z14FMOD_FILE_SeekPvjS_
cjj:_MethodCall_get_Properties_m1893707917
y_h:_ShimEnumerator_get_Entry_m2387156530_gshared
J4c:__Z56Register_UnityEngine_Analytics_CustomEventData_AddStringv
w3a:__ZNK13RenderTexture32CalculateNeedsInvertedProjectionEv
hbb:__ZN10systeminfo18GetOperatingSystemEv
Nf:emscriptenWebGLGet
RXh:_Rect_GetHashCode_m559954498_AdjustorThunk
r5:__Z19CanReplaceComponentRN5Unity9ComponentEPKNS_4TypeEPN4core12basic_stringIcNS5_20StringStorageDefaultIcEEEE
Y1b:__ZN12CubemapArray11InitTextureEiii13TextureFormatb
hwj:_Texture_INTERNAL_get_texelSize_m3180609662
qac:__Z17GetSceneBuildInfoRKN4core12basic_stringIcNS_20StringStorageDefaultIcEEEEiR14SceneBuildInfo
gUh:_Mesh_SetUVs_m841280343
pog:_X509Certificate2_get_SignatureAlgorithm_m3069898012
WE:__Z105Register_UnityEngine_Experimental_Director_AnimatorControllerPlayable_INTERNAL_CALL_GetLayerCountInternalv
EKf:_Int64_System_IConvertible_ToSingle_m1678482180
WGi:__Z54RuntimeInvoker_Il2CppObject_IntPtr_t_Int32_t2071877448PK10MethodInfoPvPS2_
xQh:_GUIStyle_INTERNAL_CALL_Internal_CalcSizeWithConstraints_m1203344891
xt:__ZN7mecanim5human13HumanFixTwistEPKNS0_5HumanEPNS_8skeleton13SkeletonPoseTIN4math4trsXEEES9_iiRKf
OYa:__ZL24AssignProjectorQueuesJobP30AssignProjectorQueuesJobHeader
vDh:_TimeSpan_get_Hours_m3804628138
fKe:_FontData_set_alignByGeometry_m2819509290
eWb:__ZN9ShaderLab20SerializedSubProgram14SetConstBufferEPKci
knd:__ZN6il2cpp2os4File5CloseEPNS0_10FileHandleEPi
cfd:__ZNSt3__27__sort5IRN6il2cpp5utils11collections13ArrayValueMapIPK10Il2CppType17Il2CppInteropData26InteropDataToTypeConverterNS1_8metadata14Il2CppTypeLessENSA_26Il2CppTypeEqualityComparerEE12SortComparerEPS8_EEjT0_SH_SH_SH_SH_T_
hAj:_Check_Source_m3385315029
cDf:_Comparison_1_Invoke_m345024424_gshared
aVc:_cf2_getStdVW
eAf:_ReadOnlyCollection_1_System_Collections_IList_Insert_m3936197025_gshared
IV:__Z40DebugStringToFilePostprocessedStacktraceRK21DebugStringToFileData
Zuc:__Z29Transfer_Blittable_ArrayFieldI8JSONReadjEvRT_R9ArrayInfoRK23StaticTransferFieldInfo
wVh:_Object_GetInstanceID_m1920497914
aPd:_GC_check_finalizer_nested
Pqi:_InternalEnumerator_1_get_Current_m314017974_AdjustorThunk
ycj:_AnimatorControllerPlayable_Play_m1337154648
sg:__setLetterbox
FOf:_MemoryStream__ctor_m1043059966
Rvj:_TextGenerator_Populate_Internal_m1817393161
jch:__ZN21InterfaceFuncInvoker3IP12Il2CppObjectP6Type_t28StreamingContext_t1417235061PS1_E6InvokeEjP11Il2CppClassS1_S3_S4_S5_
kub:__ZNSt3__26vectorI17BlendShapeChannelNS_9allocatorIS1_EEE6assignINS_11__wrap_iterIPS1_EEEENS_9enable_ifIXaasr21__is_forward_iteratorIT_EE5valuesr16is_constructibleIS1_NS_15iterator_traitsISA_E9referenceEEE5valueEvE4typeESA_SA_
iRe:_LayoutElement_set_preferredWidth_m3072758716
_mg:_AsnEncodedData_ToString_m724151831
d3a:__ZN11TimeManager11GetRealtimeEv
G$f:_KeyPairPersistence_get_Filename_m152060602
tOd:_GC_print_block_list
mK:__ZN29AudioEffectInternalDefinitionC2EP26UnityAudioEffectDefinitionb
rvh:_MonoMethodInfo_GetDeclaringType_m4186531677
jdh:_SoapTypeAttribute_SetReflectionObject_m1566293812
wHj:_Enumerator_System_Collections_IEnumerator_Reset_m2573763156_AdjustorThunk
Yeh:_RemotingServices_CreateClientProxy_m1631035355
KIh:_UInt64_ToString_m2892887310
X1d:_String_System_IConvertible_ToType_m512800076
pKd:__ZN15dense_hashtableINSt3__24pairIK10KeyWrapperIPK19Il2CppGenericMethodEP10MethodInfoEES6_N6il2cpp8metadata23Il2CppGenericMethodHashEN14dense_hash_mapIS6_S9_SD_NS6_14EqualsComparerINSC_26Il2CppGenericMethodCompareEEENS0_9allocatorISA_EEE9SelectKeyESH_SJ_EC2ERKSM_j
FBc:__ZN24b2ChainAndCapsuleContact6CreateEP9b2FixtureiS1_iP16b2BlockAllocator
$Ja:__Z37ReadDirectoryInfo_UnityWebAndUnityRawR12FileAccessorRKN20ArchiveStorageHeader6HeaderERNS1_13DirectoryInfoE
L0:__ZNSt3__26__treeINS_12__value_typeIPKciEENS_19__map_value_compareIS3_S4_15compare_tstringIS3_ELb1EEENS_9allocatorIS4_EEE7destroyEPNS_11__tree_nodeIS4_PvEE
U4h:_Dictionary_2_ToTValue_m1381983709_gshared
jVf:_MulticastDelegate_KPM_m1592985119
pvf:_Collection_1_ConvertItem_m3941916604_gshared
NVa:__ZN20DynamicPropertySheet14SetValueQueuedEN9ShaderLab16FastPropertyNameEN19ShaderPropertySheet12PropertyTypeEjNS2_8SetFlagsE
I$c:__ZN2UI6Canvas26MarkAllNestedCanvasesDirtyEv
RBd:__ZN6il2cpp2vm12ReboxIfBoxedEP14Il2CppIUnknownP11Il2CppClass
Zgf:_List_1__ctor_m2766376432_gshared
U7a:__ZN25PathNamePersistentManagerD2Ev
Q1:__ZN17PersistentManager48IntegrateObjectAndUnlockIntegrationMutexInternalEi
rp:__ZN6Object12SetHideFlagsENS_9HideFlagsE
OGc:__ZN9b2Fixture11SynchronizeEP12b2BroadPhaseRK11b2TransformS4_
UXj:_emscripten_glGetFramebufferAttachmentParameteriv__wrapper
YQa:__ZN13RendererScene15InitializeUmbraEv
h1i:_AnimatorTransitionInfo_IsName_m2561957738_AdjustorThunk
ooa:__Z28CalculateGlobalMatrixInverse23TransformAccessReadOnly
ssc:__ZN4PPtrI6ObjectE8TransferI9JSONWriteEEvRT_
wCe:_PointerEventData_ToString_m1218584363
mAh:_UTF7Encoding_GetCharCount_m2589913583
bJi:__Z91RuntimeInvoker_DateTime_t693205669_Il2CppObject_Il2CppObject_Il2CppObject_Int32_t2071877448PK10MethodInfoPvPS2_
pQa:_UNITY_png_write_sCAL_s
wPf:_MemoryStream_CalculateNewCapacity_m3533542025
tdd:__ZNK15dense_hashtableINSt3__24pairIK10KeyWrapperIPKcEP11Il2CppClassEES5_N6il2cpp5utils11StringUtils12StringHasherIS4_EEN14dense_hash_mapIS5_S8_SE_NS5_14EqualsComparerINSC_21CaseSensitiveComparerEEENS0_9allocatorIS9_EEE9SelectKeyESI_SK_E5beginEv
WDh:_TimeSpan_Equals_m4102942751_AdjustorThunk
L0h:_ValueCollection_System_Collections_Generic_ICollectionU3CTValueU3E_Add_m1903672223_gshared
zG:__ZN4FMOD6SoundI7releaseEv
bwb:__ZN14SpriteRenderer13AwakeFromLoadE17AwakeFromLoadMode
PKa:__ZN10MemoryFile9SetLengthEy
WGh:_UInt16_ToString_m2038947049_AdjustorThunk
I6h:_DefaultComparer_Equals_m3143385420_gshared
spb:__ZN14SafeBinaryRead21TransferSTLStyleArrayI13dynamic_arrayI7Hash128Lj8EEEEvRT_17TransferMetaFlags
_Db:__Z28scripting_class_is_interface17ScriptingClassPtr
Ih:_glTexStorage2D
TVb:__ZNK9ShaderLab10SubProgram14EnsureCompiledEv
RNd:_GC_push_marked
ZAa:__ZN18AsyncUploadManager22WaitForActiveAsyncReadEv
Sie:_SortedList_InitTable_m460350503
k3:__Z18BuildScriptClassId17ScriptingClassPtr
Hni:_InternalEnumerator_1_get_Current_m4279678504_AdjustorThunk
Gq:__ZNK16LevelGameManager7GetNameEv
A2b:__ZN8Renderer28HandleParentHierarchyChangesEPK23TransformAccessReadOnlyj
PX:__ZL31DeleteLastPathNameComponentImplRKN4core12basic_stringIcNS_20StringStorageDefaultIcEEEEPKc
i_b:__Z13RegisterClassI18DelayedCallManagerEvv
$6c:__ZN18UnityConnectClient15GetCloudServiceEv
MJb:__Z18Transfer_BlittableI24GenerateTypeTreeTransferLb0EiEvRK29SerializationCommandArgumentsR31RuntimeSerializationCommandInfo
jBc:__ZN15b2CircleContact6CreateEP9b2FixtureiS1_iP16b2BlockAllocator
WDb:__ZL28SerializationCommandGroupForRK31TransferFunctionScriptingTraits17ScriptingClassPtr17ScriptingFieldPtrRK20CoreScriptingClasses
aib:__ZN10TagManager32RegisterDefaultTagsAndLayerMasksEv
afb:__ZN14CachingManager12ReadInfoFileERKN4core12basic_stringIcNS0_20StringStorageDefaultIcEEEEPlPNSt3__26vectorIS4_NS8_9allocatorIS4_EEEE
R4c:__Z56Register_UnityEngine_Analytics_CustomEventData_AddUInt32v
Mde:_ArrayList_InsertRange_m1478230997
Rya:__ZN4gles8InitCapsEP7ApiGLESP12GraphicsCapsR16GfxDeviceLevelGL
mja:__ZN6prcore14BlitImageFloatERK14ImageReferenceRS0_NS0_8BlitModeE
sTh:_Matrix4x4_Equals_m1321236479_AdjustorThunk
pi:_glEnable
Ugb:__ZNK13Lz4Compressor29CalculateCompressedBufferSizeEj
CTa:__ZNK25CameraStackRenderingState21GetImageEffectTextureEb
tih:_RuntimeMethodHandle__ctor_m2437574937_AdjustorThunk
vGh:_UInt16_System_IConvertible_ToInt64_m2835280558_AdjustorThunk
ROg:__ZL53g_UnityEngine_Assembly_CustomAttributesCacheGeneratorP21CustomAttributesCache
NBj:_Predicate_1_BeginInvoke_m3926587117_gshared
Pzb:__ZNSt3__26vectorI4PPtrI6ObjectE13stl_allocatorIS3_L18MemLabelIdentifier51ELi16EEE6assignINS_11__wrap_iterIPS3_EEEENS_9enable_ifIXaasr21__is_forward_iteratorIT_EE5valuesr16is_constructibleIS3_NS_15iterator_traitsISD_E9referenceEEE5valueEvE4typeESD_SD_
def:_List_1_get_Item_m1231764300_gshared
lIe:_DefaultControls_CreateToggle_m1568873127
E4h:_Dictionary_2_InitArrays_m2270022740_gshared
J5c:__ZN11UnityEngine7Connect15DeviceInfoEvent16CollectExtraInfoEv
$Ii:__Z115RuntimeInvoker_Boolean_t3825574718_Il2CppObject_Int32_t2071877448_Il2CppObject_SByte_t454417549_Int32U26_t455636984PK10MethodInfoPvPS2_
zzh:_UnicodeEncoding_GetChars_m3765282346
sLf:_IntPtr__ctor_m4104029105
$ri:_InternalEnumerator_1_System_Collections_IEnumerator_get_Current_m771161214_AdjustorThunk
hUf:_MonoType_get_attributes_m1493788675
YQd:__ZN6il2cpp6icalls8mscorlib6System10Reflection9FieldInfo25internal_from_handle_typeE12Il2CppIntPtrS5_
Tme:_Convert_ToDouble_m4236754739
xJe:_Dropdown_CreateItem_m2702141380
dzg:__ZL48Stack_t1043988394_CustomAttributesCacheGeneratorP21CustomAttributesCache
Eo:FUNCTION_TABLE_viifi
Fo:FUNCTION_TABLE_viiff
Cvh:_MonoEvent_GetAddMethod_m4289563120
lxg:__ZL37Type_t_CustomAttributesCacheGeneratorP21CustomAttributesCache
QYc:_UNITY_tt_face_free_hdmx
rnd:__ZN6il2cpp2vm14TypeNameParser5ParseEb
zci:_ReflectionMethodsCache__ctor_m1835220
c9c:__ZN23UnityPurchasingSettingsC2Ev
fve:_Double_ToString_m1864290157
pAi:__Z63RuntimeInvoker_Il2CppObject_Int16_t4041245914_Int32_t2071877448PK10MethodInfoPvPS2_
vqi:_InternalEnumerator_1_get_Current_m4154059426_AdjustorThunk
xpa:__ZL37stbir__resample_horizontal_downsampleP11stbir__infoiPf
Pma:__ZNK5Unity9Component38MarkGameObjectAndComponentDependenciesER27GarbageCollectorThreadState
ZX:__ZL16OutOfMemoryErrorjj18MemLabelIdentifieriPKc
zPa:_UNITY_png_write_data
nQb:__Z18Transfer_BlittableI18StreamedBinaryReadILb0EELb1EdEvRK29SerializationCommandArgumentsR31RuntimeSerializationCommandInfo
oHf:_Guid__ctor_m2599802704
XNf:_FileStream_get_CanRead_m4148920720
CBa:__ZN4crnd12symbol_codec32decode_receive_static_data_modelERNS_25static_huffman_data_modelE
G$b:__ZN18ScriptingArguments8AddFloatEf
dGf:_GregorianCalendar_set_CalendarType_m2438362222
zTe:_Array_InternalArray__ICollection_Contains_TisVector2_t2243707579_m3625698589_gshared
_rc:__Z18Transfer_BlittableI9JSONWriteLb0EaEvRK29SerializationCommandArgumentsR31RuntimeSerializationCommandInfo
JQ:__ZN11UnityEngine15CloudWebService14DataDispatcher34OnSessionContainerArchivedAndReadyERNS0_16SessionContainerE
RCc:__ZN7b2World11CreateJointEPK10b2JointDef
OGf:_NumberFormatInfo_GetFormat_m3247563525
Hag:_CipherSuiteCollection__ctor_m2154226461
FLb:__Z18Transfer_BlittableI19StreamedBinaryWriteILb0EELb0E8Vector3fEvRK29SerializationCommandArgumentsR31RuntimeSerializationCommandInfo
SLh:_RectOffset__ctor_m2227510254
mSb:__ZN14SafeBinaryRead19TransferSTLStyleMapINSt3__23mapIN4core12basic_stringIcNS3_20StringStorageDefaultIcEEEEiNS1_4lessIS7_EENS1_9allocatorINS1_4pairIKS7_iEEEEEEEEvRT_17TransferMetaFlags
xQc:_gray_move_to
alh:_DSAParameters_t1872138834_marshal_pinvoke
Rij:_ConstructionCall_InitDictionary_m4046452035
hBb:__ZN5Cache9URLToPathERKN4core12basic_stringIcNS0_20StringStorageDefaultIcEEEE7Hash128
vsd:__ZN6il2cpp2vm10Reflection14GetEventObjectEP11Il2CppClassPK9EventInfo
_bg:_TlsStream_Write_m2271546135
iac:__Z30RegisterValidateMethodCallbackiPF18ScriptingMethodPtrS_17ScriptingClassPtrP6ObjectEPKc
cye:_CultureInfo_ConstructInternalLocaleFromCurrentLocale_m1342751405
x6d:_Latin1Encoding_GetString_m3553289597
VRc:_tt_cmap_init
TCa:__ZL25ProgramUniformMatrix4x2fvPK7ApiGLESjiihPKv
_Cd:__ZN15dense_hashtableI10KeyWrapperIP18Il2CppGenericClassES3_N6il2cpp8metadata22Il2CppGenericClassHashEN14dense_hash_setIS3_S6_NS3_14EqualsComparerINS5_25Il2CppGenericClassCompareEEENSt3__29allocatorIS3_EEE8IdentityESA_SD_E12maybe_shrinkEv
m$b:__ZN9TextAssetC2E18MemLabelIdentifier18ObjectCreationMode
q7i:_Display_RecreateDisplayList_m3412638488
x1j:_emscripten_glCheckFramebufferStatus__wrapper
dxd:__ZNK15dense_hashtableINSt3__24pairIK10KeyWrapperIP11Il2CppClassES4_EES5_N6il2cpp8metadata16SZArrayClassHashEN14dense_hash_mapIS5_S4_SA_NS5_14EqualsComparerINS9_19SZArrayClassCompareEEENS0_9allocatorIS7_EEE9SelectKeyESE_SG_E12test_deletedEj
tuc:__Z18Transfer_BlittableI8JSONReadLb0EdEvRK29SerializationCommandArgumentsR31RuntimeSerializationCommandInfo
kCh:_Thread_ClrState_m822263449
$Xf:_SimpleCollator_LastIndexOfOrdinalIgnoreCase_m550798345
Cid:__ZN6il2cpp2vm21ThreadPoolCompartment13QueueWorkItemEP17Il2CppAsyncResult
Vm:FUNCTION_TABLE_viiiiiifiii
nua:__ZNK9GfxDevice13GetViewMatrixEv
$ma:__ZN17RemapPPtrTransferC2E24TransferInstructionFlagsb
Jgd:__ZN15dense_hashtableINSt3__24pairIK10KeyWrapperIPKcEP11Il2CppClassEES5_N6il2cpp5utils11StringUtils12StringHasherIS4_EEN14dense_hash_mapIS5_S8_SE_NS5_14EqualsComparerINSC_21CaseSensitiveComparerEEENS0_9allocatorIS9_EEE9SelectKeyESI_SK_E15insert_noresizeERKS9_
kna:__ZN18LoadSceneOperation23GetAllowSceneActivationEv
nla:__ZN11prophecysdk4half7convertEi
Sib:__ZN6CameraD0Ev
AZf:_ModulusRing_Multiply_m386339435
f9:__ZN31CanvasBatchIntermediateRenderer16StaticInitializeEPv
SLe:_GraphicRaycaster_U3CRaycastU3Em__0_m3971200721
yyf:_ReadOnlyCollection_1_System_Collections_IList_RemoveAt_m3004588099_gshared
zme:_Decimal_op_Implicit_m4246329390
g5f:_ArgumentNullException__ctor_m2252076819
$4a:__ZN10GameObjectC2E18MemLabelIdentifier18ObjectCreationMode
APc:_raccess_guess_apple_double
ojg:_ListDictionary_GetEnumerator_m1511032609
Qgh:_SerializationInfo__ctor_m4016423422
xRd:__ZN6il2cpp2os12Cryptography24OpenCryptographyProviderEv
g2b:__ZN14Texture2DArray13RebuildMipMapEv
Dcd:__ZN13Il2CppHashSetIPK17Il2CppGenericInstN6il2cpp8metadata21Il2CppGenericInstHashENS4_24Il2CppGenericInstCompareENSt3__29allocatorI10KeyWrapperIS2_EEEEC2EjRKS5_RKS6_
dGb:__Z18Transfer_BlittableI14SafeBinaryReadLb1EaEvRK29SerializationCommandArgumentsR31RuntimeSerializationCommandInfo
xJd:__ZN6il2cpp2gc16GarbageCollector14RemoveWeakLinkEPPv
fWb:__ZN9ShaderLab20SerializedSubProgram14AddVectorParamEPKcii15ShaderParamTypei
fBf:_ReadOnlyCollection_1_System_Collections_IEnumerable_GetEnumerator_m1734360860_gshared
Adj:_ResourceSet_ReadResources_m1669023823
p3f:_PKCS12_RemoveCertificate_m1590055870
Rxd:__ZN6il2cpp2vm6Thread7SetNameEP12Il2CppThreadP12Il2CppString
Zaa:__ZN13ScreenManager18SetAllowCursorLockEb
xAb:__ZN30RuntimeInitializeOnLoadManager15ClassMethodInfo8TransferI14SafeBinaryReadEEvRT_
WCb:__ZN9TextAsset8TransferI14SafeBinaryReadEEvRT_
E9g:__ZL73CanvasScaler_t2574720772_CustomAttributesCacheGenerator_m_ScreenMatchModeP21CustomAttributesCache
wP:__ZL22InitializeModule_Audiov
oFc:__ZN16Physics2DManager13DynamicUpdateEv
tab:__ZN16MemoryFileSystem8IsLockedERK13FileEntryData
Qxj:_Vector2_get_Item_m2792130561_AdjustorThunk
jvh:_MonoCMethod_Invoke_m931478014
Hdj:_SatelliteContractVersionAttribute__ctor_m2605651717
Yk:_emscripten_glBindRenderbuffer
Eqh:_EnumBuilder_HasElementTypeImpl_m1414733955
aoc:__Z32GUIStyle_Set_Custom_PropClippingP12Il2CppObjecti
ROd:_GC_dirty_init
Q7d:_Array_Copy_m1969461849
MFd:__ZN6il2cpp2vm5Image33GetCachedMemoryMappedResourceFileEP24Il2CppReflectionAssembly
xEd:__ZN6il2cpp2vm5Field14GetValueObjectEP9FieldInfoP12Il2CppObject
L0c:__ZNK2UI6Canvas16GetTargetDisplayEv
$qj:_PKCS12_GetSymmetricAlgorithm_m3196291685
nwe:_Environment_get_OSVersion_m1247315981
Y7:__ZN6Object17FindObjectsOfTypeEPKN5Unity4TypeER13dynamic_arrayIPS_Lj4EEb
N9i:_AnimationOffsetPlayable_INTERNAL_CALL_GetRotation_m2705874827
sDb:__ZN13MonoBehaviour17RemoveFromManagerEv
tjb:__ZN12ImageFilters14AddImageFilterERK11ImageFilter
Prb:__ZL11DecodeValuePPKcS0_
S_h:_ShimEnumerator_MoveNext_m2013866013_gshared
LU:__ZN13MemoryManagerC2Ev
xFa:__ZN12SkinMeshInfo10DeallocateEPS_
pxj:_Transform_SetParent_m1963830867
aNa:__ZN20ArchiveStorageReader28AcquireAndPrefillUnusedBlockEjPNS_11CacheResultE
zJi:__Z78RuntimeInvoker_Il2CppObject_SByte_t454417549_SByte_t454417549_SByte_t454417549PK10MethodInfoPvPS2_
a2b:__Z12NHxRoughnessIA4_tEvP9Texture2DPT_iiii
w8:__ZN18AsyncUploadManagerD2Ev
VXb:__ZN9Transform5ResetEv
tLb:__Z22TransferField_NonArrayI24GenerateTypeTreeTransfer16Converter_StringEvRK23StaticTransferFieldInfoR31RuntimeSerializationCommandInfoRT0_
MRc:_UNITY_FT_CMap_New
twb:__ZNK17InstancedPropInfo21RenderSpriteInstancesERK15RenderNodeQueuePK17BatchInstanceDataj17ShaderChannelMask
Qaa:__Z17MainLoopKeepalivePv
naj:_AnimatorControllerPlayable_INTERNAL_CALL_SetBoolString_m1232105510
vkj:_MatchCollection__ctor_m1944681790
zUd:_HMACSHA512__ctor_m1667460019
M1a:__Z24ScheduleCullingAllGroupsR8JobFenceRK22SceneCullingParameters4PPtrI6CameraERK13CullingOutputRK13dynamic_arrayIP12CullingGroupLj4EERKS_
_Uf:_MonoType_ToString_m473949831
e1a:__Z14CalcHullBoundsPK8Vector3fPKhhRK5PlaneRK10Matrix4x4fR10MinMaxAABB
deh:_RealProxy__ctor_m2147093603
IVa:__Z19SetupLODFadeKeywordR17ShaderPassContexti
UFf:_DateTimeFormatInfo_GetAllDateTimePatternsInternal_m1587126173
QEa:__ZL25CheckCopyTextureArgumentsRK7ApiGLESP11GLESTextureS3_
q8:__ZN13dynamic_arrayI26EnlightenSystemInformationLj8EE6insertEPS0_PKS0_S4_
qRc:_tt_name_entry_ascii_from_utf16
lVf:_MulticastNotSupportedException__ctor_m2164514827
upe:_DateTime_System_IConvertible_ToChar_m2489529194_AdjustorThunk
_Kb:__Z29Transfer_Blittable_ArrayFieldI24GenerateTypeTreeTransferyEvRT_R9ArrayInfoRK23StaticTransferFieldInfo
EJ:__ZN4FMOD7SystemI9playSoundE17FMOD_CHANNELINDEXPNS_5SoundEbPPNS_7ChannelE
b2i:_AttributeHelperEngine_GetRequiredComponents_m120894667
SY:__GLOBAL__sub_I_runtime_graphics_mesh2_lump_cpp
ond:__ZN6il2cpp2os4File4ReadEPNS0_10FileHandleEPciPi
aI:__ZN12AudioManager23VirtualRedirectTransferER18StreamedBinaryReadILb0EE
Stb:__ZN10VertexData13SwapEndianessEv
OQj:_realloc
Yjc:__Z57Register_UnityEngine_Transform_INTERNAL_get_localRotationv
Mfi:_ScrollRect_SetLayoutVertical_m1225848090
MEh:_Type_get_IsInterface_m3583817465
MUj:dynCall_viif
Vvh:_MonoField_get_DeclaringType_m1591666235
Etg:_Enumerator_MoveNext_m4234629003
vS:__ZN11UnityEngine15CloudWebService13WWWRestClient21ParseHTTPHeaderStringEN4core12basic_stringIcNS2_20StringStorageDefaultIcEEEERNS0_16WWWRestHeaderMapERjPKc
aJb:__ZL26Transfer_SimpleNativeClassI17RemapPPtrTransfer8GradientLb0EEvRK29SerializationCommandArgumentsR31RuntimeSerializationCommandInfo
yfd:__ZNK15dense_hashtableINSt3__24pairIK10KeyWrapperI13dynamic_arrayIPK10Il2CppTypeLj4EEEPFvvEEES8_N6il2cpp8metadata19Il2CppSignatureHashEN14dense_hash_mapIS8_SB_SF_NS8_14EqualsComparerINSE_22Il2CppSignatureCompareEEENS0_9allocatorISC_EEE9SelectKeyESJ_SL_E10test_emptyEj
chb:__ZNSt3__26vectorIN20ArchiveStorageHeader12StorageBlockE13stl_allocatorIS2_L18MemLabelIdentifier54ELi16EEE21__push_back_slow_pathIKS2_EEvRT_
Sjd:__ZN6il2cpp6icalls8mscorlib6System8MonoType14get_attributesEP20Il2CppReflectionType
Beb:__Z43DestroyWithoutLoadingButDontDestroyFromFilei
iUf:_MonoType_GetDefaultConstructor_m925465120
BFh:_Type_IsArrayImpl_m3073208555
fTj:dynCall_viiiiiffi
Gc:_emscripten_glBlendFuncSeparate
t_:__Z20scripting_string_newPKc
vic:__Z43Material_CUSTOM_Internal_CreateWithMaterialP12Il2CppObjectS0_
SMf:_Directory_GetCurrentDirectory_m44486537
YEd:__ZNK24NamespaceAndNamePairHashclERKNSt3__24pairIPKcS3_EE
emf:_Collection_1_System_Collections_ICollection_CopyTo_m1047946700_gshared
JMj:_BacteriaController__reset_m2062403076
fng:_AsnEncodedData_Default_m4197142414
gF:__Z103Register_UnityEngine_Experimental_Director_AnimatorControllerPlayable_INTERNAL_CALL_ResolveHashInternalv
bu:__ZNSt3__26__sortIRPFbPKN8Animator11AnimatorJobES4_EPS4_EEvT0_S9_T_
qH:__ZN17AudioCustomFilterD2Ev
Fmc:__ZNK8GUIStyle13GetLineHeightEv
XDa:__ZN18GfxFramebufferGLES18ReleaseFramebufferEP17RenderSurfaceBaseP14GfxContextGLES
Ygj:_Context_GetDynamicPropertyCollection_m1987747444
sog:_X509Certificate2_get_Version_m1927399907
Y3b:__ZN13ProduceHelperI6CameraLb0EE7ProduceE18MemLabelIdentifier18ObjectCreationMode
yNe:_Image_RadialCut_m3229543088
MT:__ZN19CloudServiceHandler34HandleSaveFileWebRequestPlayerLoopEv
Vz:__ZN7mecanim21ValueArrayReverseCopyEPKNS_18ValueArrayConstantEPKNS_10ValueArrayES2_PS3_PKi
bH:__Z31GetParentSampleClipFromInstancePN11SoundHandle8InstanceE
M$b:__ZNK28RectTransformPropertyBinding13GetFloatValueERKN11UnityEngine9Animation10BoundCurveE
U3a:__ZN6Camera22StandaloneCustomRenderENS_10RenderFlagEP6ShaderRKN4core12basic_stringIcNS3_20StringStorageDefaultIcEEEEPNS_21PerformRenderFunctionE
CTd:__ZN6il2cpp2os16ThreadLocalValue8GetValueEPPv
Qgd:__ZN6il2cpp2vm13MetadataCache14GetGenericInstEPKPK10Il2CppTypej
pYd:_SHA384Managed_Initialize_m712692291
gd:_glUniform1uiv
okc:__Z52Object_CUSTOM_GetOffsetOfInstanceIDInCPlusPlusObjectv
lp:setThrew
U1b:__ZL21BuildEmptyCubeTexturePKci11ColorRGBA3217TextureColorSpace
pSb:__ZN14SafeBinaryRead21TransferSTLStyleArrayINSt3__26vectorIN9ShaderLab20SerializedSubProgramENS1_9allocatorIS4_EEEEEEvRT_17TransferMetaFlags
Gtc:__Z15Transfer_StringI8JSONReadLb1EEvRK29SerializationCommandArgumentsR31RuntimeSerializationCommandInfo
Eka:__ZN6prcoreL17RemapGenericFloatI17TexFormatRGBFloat15TexFormatRGHalfEEvPKNS_9InnerInfoE
lXa:__Z25DoForwardShaderRenderLoopR17RenderLoopContextR13dynamic_arrayI16RenderObjectDataLj4EERK11CullResultsbbbN6Camera10RenderFlagE
QQc:_sfnt_load_face
NMc:_UNITY_FT_Render_Glyph_Internal
EAh:_UTF8Encoding_GetByteCount_m2372933408
Vgj:_Context_get_NeedsContextSink_m1907794755
HQc:_UNITY_ft_service_list_lookup
u7f:_ARC4Managed_GenerateKey_m716135508
fmc:__ZN5IMGUI21SelectReceivingWindowER8GUIStateb
hD:__ZNK26AnimatorControllerPlayable17ValidateGoToStateERiS0_
Gri:_InternalEnumerator_1_get_Current_m3179981210_gshared
Lbb:__ZN13BaseAllocator13TryDeallocateEPv
A7d:_Array_CreateInstance_m1054139389
RNh:_GUIStyleState_GetGUIStyleState_m2816150617
MMe:_LayoutGroup_GetAlignmentOnAxis_m1783063916
Ejb:__ZNSt3__26vectorIN12FlareManager10FlareEntryENS_9allocatorIS2_EEE21__push_back_slow_pathIKS2_EEvRT_
vnh:_Default_check_arguments_with_score_m1714931543
IXd:_SHA1_Create_m4086509717
Ewh:_MonoMethodInfo_GetMethodInfo_m3298558752
NH:__ZN13AudioListener17RemoveFromManagerEv
Bd:_glAttachShader
BJe:_Dropdown_SetAlpha_m2769981009
NOa:__ZNK6Camera19GetProjectionMatrixEv
pBj:_Predicate_1_BeginInvoke_m1856151290_gshared
ZR:__ZN11UnityEngine15CloudWebService10RestClientINS0_16WWWRestHeaderMapEE6SetUrlERKN4core12basic_stringIcNS4_20StringStorageDefaultIcEEEE
MMi:__Z139RuntimeInvoker_Il2CppObject_Il2CppObject_Int32_t2071877448_SByte_t454417549_SByte_t454417549_SByte_t454417549_SByte_t454417549_Il2CppObjectPK10MethodInfoPvPS2_
fue:_StackTrace__ctor_m2404985356
S2:__Z38PreallocateObjectFromPersistentManagerib
Ipe:_DateTime_System_IConvertible_ToSingle_m3927769066
UY:__GLOBAL__sub_I_runtime_interfaces_lump_cpp
Ynb:__ZNK9Texture2D20GetUnscaledTextureIDEv
Tne:_Convert_ToSByte_m883113940
A_j:_glFenceSync__wrapper
aVf:_MonoType_get_ContainsGenericParameters_m3229732653
b7g:__ZL53InputField_t1631627530_CustomAttributesCacheGeneratorP21CustomAttributesCache
eFe:_ButtonClickedEvent__ctor_m938038541
cRb:__ZN18StreamedBinaryReadILb0EE21TransferSTLStyleArrayI13dynamic_arrayI4AABBLj4EEEEvRT_17TransferMetaFlags
pGh:_UInt16_System_IConvertible_ToDouble_m4100549304_AdjustorThunk
CEi:__Z116RuntimeInvoker_Il2CppObject_Il2CppObject_Il2CppObject_Int32_t2071877448_Int32_t2071877448_MonoIOErrorU26_t1029615899PK10MethodInfoPvPS2_
Nna:__Z29ClearRepeatingLogMessageStatev
plc:__ZN13TextRendering17TextMeshGenerator13GetTextOffsetERK5RectTIfE
bIj:_HashSet_1_OnDeserialization_m1222146673_gshared
V0d:_Single_System_IConvertible_ToInt16_m962677079
K7:__ZN21EnlightenSceneMappingaSERKS_
VQf:_StreamWriter__cctor_m1332667003
h1d:_Single_System_IConvertible_ToUInt32_m2447833283
aAf:_ReadOnlyCollection_1_System_Collections_IList_Add_m3806843030_gshared
QIa:__ZN7ApiGLESD2Ev
K5a:__ZN9Transform47ClearTransformHierarchyAndApplyToSerializedDataEv
bqi:_InternalEnumerator_1_get_Current_m4083613828_AdjustorThunk
_2i:_Bounds_op_Equality_m2161830280
_7a:__ZN17PersistentManager9AddStreamEv
cVj:dynCall_fidi
Apd:__ZN15dense_hashtableINSt3__24pairIK10KeyWrapperINS1_IPK9FieldInfoP11Il2CppClassEEEjEES9_17ReflectionMapHashIS8_EN14dense_hash_mapIS9_jSD_NS9_14EqualsComparerINS0_8equal_toIS8_EEEENS0_9allocatorISB_EEE9SelectKeyESI_SK_E12resize_deltaEjj
$oc:__Z47Register_UnityEngine_GUIStyle_set_imagePositionv
Coc:__Z49GUIStyle_CUSTOM_INTERNAL_CALL_Internal_DrawCursor13Il2Cpp_IntPtrRK5RectTIfEP12Il2CppObjectiRK10ColorRGBAf
eYh:_RectTransform_set_anchorMin_m4247668187
ukb:__ZN22RenderingCommandBufferC2ERKS_
gbc:__ZNK13MonoBehaviour13GetScriptTypeEv
Oca:__ZN13RenderTexture12SetDimensionE16TextureDimension
Otj:_ScriptableObject_CreateInstance_m3921674852
qe:_SDL_FreeRW
P0f:_PKCS1_OS2IP_m1273945439
RXd:_SHA1Internal_FillBuff_m891541953
b2c:__Z34CanvasRenderer_Get_Custom_PropCullP12Il2CppObject
rN:__ZN20SoundChannelInstance8getDelayE14FMOD_DELAYTYPEPjS1_
Afb:__ZN21AssetBundleFileSystemC2EPKc
fOi:__Z113RuntimeInvoker_Int32_t2071877448_Vector2_t2243707579_Vector2_t2243707579_ContactFilter2D_t1672660996_Il2CppObjectPK10MethodInfoPvPS2_
RBi:__Z61RuntimeInvoker_Void_t1841601450_Il2CppObject_Int64_t909078037PK10MethodInfoPvPS2_
DOe:_InputField_set_customCaretColor_m3534590098
wei:_ScrollRect_set_viewport_m323693490
C1:__ZN10UnitySceneD0Ev
kFf:_NumberFormatter_FormatExponential_m3975285307
zLc:__ZNSt3__26vectorIN20TextRenderingPrivate8FontImpl13CharacterInfoE13stl_allocatorIS3_L18MemLabelIdentifier1ELi16EEE8__appendEj
v:tempBigInt
ye:_emscripten_glVertexAttrib1fv
QSb:__ZNSt3__26vectorIN9ShaderLab20SerializedSubProgram12UAVParameterENS_9allocatorIS3_EEE7reserveEj
zjg:_NameObjectCollectionBase__ctor_m2433753948
d0i:_AnimationCurve_Init_m1486386337
W5i:_Component_GetComponents_m3712441745
HIg:__ZL99Thread_t241561612_CustomAttributesCacheGenerator_Thread_t241561612____ExecutionContext_PropertyInfoP21CustomAttributesCache
ZDj:_UnityAction_4_Invoke_m3312096275_gshared
LYh:_RectTransformUtility_ScreenPointToRay_m1842507230
f3a:__ZN16ReflectionProbes16UpdateSampleDataEv
ZEb:__ZN14SafeBinaryRead21TransferSTLStyleArrayI10vector_setI4PPtrI10MonoScriptENSt3__24lessIS4_EE13stl_allocatorIS4_L18MemLabelIdentifier76ELi16EEEEEvRT_17TransferMetaFlags
UFi:__Z103RuntimeInvoker_Il2CppObject_Il2CppObject_StreamingContext_t1417235061_ISurrogateSelectorU26_t2635255864PK10MethodInfoPvPS2_
Sej:_SafeHandle_Finalize_m1839546519
evc:__ZN8JSONRead21TransferSTLStyleArrayINSt3__26vectorI10RectOffset13stl_allocatorIS3_L18MemLabelIdentifier1ELi16EEEEEEvRT_S5_17TransferMetaFlags
Ehj:_Context_AllocateNamedDataSlot_m3200404053
B7f:_CryptoConvert_ToHex_m2874017189
qng:_X509EnhancedKeyUsageExtension_Decode_m3866320499
gFf:_NumberFormatter_AppendIntegerStringWithGroupSeparator_m1401773574
Nnd:__ZNK6il2cpp2vm14TypeNameParser10NextWillBeEcb
Ve:_JS_Sound_Play
NNe:_Image_IsRaycastLocationValid_m864962354
SRb:__ZN9ShaderLab16SerializedShader8TransferI14SafeBinaryReadEEvRT_
zt:__ZN7mecanim8skeleton13SkeletonAlignEPKNS0_8SkeletonERKN4math7_float4ES7_i
L2b:__ZN19ShaderPropertySheet16SetVectorIndexedEN9ShaderLab16FastPropertyNameEifRK8Vector4fNS_8SetFlagsE
zq:__ZN14SafeBinaryRead21TransferSTLStyleArrayIN4core12basic_stringIcNS1_20StringStorageDefaultIcEEEEEEvRT_17TransferMetaFlags
zeh:_RemotingConfiguration_RegisterWellKnownServiceType_m2491506630
uDg:__ZL55_TypeBuilder_t2783404358_CustomAttributesCacheGeneratorP21CustomAttributesCache
VRe:_LayoutRebuilder_Initialize_m2671585490
kff:_List_1_System_Collections_IList_IndexOf_m4061554721_gshared
sT:__ZN11UnityEngine15CloudWebService14DataDispatcher4StopEv
SSb:__ZNSt3__26vectorIN9ShaderLab20SerializedSubProgram12UAVParameterENS_9allocatorIS3_EEE8__appendEj
Ylc:__ZN5IMGUI9GUIWindow5OnGUIER8GUIState
m0h:_Enumerator_get_Current_m2986380627_gshared
nfa:__ZN17ScriptingGCHandle7AcquireE18ScriptingObjectPtr25ScriptingGCHandleWeakness
Fgj:_LifetimeServices_set_LeaseTime_m1487876644
Hoh:_ConstructorBuilder_not_supported_m3687319507
_0d:_Single_System_IConvertible_ToInt64_m3555853323_AdjustorThunk
VTj:dynCall_iifiii
mpa:__Z21HasAlphaTextureFormat13TextureFormat
IO:__ZN12AudioManager6UpdateEv
kpa:__ZN14ImageReference9BlitImageERKS_NS_8BlitModeE
Xr:__ZN8Animator12AddToManagerEv
qEb:__ZN23CachedSerializationDataD2Ev
G2a:__ZNK25CameraStackRenderingState31CalculateStereoCameraTargetTypeEv
V9i:_AnimatorControllerPlayable_INTERNAL_CALL_GetAnimatorControllerInternal_m239716681
Wlb:__ZN14RenderSettings23VirtualRedirectTransferER14SafeBinaryRead
Vxc:__ZNK13b2CircleShape5CloneEP16b2BlockAllocator
zId:__ZN6il2cpp2os10ThreadImpl15CurrentThreadIdEv
oTe:_Array_InternalArray__ICollection_Contains_TisColor32_t874517518_m2818328910_gshared
XWh:_RaycastHit2D_get_point_m442317739
AMe:_LayoutGroup_SetChildAlongAxis_m1615929339
VYc:_UNITY_tt_face_load_fpgm
lxb:__ZN12InputManagerD0Ev
wpd:__ZN15dense_hashtableINSt3__24pairIK10KeyWrapperINS1_IPK9FieldInfoP11Il2CppClassEEEjEES9_17ReflectionMapHashIS8_EN14dense_hash_mapIS9_jSD_NS9_14EqualsComparerINS0_8equal_toIS8_EEEENS0_9allocatorISB_EEE9SelectKeyESI_SK_E4findERSA_
ZHe:_DefaultControls_CreateUIObject_m2810394112
CPh:_GUIStyle_get_overflow_m1125058093
Ccj:_AnimatorControllerPlayable_Play_m4092315465
tzh:_UnicodeEncoding_GetBytes_m1337660232
PPb:__Z18Transfer_BlittableI18StreamedBinaryReadILb0EELb1EtEvRK29SerializationCommandArgumentsR31RuntimeSerializationCommandInfo
TQj:_posix_memalign
$2b:__ZN13ProduceHelperI12MeshRendererLb0EE7ProduceE18MemLabelIdentifier18ObjectCreationMode
Tui:_InternalEnumerator_1_get_Current_m747506907_AdjustorThunk
k3i:_Camera_get_eventMask_m4241372419
tNh:_GUILayoutUtility_LayoutFromEditorWindow_m1847418289
V2:__ZNK15MonoScriptCache7ReleaseEv
sbd:__ZN6il2cpp2vm5Class13HasReferencesEP11Il2CppClass
ig:_glBindTexture
gPj:_snprintf
kPe:_InputField_set_caretPosition_m888572237
Yrh:_ILGenerator__cctor_m3943061018
Cee:_ArrayListWrapper_Clone_m1506311066
Y7i:_Event_get_character_m3740896233
Bma:__Z36scripting_liveness_calculation_begin17ScriptingClassPtriPFvPP12Il2CppObjectiPvES3_PFvvES7_
LGa:__ZN16UniformCacheGLES6CreateERK20GpuProgramParameters
NAh:_UTF8Encoding_Fallback_m811555654
xIh:_UInt64_CompareTo_m3513742483
f6d:_Encoding_GetString_m1894033578
Xyf:_ReadOnlyCollection_1_System_Collections_IList_Clear_m1918003010_gshared
UAj:_Nullable_1_Equals_m3860982732_gshared
SXj:_emscripten_glGetProgramInfoLog__wrapper
RAh:_UTF8Encoding_InternalGetChars_m373801468
F5:__ZN17PersistentManager23DestroyFromFileInternalEi
fwe:_Enum_ToString_m2112979707
Evj:_TextGenerator_ValidatedSettings_m1640214759
Vbh:_MonoMethodMessage_get_MethodName_m3580519713
tv:__ZN26AnimatorControllerPlayable18PrepareForPlaybackERN7mecanim6memory9AllocatorE
IAh:_UTF8Encoding_GetBytes_m4170182058
fga:__ZN22CreateGpuProgramOutputC2Ev
aqg:_X509Chain__ctor_m2242540866
iPf:_MemoryStream_InternalConstructor_m2423667240
myi:__Z70RuntimeInvoker_Il2CppObject_Il2CppObject_Il2CppObject_SByte_t454417549PK10MethodInfoPvPS2_
Tch:_SoapMethodAttribute_SetReflectionObject_m3431595769
Ygi:_Slider_set_maxValue_m2951480075
nbd:__ZN6il2cpp2vmL17SetupGCDescriptorEP11Il2CppClass
yQe:_InputField_OnSubmit_m2856515494
ha:invoke_vidi
cyj:_Vector2_op_Subtraction_m1984215297
Q8b:__ZNK15GUIEventManager15GetEventAtIndexEi
i0c:__ZN2UI14CanvasRenderer17SyncDirtyElementsER8JobFence
QGe:_ColorBlock_op_Inequality_m1517672458
eHd:__ZN6il2cpp5utils11StringUtils15StringDuplicateEPKc
R4a:__Z15CanAddComponentR10GameObjectPKN5Unity4TypeE
Afa:__ZNK9ShaderLab21ShaderRasterStateDesc16ToGfxRasterStateEPK19ShaderPropertySheetS3_R14GfxRasterState
yV:_tlsf_memalign
hkh:_CspParameters__ctor_m2480441577
LTd:__ZN6il2cpp2os9EventImplC2Ebb
fhj:_DynamicPropertyCollection_NotifyMessage_m840388347
cpj:_Uri_ParseUri_m5711497
Rcb:__ZNK5Unity9Component26GetTypeInfoVirtualInternalEv
L$:__Z20IsMatrixBuiltinParamPKcPi
Epf:_Collection_1_CheckWritable_m2467777750_gshared
t2b:__ZN8Renderer19PostInitializeClassEv
nOc:__ZN20TextRenderingPrivate15DynamicFontDataD2Ev
vli:_InternalEnumerator_1_get_Current_m1943362081_AdjustorThunk
Iyj:_Vector3_get_sqrMagnitude_m1814096310_AdjustorThunk
nQd:__ZN6il2cpp6icalls8mscorlib6System8Delegate23CreateDelegate_internalEP20Il2CppReflectionTypeP12Il2CppObjectP22Il2CppReflectionMethodb
pnh:_Default_check_type_m2363631305
DDb:__ZN18DelayedCallManager18CancelCallDelayed2E4PPtrI6ObjectEPF15CallObjectStatePS1_PvES7_
bbj:_AnimatorControllerPlayable_INTERNAL_CALL_GetLayerIndexInternal_m1847150746
Qbb:__ZN25ThreadsafeLinearAllocator10ReallocateEPvji
BFb:__Z18Transfer_BlittableI14SafeBinaryReadLb1E11QuaternionfEvRK29SerializationCommandArgumentsR31RuntimeSerializationCommandInfo
iYe:_Array_InternalArray__IndexOf_TisRaycastHit2D_t4063908774_m3739817942_gshared
cxh:_MonoProperty_GetAccessors_m3704698731
eFi:__Z146RuntimeInvoker_Il2CppObject_Int32_t2071877448_Il2CppObject_ObjectU5BU5DU26_t3223402458_Il2CppObject_Il2CppObject_Il2CppObject_ObjectU26_t597476745PK10MethodInfoPvPS2_
CPd:_GC_disable
dub:__ZN10Matrix4x4f8TransferI14SafeBinaryReadEEvRT_
ySf:_UnmanagedMemoryStream_ReadByte_m2501145010
cud:__ZN14dense_hash_mapI10KeyWrapperIPK22Il2CppGenericParameterEPK24MonoGenericParameterInfoN6il2cpp5utils11PointerHashIS2_EENS4_14EqualsComparerINSt3__28equal_toIS3_EEEENSD_9allocatorINSD_4pairIKS4_S7_EEEEE15set_deleted_keyERSJ_
qv:__ZN14AvatarPlayback8StopTimeEv
_5:__Z6AppendRKN4core12basic_stringIcNS_20StringStorageDefaultIcEEEEPKc
lNb:__Z18Transfer_BlittableI18StreamedBinaryReadILb1EELb0E8Vector3fEvRK29SerializationCommandArgumentsR31RuntimeSerializationCommandInfo
Reb:__ZN14CachingManager15ClearTempFolderEv
Mza:__ZN7ApiGLES18ClearBufferSubDataEjN2gl12BufferTargetEll
vdc:__Z37Camera_Get_Custom_PropAllCamerasCountv
ltb:__ZN14Texture2DArray8TransferI18StreamedBinaryReadILb0EEEEvRT_
$xd:__ZN6il2cpp6icalls8mscorlib6System5Array9GetLengthEP11Il2CppArrayi
N$a:__Z18ApplyOcclusionMaskR19ProbeOcclusionCacheRK17LightProbeContextRK10RenderNodeb
COf:_FileStreamAsyncResult__ctor_m1096228032
wTc:_Split_Cubic
eb:invoke_fiiii
Ere:_DBNull_System_IConvertible_ToSByte_m1228193074
jof:_Collection_1__ctor_m2818834331_gshared
b5e:_Array_InternalArray__get_Item_TisUICharInfo_t3056636800_m3872982785_gshared
Whf:_List_1__ctor_m2168280176_gshared
BId:__ZN6il2cpp2os10ThreadImpl22CreateForCurrentThreadEv
cOf:_FileStream_FlushBuffer_m2594140542
upc:__Z64Register_UnityEngine_GUIStyle_GetFontInternalDuringLoadingThreadv
iTc:_ft_black_render
OLd:__ZN6il2cpp2vm8Profiler12GCHeapResizeEx
kVj:dynCall_viiifi
CDa:__ZN18GfxFramebufferGLES20ActiveContextChangedEPP17RenderSurfaceBaseS2_
fZa:__ZN19ShaderPropertySheet17UpdateTextureInfoEiN9ShaderLab16FastPropertyNameEPK10TextureRef
yDa:__Z19PluginsRenderMarkeri
kC:__ZN10HumanTrait18InitializeBoneNameEv
qrj:_X509CertificateEnumerator_get_Current_m3129374511
RFd:__ZNSt3__214__split_bufferIN6il2cpp2vm5Image20EmbeddedResourceDataERNS_9allocatorIS4_EEEC2EjjS7_
QQa:__ZN5Image13ReformatImageERK14ImageReferenceii13TextureFormatNS0_8BlitModeE
GCg:__ZL57DispIdAttribute_t607560947_CustomAttributesCacheGeneratorP21CustomAttributesCache
zH:__ZN12AudioManager17RemoveAudioSourceEP11AudioSource
E6i:_CullingGroup_Finalize_m3172731580
xAj:_AesManaged_get_KeySize_m2773901127
S4e:_Array_InternalArray__get_Item_TisUInt64_t2909196914_m2580870875_gshared
I0b:__ZN13ProduceHelperI14SpriteRendererLb0EE7ProduceE18MemLabelIdentifier18ObjectCreationMode
KP:__ZN5physx14PxLightCpuTask12addReferenceEv
FFc:__Z10b2DistanceP16b2DistanceOutputP14b2SimplexCachePK15b2DistanceInput
Zpb:__ZN21EnlightenSceneMapping8TransferI19StreamedBinaryWriteILb0EEEEvRT_
ODd:__ZN6il2cpp2gc16GarbageCollector19InitializeFinalizerEv
Klc:__ZN10GUIManager10DoGUIEventER10InputEventb
y0:__Z20CalculateSqrDistanceRK8Vector3fRK4AABB
vL:__Z32AudioMixerDuckingProcessCallbackP21UnityAudioEffectStatePfS1_jii
coh:_CustomAttributeTypedArgument_GetHashCode_m999147081_AdjustorThunk
z1b:__ZN26CustomRenderTextureManagerD2Ev
lOf:_FileStream_Read_m3880951166
fI:__ZN12AudioManager8TransferI24GenerateTypeTreeTransferEEvRT_
hja:__Z25GetBytesFromTextureFormat13TextureFormat
OOi:__Z105RuntimeInvoker_Void_t1841601450_Int32_t2071877448_Single_t2076509932_Int32_t2071877448_Single_t2076509932PK10MethodInfoPvPS2_
hTj:dynCall_iiffi
x4e:_Array_InternalArray__get_Item_TisInt16_t4041245914_m2533263979_gshared
Ri:_emscripten_webgl_init_context_attributes
JB:__ZN16MecanimAnimation25RegisterIAnimationBindingEPKN5Unity4TypeEiP17IAnimationBinding
R3:__Z32scripting_class_get_assemblyname17ScriptingClassPtr
KFc:__ZN9b2Simplex9ReadCacheEPK14b2SimplexCachePK15b2DistanceProxyRK11b2TransformS5_S8_
n2h:_Dictionary_2_Resize_m2532139610_gshared
Uuj:_StackTraceUtility__cctor_m1132099289
SDh:_TimeSpan_Equals_m2029123271_AdjustorThunk
uhd:__ZN6il2cpp2vm13MetadataCache23GetInvokerMethodPointerEPK10MethodInfoPK20Il2CppGenericContext
SHa:__ZN9GfxDevice21RegisterNativeTextureE9TextureIDi16TextureDimension
_xe:_CultureInfo__ctor_m456863818
oRd:__ZN6il2cpp6icalls8mscorlib6System10Reflection4Emit11TypeBuilder20create_generic_classEP27Il2CppReflectionTypeBuilder
D8e:_Enumerator_MoveNext_m2504790928_gshared
VV:__ZN3WWW20GetCachedErrorStringEv
fwd:__ZN15dense_hashtableINSt3__24pairIK10KeyWrapperINS1_IP11Il2CppClassjEEES4_EES6_N6il2cpp8metadata14ArrayClassHashEN14dense_hash_mapIS6_S4_SB_NS6_14EqualsComparerINSA_17ArrayClassCompareEEENS0_9allocatorIS8_EEE9SelectKeyESF_SH_E13set_empty_keyERKS8_
HWb:__ZN12ScriptMapperD2Ev
LUd:_KeyedHashAlgorithm_Dispose_m1864300576
jrj:_X509Certificate_PEM_m49854707
tng:_X509BasicConstraintsExtension__ctor_m3320418592
tqj:_ExtendedKeyUsageExtension_Decode_m901297139
qjc:__Z52Register_UnityEngine_RenderTexture_Internal_GetWidthv
mOd:_GC_check_leaked
pVb:__ZN9ShaderLab20SerializedSubProgram16TextureParameter8TransferI19StreamedBinaryWriteILb0EEEEvRT_
F$e:_Array_InternalArray__Insert_TisVector4_t2243707581_m1643342708_gshared
AT:__ZN11UnityEngine15CloudWebService16SessionContainer8AddEventEPNS0_14CloudEventInfoE
NGa:__Z4TrimRKN4core12basic_stringIcNS_20StringStorageDefaultIcEEEES5_
eii:_Text_set_resizeTextMaxSize_m4034967714
Lxg:__ZL55GuidAttribute_t222072359_CustomAttributesCacheGeneratorP21CustomAttributesCache
qLh:_GUIStyle_SetDefaultFont_m2095841351
Pnh:_CustomAttributeNamedArgument_Equals_m2691468532
gsb:__ZN10VertexData8TransferI14SafeBinaryReadEEvRT_
yJ:__ZN4FMOD8ChannelI8setDelayE14FMOD_DELAYTYPEjj
Fje:_Stack__ctor_m2410583781
gPd:_GC_malloc_atomic
TRd:__ZN6il2cpp5utils6Memory13AlignedMallocEjj
OD:__Z93Register_UnityEngine_Experimental_Director_AnimationClipPlayable_INTERNAL_CALL_SetApplyFootIKv
r_i:__Z48RuntimeInvoker_UIVertex_t1204258818_Il2CppObjectPK10MethodInfoPvPS2_
TFd:__ZNSt3__214__split_bufferIN6il2cpp2vm5Image20EmbeddedResourceDataERNS_9allocatorIS4_EEED2Ev
Y1:__ZL20SortItemByInstanceIDRKN18AwakeFromLoadQueue4ItemES2_
wth:_TypeBuilder_create_runtime_class_m2719530260
OWd:_RNGCryptoServiceProvider_RngClose_m2921734810
cv:__ZNK34AnimationStateMachineMixerPlayable26GetInterruptedPosePlayableEv
X7c:__ZN20UnityConnectSettings8TransferI24GenerateTypeTreeTransferEEvRT_
$s:__ZN34BlobWriteTransferSTLStyleArrayImplI22OffsetPtrArrayTransferIbEEclERS1_17TransferMetaFlagsR9BlobWrite
nXf:_SimpleCollator_IsHalfKana_m4255579023
hmf:_Collection_1_System_Collections_IList_Contains_m3365884450_gshared
HMa:__Z16FlaggedAsSkippedIN4core12basic_stringIcNS0_20StringStorageDefaultIcEEEEEbRK13FileEntryInfoRKT_19FileEnumerationFlag
A7:__ZL31InitializeRendererUpdateManagerPv
scg:_ClientSessionInfo_Dispose_m2571428025
HRe:_LayoutGroup_DelayedSetDirty_m4276695617
Efg:_RecordProtocol_decryptRecordFragment_m2510859489
Aeb:__Z28GetAbsoluteAssetBundlePrefixRKN4core12basic_stringIcNS_20StringStorageDefaultIcEEEE
ayb:__ZN11TimeManager8TransferI19StreamedBinaryWriteILb0EEEEvRT_
TOf:_DelegatePInvokeWrapper_ReadDelegate_t3184826381
vUc:_compare_uni_maps
m6c:__ZN11UnityEngine15PlatformWrapper27GetGraphicsCapsSupportFlagsEv
Vse:_Decimal_Equals_m1115043331
ZMb:__ZN12NativeBufferI16Converter_StringE15SetupForWritingER9ArrayInfo
VWj:___cxa_end_catch__wrapper
m1h:_ValueCollection_System_Collections_Generic_ICollectionU3CTValueU3E_Clear_m231380274_gshared
LAe:_Entry__ctor_m1176697586
v4a:__ZN13MonoBehaviour22DoScriptRebuildWarningEv
xdc:__Z38Camera_CUSTOM_INTERNAL_CALL_RaycastTryP12Il2CppObjectRK3Rayfi
nii:_Text_get_verticalOverflow_m3134063496
Wxd:__ZN6il2cpp6icalls8mscorlib6System5Array13ClearInternalEP11Il2CppArrayii
lej:_GCHandle_get_Target_m2327042781
ISj:_llvm_cttz_i32
Ong:_PublicKey_DecodeDSA_m1169363495
Wmc:__ZN11IMGUIModule25GetGUIStyleScriptingClassEv
tXc:_tt_get_interface
Zyd:__ZN6il2cpp5utils9PathUtils7CombineIcEENSt3__212basic_stringIT_NS3_11char_traitsIS5_EENS3_9allocatorIS5_EEEERKSA_SC_
Pjg:_NameObjectCollectionBase_BaseGet_m667273025
ytc:__ZN9JSONWrite8TransferI13dynamic_arrayIiLj4EEEEvRT_PKc17TransferMetaFlags
w_:__Z18ConvertUTF16toUTF8PPKtS0_PPhS2_15ConversionFlags
TJd:__ZN6il2cpp2os20PathErrnoToErrorCodeERKNSt3__212basic_stringIcNS1_11char_traitsIcEENS1_9allocatorIcEEEEi
hFh:_TypeLoadException__ctor_m1903359728
M9c:__ZL16my_g_bit_nth_msfj
MUd:_KeySizes__ctor_m3526899007
tIf:_Int16_System_IConvertible_ToInt32_m191782913_AdjustorThunk
U1g:__ZL69ArgumentCache_t4810721_CustomAttributesCacheGenerator_m_FloatArgumentP21CustomAttributesCache
C5d:_EncoderReplacementFallback__ctor_m2208438262
tUa:__Z23SetupStereoFlareElementP11FlareVertexRK8Vector2fS3_S3_RK11ColorRGBA32RK10Matrix4x4fRK8Vector3fb
ua:invoke_iiiifiiii
lyf:_ReadOnlyCollection_1_System_Collections_Generic_ICollectionU3CTU3E_Remove_m3751131234_gshared
ywc:__ZN9rapidjson8internal6u64toaEyPc
bNf:_Directory_GetFiles_m4036267478
Dve:_Enum_System_IConvertible_ToType_m2669300536
dEa:__ZL19BlitFramebufferImplRN4gles23BlitFramebufferDrawQuadER9GfxDevice9TextureIDRK8Vector4f
aqd:__ZN15dense_hashtableINSt3__24pairIK10KeyWrapperIPK10Il2CppTypeEjEES6_N6il2cpp8metadata14Il2CppTypeHashEN14dense_hash_mapIS6_jSB_NS6_14EqualsComparerINSA_26Il2CppTypeEqualityComparerEEENS0_9allocatorIS8_EEE9SelectKeyESF_SH_E4findERS7_
Kwf:_ReadOnlyCollection_1_System_Collections_IList_Add_m2333231354_gshared
rNc:_UNITY_FT_List_Add
mth:_OpCodes__cctor_m939885911
W1b:__ZN14Texture2DArray11InitTextureEiii13TextureFormatb
mqj:_UriParser_InitializeAndValidate_m251943319
gZd:_SymmetricAlgorithm_set_Padding_m3081984460
Lxb:__ZN9InputAxis8TransferI18StreamedBinaryReadILb0EEEEvRT_
Pde:_ArrayList_RemoveAt_m2578928333
cGb:__Z18Transfer_BlittableI14SafeBinaryReadLb0EaEvRK29SerializationCommandArgumentsR31RuntimeSerializationCommandInfo
haj:_AnimatorControllerPlayable_INTERNAL_CALL_GetBoolString_m538178071
Qvf:_ReadOnlyCollection_1_System_Collections_IList_set_Item_m1233322304_gshared
Aqj:_GeneralNames_get_DNSNames_m2721668874
tve:_Enum_System_IConvertible_ToByte_m38374586
yvf:_ReadOnlyCollection_1_System_Collections_Generic_IListU3CTU3E_RemoveAt_m1592158292_gshared
fWj:_emscripten_glFrustum__wrapper
Wfg:_ReceiveRecordAsyncResult_get_CompletedWithError_m2670396551
Gse:_Decimal_Equals_m1798565377
cqh:_TypeBuilder_check_created_m2929267877
eRa:__Z20SyncFenceCullResultsR11CullResults
EFa:__ZN15TextureTFMethod20IsBoneCountSupportedEi
jD:__ZN26AnimatorControllerPlayable9GotoStateEiifff
vOh:_GUISkin_set_horizontalScrollbarThumb_m2119687595
kdh:_ObjRef__ctor_m1486312270
Hpe:_DateTime_System_IConvertible_ToSByte_m2575078084_AdjustorThunk
BJb:__Z22TransferField_NonArrayI17RemapPPtrTransfer27Converter_SimpleNativeClassI8GUIStyleEEvRK23StaticTransferFieldInfoR31RuntimeSerializationCommandInfoRT0_
b1i:_AnimatorStateInfo_IsTag_m1529621725_AdjustorThunk
c0b:__ZNK17AnimationCurveTplIfE20EvaluateWithoutCacheEfRf
aId:__ZN6il2cpp2os6Thread12QueueUserAPCEPFvPvES2_
fRh:_GUIStyleState__ctor_m3611888666
Rof:_Collection_1_IsValidItem_m1304951912_gshared
_7b:__ZN4Mesh10SetNormalsEPK8Vector3fj
ZJc:__Z66Register_UnityEngine_Physics2D_INTERNAL_CALL_GetRayIntersectionAllv
Ule:_Convert_ToDateTime_m4161927553
iqh:_TypeBuilder_GetConstructors_m774120094
bEc:__ZNSt3__26vectorIxNS_9allocatorIxEEE6assignIPxEENS_9enable_ifIXaasr21__is_forward_iteratorIT_EE5valuesr16is_constructibleIxNS_15iterator_traitsIS7_E9referenceEEE5valueEvE4typeES7_S7_
or:__ZN17AnimationCurveTplIfE8TransferI14SafeBinaryReadEEvRT_
Zwe:_Calendar_get_EraNames_m452820602
xrb:__ZNSt3__26vectorIN15QualitySettings14QualitySettingENS_9allocatorIS2_EEE6assignIPS2_EENS_9enable_ifIXaasr21__is_forward_iteratorIT_EE5valuesr16is_constructibleIS2_NS_15iterator_traitsIS9_E9referenceEEE5valueEvE4typeES9_S9_
uSa:__ZNK19ShaderPropertySheet11HasPropertyERKN9ShaderLab16FastPropertyNameE
spe:_DateTime_System_IConvertible_ToByte_m2670443498_AdjustorThunk
b5:__Z16AsyncReadRequestP16AsyncReadCommand
m6f:_BigInteger_op_Addition_m1734797151
KRi:__Z110RuntimeInvoker_Boolean_t3825574718_Vector2_t2243707579_Vector2_t2243707579_Single_t2076509932_SByte_t454417549PK10MethodInfoPvPS2_
Mdf:_List_1_CheckMatch_m1814522134_gshared
Dqh:_EnumBuilder_CreateNotSupportedException_m62763134
$Vd:_RijndaelManagedTransform_TransformBlock_m2558865851
ELh:_GUILayoutUtility_Layout_m3812180708
Cxb:__ZN9InputAxis8TransferI14SafeBinaryReadEEvRT_
l2:__ZNK21ExecutionOrderManager30GetCustomAwakeFromLoadQueueForEPKN5Unity4TypeE
f9c:__Z27RegisterModule_UnityConnectv
otd:__ZN6il2cpp2vm10Reflection27GetCustomAttributesCacheForEP25Il2CppReflectionParameter
PCh:_Scheduler_Remove_m1930366072
R2i:_Bounds_get_size_m1728027642_AdjustorThunk
_dh:_RealProxy__ctor_m3041043303
AEf:_NumberFormatter_Init_m2654758994
oUd:_HMACSHA1__ctor_m1168389339
UK:__ZN10ObjectPoolIN4FMOD12ChannelGroupENS0_13ChannelGroupIEE7SetSizeEi
g_f:_PrimalityTest_BeginInvoke_m966469054
pzf:_ReadOnlyCollection_1_System_Collections_Generic_ICollectionU3CTU3E_Clear_m1785953911_gshared
hIh:_UInt64_System_IConvertible_ToInt16_m2797150165_AdjustorThunk
E4e:_Array_InternalArray__get_Item_TisLabelData_t3712112744_m863115768_gshared
ZJf:_Int32_Parse_m753946802
oEc:__ZN19CollisionListener2D15ProcessContactsEP10Collider2Db
EZb:__ZN9Polygon2D7SetPathEiRK13dynamic_arrayI8Vector2fLj4EE
Ejf:_List_1_RemoveAt_m2331128844_gshared
Zud:__ZN14dense_hash_mapI10KeyWrapperINSt3__24pairIPK9EventInfoP11Il2CppClassEEEj17ReflectionMapHashIS8_ENS9_14EqualsComparerINS1_8equal_toIS8_EEEENS1_9allocatorINS2_IKS9_jEEEEE15set_deleted_keyERSH_
Uth:_UnmanagedMarshal_ToMarshalAsAttribute_m3695569337
wHb:__Z14resize_trimmedINSt3__26vectorI17AnimationCurveTplIfE13stl_allocatorIS3_L18MemLabelIdentifier1ELi16EEEEEvRT_j
F2a:__ZN25CameraStackRenderingState19SetupLastEyeCamerasERK11CameraStack
ihb:__Z12GUIDToStringRK9UnityGUID
_G:__ZN11SoundHandleC2ERKS_
Hai:_Mask_OnEnable_m501850981
xgd:__ZNK6il2cpp5utils11collections13ArrayValueMapIPK10Il2CppType17Il2CppInteropData26InteropDataToTypeConverterNS_8metadata14Il2CppTypeLessENS8_26Il2CppTypeEqualityComparerEE10find_firstERKS5_
Orh:_GenericTypeParameterBuilder_GetGenericTypeDefinition_m2936287336
NZf:_BigInteger_op_Addition_m1196561843
Lgj:_FormatterData__ctor_m3974986124
_Vd:_RijndaelManagedTransform_get_CanReuseTransform_m3735256596
Rge:_Comparer__cctor_m1327316974
YMf:_MonoIO_ExistsFile_m1421941572
Rqe:_DateTime_op_GreaterThanOrEqual_m3818963848
sy:__ZN17AnimationPlayable18DeallocateBindingsEv
aIe:_DefaultControls_SetDefaultTextValues_m1707718380
$De:_TouchInputModule_UseFakeInput_m2112019004
bAe:_EventSystem_get_baseEventDataCache_m4294741599
$lb:__ZN14RenderSettings18TransferDeprecatedI14SafeBinaryReadEEvRT_
YX:__ZN12TLSAllocatorI14StackAllocatorE8AllocateEji
j3:__ZN16ScriptingManager18GetMonoScriptCacheEi
IMh:_GUIStyle_get_stretchHeight_m3396762700
ifd:__ZN13dynamic_arrayIPK10Il2CppTypeLj4EEC2ERKS3_
pDa:__ZNSt3__227__insertion_sort_incompleteIR25ValueParameterArraySorterPN20GpuProgramParameters14ValueParameterEEEbT0_S6_T_
gMe:_GridLayoutGroup_CalculateLayoutInputHorizontal_m2355123124
hGb:__Z18Transfer_BlittableI14SafeBinaryReadLb1EyEvRK29SerializationCommandArgumentsR31RuntimeSerializationCommandInfo
mqc:__ZN8JSONRead8TransferIfEEvRT_PKc17TransferMetaFlagsb
Nji:_U3CGetEnumeratorU3Ec__Iterator0_Reset_m2980566576_gshared
rRj:__ZNSt3__212basic_stringIcNS_11char_traitsIcEENS_9allocatorIcEEE6appendEPKcj
QAg:__ZL54TypeBuilder_t3308873219_CustomAttributesCacheGeneratorP21CustomAttributesCache
Tka:__ZN6prcoreL17RemapGenericFloatI18TexFormatARGBFloat17TexFormatRGBAHalfEEvPKNS_9InnerInfoE
pqf:_Collection_1_CheckWritable_m691269733_gshared
frh:_GenericTypeParameterBuilder_GetAttributeFlagsImpl_m3338182267
gQ:__ZN13Simd4iFactoryIN6detail9FourTupleEEC2Eiiii
qRf:_SynchronizedReader__ctor_m1408327515
hBf:_ReadOnlyCollection_1_System_Collections_IList_Clear_m1858417639_gshared
aOa:__ZZ23InitPlayerLoopCallbacksvEN38PostLateUpdateShaderHandleErrorsstruct7ForwardEv
xpb:__ZN15SerializeTraitsI33EnlightenTerrainChunksInformationE8TransferI14SafeBinaryReadEEvRS0_RT_
NGc:__ZN6b2Body12SetTransformERK6b2Vec2f
I2b:__ZNK32RendererMaterialAnimationBinding9BindValueER6ObjectRKN11UnityEngine9Animation14GenericBindingERNS3_10BoundCurveE
BDi:__Z112RuntimeInvoker_Int32_t2071877448_Il2CppObject_Int32_t2071877448_Int32_t2071877448_Il2CppObject_Int32_t2071877448PK10MethodInfoPvPS2_
Svb:__Z13GetIAnimationv
Dpa:__ZL18stbir__support_onef
vcf:_List_1_System_Collections_IList_Remove_m2040310137_gshared
ksc:__Z26Transfer_UnityEngineObjectI9JSONWriteLb0EEvRK29SerializationCommandArgumentsR31RuntimeSerializationCommandInfo
Nba:__ZN9ShaderLab4Pass9ApplyPassEjPK19ShaderPropertySheetR17ShaderPassContextP6ShaderiPKNS_10GrabPassesEPNS_11SubProgramsE
I5d:_EncoderReplacementFallback_CreateFallbackBuffer_m3579126537
oHh:_UInt32_System_IConvertible_ToInt16_m2251335934_AdjustorThunk
w$c:__ZNSt3__27__sort5IRNS_6__lessIN2UI14DepthSortEntryES3_EEPS3_EEjT0_S7_S7_S7_S7_T_
hdd:__ZN14dense_hash_mapI10KeyWrapperIPKcEP11Il2CppClassN6il2cpp5utils11StringUtils12StringHasherIS2_EENS3_14EqualsComparerINS8_21CaseSensitiveComparerEEENSt3__29allocatorINSE_4pairIKS3_S5_EEEEE13set_empty_keyERSH_
cyi:__Z31RuntimeInvoker_Void_t1841601450PK10MethodInfoPvPS2_
n9d:_Boolean_System_IConvertible_ToType_m3990189691
LHc:__ZN17PolygonCollider2D12SetPolygon2DEP9Polygon2D
Da:invoke_vdd
PHd:__ZN6il2cpp2os6ThreadC2EPNS0_10ThreadImplE
CHc:__ZNK17PolygonCollider2D26GetTypeInfoVirtualInternalEv
Tue:_Double_System_IConvertible_ToUInt32_m624993430
Dn:FUNCTION_TABLE_fiif
Z0b:__ZNK30SpriteRendererAnimationBinding12GetPPtrValueERKN11UnityEngine9Animation10BoundCurveE
NCh:_Scheduler_Add_m376749205
Ide:_ArrayList_IndexOf_m2092981366
K1b:__Z14RandomRotationP9Texture2DPhiiii
EIe:_OptionDataList__ctor_m613113846
fhf:_List_1_System_Collections_IList_Insert_m2036969360_gshared
IPe:_InputField_GetUnclampedCharacterLineFromPosition_m1912794077
ore:_DateTimeOffset_ToString_m2121173678_AdjustorThunk
kj:_JS_WebRequest_SetResponseHandler
j0j:_glDeleteProgram__wrapper
Edc:__Z50Register_UnityEngine_Camera_INTERNAL_get_pixelRectv
I9i:_AnimationOffsetPlayable_set_position_m3583285645
jka:__ZN6prcoreL18BlitFloatToIntegerERK14ImageReferenceRS0_
H3f:_X509CertificateCollection_get_Item_m410866272
PMh:_Rect_get_yMax_m2915146103
SS:__ZN11UnityEngine15CloudWebService14RestDownloader17OnCompleteContentEv
Vod:__ZN15dense_hashtableINSt3__24pairIK10KeyWrapperINS1_IPK14Il2CppAssemblyP11Il2CppClassEEEjEES9_17ReflectionMapHashIS8_EN14dense_hash_mapIS9_jSD_NS9_14EqualsComparerINS0_8equal_toIS8_EEEENS0_9allocatorISB_EEE9SelectKeyESI_SK_E15insert_noresizeERKSB_
Ra:invoke_viffi
Gs:__ZN11UnityEngine9Animation40SetFlattenedSkeletonTransformsMainThreadER9TransformRKNS0_21AvatarBindingConstantEb
s$:__ZNSt3__26vectorI20ProcessCallbackGroupNS_9allocatorIS1_EEEC2ERKS4_
kA:__ZN17AnimationPlayable28UpdateInternalStateRecursiveILi1ELb0EEEvPK35AnimationPlayableEvaluationConstant
Ua:invoke_vifff
fgc:__Z53Register_UnityEngine_Input_INTERNAL_get_mousePositionv
Ue:_emscripten_request_fullscreen
cX:__ZN20LocalFileSystemWebGL6DeleteER13FileEntryDatab
sse:_Decimal_System_IConvertible_ToUInt16_m1621568250
We:_emscripten_glDisableVertexAttribArray
Ym:FUNCTION_TABLE_iiiifiiii
IDh:_TimeSpan_get_TotalMinutes_m1645177229_AdjustorThunk
qc:invoke_fifffi
oAa:__ZN4gles23ClearCurrentFramebufferEP7ApiGLESbbbRK10ColorRGBAffi
dz:__ZN7mecanim12statemachine20CreateStateWorkspaceEjjjRNS_6memory9AllocatorE
u2c:__Z64Register_UnityEngine_CanvasRenderer_SplitIndiciesStreamsInternalv
ff:_emscripten_glDeleteObjectARB
ag:_IMG_Load
gSf:_UnexceptionalStreamReader_Read_m3839775235
rjc:__Z53Register_UnityEngine_RenderTexture_Internal_GetHeightv
kla:__ZN6prcoreL17RemapGenericFloatI17TexFormatRGBAHalf18TexFormatARGBFloatEEvPKNS_9InnerInfoE
zve:_Enum_System_IConvertible_ToInt32_m2459904362
ymc:__ZNK8GUIStyle21DrawWithTextSelectionER8GUIStateRK5RectTIfER10GUIContentbbbbbiiRK10ColorRGBAfSA_
Mmc:__Z14GetBuiltinSkini
n5d:_DecoderReplacementFallbackBuffer_Reset_m2576819665
Zye:_BaseInput_set_compositionCursorPos_m2632248731
vHj:_Enumerator_System_Collections_IEnumerator_Reset_m2573763156_gshared
nUf:_MonoType_GetConstructors_internal_m2709619723
M$d:_WindowsIdentity_Dispose_m2649088337
rXb:__ZN2UI13RectTransform23VirtualRedirectTransferER14SafeBinaryRead
BCj:_InvokableCall_1__ctor_m54675381_gshared
NO:__ZZL31InitializeAudioManagerCallbacksvEN33FixedUpdateAudioFixedUpdatestruct7ForwardEv
YTb:__ZNSt3__26vectorIN9ShaderLab20SerializedSubProgramENS_9allocatorIS2_EEE6assignIPS2_EENS_9enable_ifIXaasr21__is_forward_iteratorIT_EE5valuesr16is_constructibleIS2_NS_15iterator_traitsIS9_E9referenceEEE5valueEvE4typeES9_S9_
duc:__Z18Transfer_BlittableI8JSONReadLb0E8BitFieldEvRK29SerializationCommandArgumentsR31RuntimeSerializationCommandInfo
lfh:_SoapServices_RegisterInteropXmlType_m2949236705
T7a:__ZN17PersistentManagerC2Eii
$Nb:__ZL17Transfer_GUIStyleI18StreamedBinaryReadILb1EELb0EEvRK29SerializationCommandArgumentsR31RuntimeSerializationCommandInfo
g4d:_String_CharCopy_m2550399897
d_b:__ZN11TypeManager20RegisterNonClassTypeEiP4RTTIPKcS3_
lSb:__ZN9ShaderLab14SerializedPass8TransferI14SafeBinaryReadEEvRT_
Enc:__Z71Register_UnityEngine_GUILayoutUtility_INTERNAL_CALL_Internal_MoveWindowv
GO:__ZN12AudioManager16SetListenerPauseEb
OHc:__ZThn160_N17PolygonCollider2DD0Ev
jDc:__ZNSt3__26__sortIRN10ClipperLib12LocMinSorterEPNS1_12LocalMinimumEEEvT0_S6_T_
gzd:__ZN6il2cpp2vm9Exception25RaiseOutOfMemoryExceptionERKNS_5utils10StringViewIDsEE
eof:_Collection_1_IsValidItem_m2254106115_gshared
rqh:_TypeBuilder_GetEvent_m3876348075
uhi:_Slider_OnMove_m641164662
ea:invoke_viiiiiiiiiii
TNj:___syscall_ret
QCh:_Scheduler__ctor_m3716265742
L0f:_MACAlgorithm_Final_m4076939925
IZb:__ZN14qsort_internal30FindAndMovePivotToLastPositionIP8Vector2fi26PointDistanceSortPredicateEEvT_S4_T0_T1_
U4c:__Z56Register_UnityEngine_Analytics_CustomEventData_AddDoublev
Isb:__ZN11ChannelInfo8TransferI19StreamedBinaryWriteILb0EEEEvRT_
Jli:_InternalEnumerator_1_System_Collections_IEnumerator_get_Current_m3583252352_gshared
XBb:__ZN23ArchiveStorageConverter24ReadHeaderFromMemoryFileEv
Uph:_EnumBuilder_get_FullName_m2818393911
mVa:__ZN14qsort_internal13Partition3WayIP17RODataReplacementi19ROSorterReplacementEENSt3__24pairIT_S6_EES6_S6_T0_T1_
Afc:__Z34Register_UnityEngine_Gradient_Initv
Aze:_BaseInputModule_GetAxisEventData_m3903709281
T4e:_Array_InternalArray__get_Item_TisUriScheme_t1876590943_m1821482697_gshared
S1e:_Array_Sort_TisIl2CppObject_m1954851512_gshared
p5f:_BigInteger__ctor_m3239748086
zW:__ZN13ScreenManager23SetIsOrientationEnabledE18EnabledOrientationb
Mu:__ZN7mecanim5human25HumanPoseAddOverrideLayerERNS0_9HumanPoseERKS1_fRKNS_6bitsetILj70EEE
Y$b:__ZN13ProduceHelperI9TransformLb0EE7ProduceE18MemLabelIdentifier18ObjectCreationMode
vpc:__Z45Register_UnityEngine_GUIStyle_GetFontInternalv
b6i:_Component_SendMessageUpwards_m19741277
wZe:_Array_InternalArray__ICollection_Add_TisHitInfo_t1761367055_m2956071622_gshared
k5a:__ZN10GameObject23VirtualRedirectTransferER18StreamedBinaryReadILb0EE
wg:_glFrontFace
ghh:_ObjectRecord_get_IsUnsolvedObjectReference_m2202692850
zrg:_FactoryCache_Cleanup_m4130035987
UC:__ZN26AnimatorControllerPlayable14SetLayerWeightEif
__b:__ZN13ProduceHelperI19LowerResBlitTextureLb0EE7ProduceE18MemLabelIdentifier18ObjectCreationMode
B_a:__ZNSt3__26vectorI16ShadowCasterData13stl_allocatorIS1_L18MemLabelIdentifier2ELi16EEE21__push_back_slow_pathIKS1_EEvRT_
gkd:__ZN6il2cpp6icalls8mscorlib6SystemL16GetFieldFromTypeINS_5utils10functional6FilterINSt3__212basic_stringIcNS7_11char_traitsIcEENS7_9allocatorIcEEEENS4_11StringUtils23CaseInsensitiveComparerEEEEEP21Il2CppReflectionFieldP11Il2CppClassSK_iRKT_
pDj:_UnityAction_1_Invoke_m1279802577_gshared
SHh:_UInt32_ToString_m1783596809
bxj:_Vector3_get_forward_m1201659139
WZc:__Z51Register_UnityEngine_TextGenerator_GetLinesInternalv
QHj:_HashSet_1_Init_m1258286688_gshared
J3f:_X509CertificateEnumerator_System_Collections_IEnumerator_get_Current_m1643583406
atj:_X509ExtensionCollection_get_Item_m4212651995
Qwf:_ReadOnlyCollection_1_System_Collections_IList_RemoveAt_m525136953_gshared
h5i:_Collision2D_get_gameObject_m4234358314
Znd:__ZNSt3__26vectorIN6il2cpp2vm17TypeNameParseInfoENS_9allocatorIS3_EEEC2ERKS6_
XHh:_UInt64_System_IConvertible_ToBoolean_m3012279573_AdjustorThunk
LFh:_Type_get_IsGenericTypeDefinition_m2147901038
pLa:__ZN12HandlerChain10ToAbsoluteEPKc
YDf:_GregorianCalendar__ctor_m3794576475
NHh:_UInt32_TryParse_m4283512434
RG:__ZN9AudioClip11CreateSoundEv
x_h:_ShimEnumerator_MoveNext_m3313047792_gshared
Sof:_Collection_1_ConvertItem_m2185647560_gshared
nEh:_TimeSpan_op_Inequality_m257547441
ABh:_ExecutionContext_GetObjectData_m1456913356
lvd:__ZN14dense_hash_mapI10KeyWrapperINSt3__24pairIPK9FieldInfoP11Il2CppClassEEEj17ReflectionMapHashIS8_ENS9_14EqualsComparerINS1_8equal_toIS8_EEEENS1_9allocatorINS2_IKS9_jEEEEEC2EjRKSB_RKSF_
OUh:_Object_set_hideFlags_m2204253440
SEa:__ZN4gles13UploadTextureEP7ApiGLESR11GLESTexture13TextureFormatPKvjiiiij17TextureColorSpace16TextureUsageMode
fYb:__Z10tesvertLeqP10TESSvertexS0_
HLb:__Z18Transfer_BlittableI19StreamedBinaryWriteILb0EELb0E8Vector2fEvRK29SerializationCommandArgumentsR31RuntimeSerializationCommandInfo
RFf:_DateTimeFormatInfo_get_RoundtripPattern_m562440017
y8c:__ZN11UnityEngine7Connect16PersistentValues13RestoreValuesER8JSONRead
XMa:__ZN20ArchiveStorageReader31TryToReadDirectoryFromBlockDataEyPKvj
yue:_Double_System_IConvertible_ToByte_m3004284950_AdjustorThunk
WBd:__ZN6il2cpp2vmL11GetIdentityEP14Il2CppIUnknown
k0f:_SmallXmlParser_ReadCDATASection_m2558307107
XNd:_GC_push_gc_structures
wkg:_ServicePointManager_get_ServerCertificateValidationCallback_m1409951209
eld:__ZN6il2cpp6icalls8mscorlib6SystemL8IsPublicEPK9EventInfo
zje:_Enumerator_get_Current_m1271212567
BLd:__ZThn4_N6il2cpp2vm13ComObjectBase18ReleaseMarshalDataEP13Il2CppIStream
WZa:__Z33GenerateShadowCasterPartsSortDataRK16ShadowCasterDatajRK15RenderNodeQueueRKNSt3__26vectorI20ShadowCasterPartData13stl_allocatorIS7_L18MemLabelIdentifier2ELi16EEEERK10Matrix4x4fRjP20ShadowCasterSortData
XRh:_Input_set_compositionCursorPos_m1615567306
klg:_IPAddress_ParseIPV6_m2209709575
_di:_U3CClickRepeatU3Ec__Iterator0_MoveNext_m1747924386
gDf:_Comparison_1_Invoke_m1670081898_gshared
Pii:_Toggle_set_group_m3833595685
_Re:_LayoutRebuilder_ForceRebuildLayoutImmediate_m566681977
DZe:_Array_InternalArray__ICollection_Add_TisVector4_t2243707581_m698578249_gshared
P0:__ZN8keywords6CreateEPKc
oAi:__Z89RuntimeInvoker_Il2CppObject_Il2CppObject_Int32_t2071877448_Int32_t2071877448_Il2CppObjectPK10MethodInfoPvPS2_
dLb:__ZN24GenerateTypeTreeTransfer8TransferINSt3__26vectorI17AnimationCurveTplIfE13stl_allocatorIS4_L18MemLabelIdentifier1ELi16EEEEEEvRT_PKc17TransferMetaFlags
S:Math_imul
lPh:_GUIStyle_set_active_m2896743432
fxb:__ZN14SpriteRenderer15SetupPropertiesEv
Lrb:__ZN11PlayerPrefs6GetIntERKN4core12basic_stringIcNS0_20StringStorageDefaultIcEEEEi
EZc:__Z45TextGenerator_CUSTOM_INTERNAL_get_rectExtentsP12Il2CppObjectP5RectTIfE
Ncj:_PlayableHandle_Equals_m1435096530
J9f:_CertificateValidationCallback_Invoke_m2500463874
KUe:_SetPropertyUtility_SetStruct_TisChar_t3454481338_m2333420724_gshared
hof:_Collection_1_IsSynchronized_m2601980439_gshared
Uhe:_Hashtable_ContainsKey_m2716576664
Xkj:_PatternCompiler_EmitCategory_m1696942454
Dse:_Decimal_decimalFloorAndTrunc_m3655683429
WZe:_Array_InternalArray__ICollection_CopyTo_TisInt32_t2071877448_m984622488_gshared
l_:__ZN18ScriptingArguments9AddObjectE18ScriptingObjectPtr
E1c:__Z39CanvasGroup_Get_Custom_PropInteractableP12Il2CppObject
DQ:__ZN11UnityEngine15CloudWebService16SessionContainerD2Ev
fYj:_emscripten_glStencilOpSeparate__wrapper
qWc:_cf2_getLanguageGroup
BAa:__ZN17GenericDynamicVBOC2ER9GfxDevice13GfxBufferModejj
jhj:_Context_get_HasDynamicSinks_m1998518649
GGc:__Z28GetPhysics2DScriptingClassesv
WR:__ZN11UnityEngine15CloudWebService17SessionEventQueue10PurgeItemsEj
T3a:__ZN6Camera16StandaloneRenderENS_10RenderFlagEP6ShaderRKN4core12basic_stringIcNS3_20StringStorageDefaultIcEEEE
D6d:_Array_System_Collections_IList_get_Item_m2088124007
X6d:_Array_GetLength_m2083296647
Efe:_SynchronizedArrayListWrapper_ToArray_m1522185111
ANb:__Z18Transfer_BlittableI18StreamedBinaryReadILb1EELb1EtEvRK29SerializationCommandArgumentsR31RuntimeSerializationCommandInfo
yva:__ZN9GfxDevice20DeallocRenderSurfaceEP17RenderSurfaceBase
LJh:_ValueType_ToString_m3796301715
nc:invoke_viiiififfi
wgc:__Z53Register_UnityEngine_Quaternion_INTERNAL_CALL_Inversev
RLh:_GUILayoutGroup__ctor_m992523271
Gib:__ZN12BaseRenderer23RendererBecameInvisibleEv
ILc:__ZN20TextRenderingPrivate8FontImpl13CharacterInfo8TransferI18StreamedBinaryReadILb0EEEEvRT_
uLb:__Z29Transfer_Blittable_ArrayFieldI24GenerateTypeTreeTransferfEvRT_R9ArrayInfoRK23StaticTransferFieldInfo
Dtd:__ZN14dense_hash_mapI10KeyWrapperIPK14Il2CppAssemblyEPK16MonoAssemblyNameN6il2cpp5utils11PointerHashIS2_EENS4_14EqualsComparerINSt3__28equal_toIS3_EEEENSD_9allocatorINSD_4pairIKS4_S7_EEEEEC2EjRKSB_RKSG_
P6a:__ZN19CustomRenderTexture9AddParentE4PPtrIS_E
Zqb:__ZN8Gradient8TransferI14SafeBinaryReadEEvRT_
PEj:_UnityEvent_1_Invoke_m1533100983_gshared
Aha:__ZNSt3__26vectorIN4core12basic_stringIcNS1_20StringStorageDefaultIcEEEE13stl_allocatorIS5_L18MemLabelIdentifier1ELi16EEE7reserveEj
Akg:_FileWebRequest__ctor_m4003648606
i9g:__ZL71SpriteState_t1353336012_CustomAttributesCacheGenerator_m_DisabledSpriteP21CustomAttributesCache
Bve:_Enum_System_IConvertible_ToSByte_m3488526280
CUh:_MonoBehaviour_StopAllCoroutines_m1675795839
BVf:_NumberFormatter_Init_m1022036773
RMd:_GC_new_free_list_inner
_4h:_DefaultComparer_Equals_m85211180_gshared
pUf:_MonoType_InternalGetEvent_m532443236
Pqf:_Collection_1_IndexOf_m2700825189_gshared
Puc:__ZN8JSONRead8TransferI10RectOffsetEEvRT_PKc17TransferMetaFlagsb
ER:__ZN9JSONWrite8TransferIN11UnityEngine15CloudWebService14DataErrorEvent15FileErrorDetailEEEvRT_PKc17TransferMetaFlags
M4d:_Decoder__ctor_m2623573910
Kxf:_ReadOnlyCollection_1_System_Collections_Generic_IListU3CTU3E_RemoveAt_m1731148677_gshared
NJ:__ZN12SoundManager20RegisterModifiedClipEP10SampleClip
ZBi:__Z108RuntimeInvoker_Void_t1841601450_Il2CppObject_Int64_t909078037_Il2CppObject_Int64_t909078037_Int64_t909078037PK10MethodInfoPvPS2_
lM:__ZN11AudioSource4PlayEd
oy:__ZN22AnimationMixerPlayable11DerivesFromE17ScriptingClassPtr
eed:__ZN15dense_hashtableI10KeyWrapperIPK17Il2CppGenericInstES4_N6il2cpp8metadata21Il2CppGenericInstHashEN14dense_hash_setIS4_S7_NS4_14EqualsComparerINS6_24Il2CppGenericInstCompareEEENSt3__29allocatorIS4_EEE8IdentityESB_SE_E13set_empty_keyERKS4_
P7h:_EqualityComparer_1_System_Collections_IEqualityComparer_Equals_m3589836321_gshared
w0f:_SmallXmlParser_IsNameChar_m1561000202
Urj:_X501__cctor_m2610532554
DZh:_Enumerator_VerifyState_m3173176371_gshared
Bjf:_List_1_CheckCollection_m2220107869_gshared
Tnb:__ZN7Cubemap23VirtualRedirectTransferER18StreamedBinaryReadILb0EE
kdd:__ZNK10KeyWrapperIPKcE14EqualsComparerIN6il2cpp5utils11StringUtils21CaseSensitiveComparerEEclERKS2_SA_
cYd:_SHA256_Create_m896954069
ZXc:_Read_CVT
Goe:_Convert_ToUInt32_m776714429
RJa:__ZN12FileAccessor4SeekEx10FileOrigin
uKb:__ZL26Transfer_SimpleNativeClassI24GenerateTypeTreeTransfer17AnimationCurveTplIfELb0EEvRK29SerializationCommandArgumentsR31RuntimeSerializationCommandInfo
Cfd:__ZN15dense_hashtableINSt3__24pairIK10KeyWrapperI13dynamic_arrayIPK10Il2CppTypeLj4EEEPFvvEEES8_N6il2cpp8metadata19Il2CppSignatureHashEN14dense_hash_mapIS8_SB_SF_NS8_14EqualsComparerINSE_22Il2CppSignatureCompareEEENS0_9allocatorISC_EEE9SelectKeyESJ_SL_E4swapERSO_
I7:__ZN16LightmapSettings20DidChangeActiveSceneEP10UnitySceneS1_
lnh:_Default_ReorderParameters_m1877749093
vbh:__ZL59g_AssemblyU2DCSharp_Assembly_CustomAttributesCacheGeneratorP21CustomAttributesCache
jlb:__ZNK17InstancedPropInfo15RenderInstancesERK15RenderNodeQueuePK17BatchInstanceDataj17ShaderChannelMask
qjd:__ZN6il2cpp5utils9PathUtils8BasenameIcEENSt3__212basic_stringIT_NS3_11char_traitsIS5_EENS3_9allocatorIS5_EEEERKSA_
eL:__ZN10AudioMixer11SetupGroupsEv
qnc:__Z35Register_UnityEngine_Event_get_typev
j1f:_PrivateKeyInfo_DecodeRSA_m1427048948
szd:__ZN6il2cpp2vm9Exception23GetInvalidCastExceptionERKNS_5utils10StringViewIDsEE
pmh:_Assembly_FillName_m1934025015
vPa:_UNITY_png_free
hWj:_emscripten_glDepthRange__wrapper
K2d:_String_IndexOf_m2126171214
mLf:_Int64_ToString_m1544341651_AdjustorThunk
jA:__ZN8Animator28BuildControllerPlayableCacheEv
lHf:_Guid_CheckNull_m2903986431
G2i:_Bounds__ctor_m1202659404
a2:__Z63ThreadAndSerializationSafeCheckGetMonoBehaviourBeingTransferredv
BPd:_GC_enable
Tdg:_TlsClientCertificateVerify_ProcessAsSsl3_m3377063356
pCi:__Z97RuntimeInvoker_Il2CppObject_Il2CppObject_Int32_t2071877448_Il2CppObject_Il2CppObject_Il2CppObjectPK10MethodInfoPvPS2_
tDe:_StandaloneInputModule_set_repeatDelay_m2820945738
XGh:_UInt16_ToString_m4213290405
agc:__Z37Register_UnityEngine_Input_GetAxisRawv
Ffj:_ChannelServices_RegisterChannel_m3832858065
Ive:_Enum_GetName_m1226611481
UDf:_Func_2_Invoke_m4121137703_gshared
_L:__ZN11AudioSource5ResetEv
Wsb:__ZN14Texture2DArray23VirtualRedirectTransferER18StreamedBinaryReadILb0EE
Anj:_Literal_CompileLiteral_m276843152
iXb:__ZN2UI13RectTransform13AwakeFromLoadE17AwakeFromLoadMode
YZa:__ZN14qsort_internal30FindAndMovePivotToLastPositionIP20ShadowCasterSortDatai26ShadowCasterSortDataSorterEEvT_S4_T0_T1_
pFb:__Z18Transfer_BlittableI14SafeBinaryReadLb1EiEvRK29SerializationCommandArgumentsR31RuntimeSerializationCommandInfo
qra:__ZN17PersistentManager13GetAllFileIDsERKN4core12basic_stringIcNS0_20StringStorageDefaultIcEEEER13dynamic_arrayIxLj8EE
EHi:__Z72RuntimeInvoker_Il2CppObject_IntPtr_t_Int32_t2071877448_Int32_t2071877448PK10MethodInfoPvPS2_
X7d:_Array_LastIndexOf_m4096535198
Fde:_ArrayList_Add_m1719188324
Oue:_Double_System_IConvertible_ToSByte_m1653690240_AdjustorThunk
Ek:_glGetStringi
nhh:_ObjectManager_AddFixup_m4148241867
rye:_CultureInfo_set_NumberFormat_m1618950525
rtb:__ZN18StreamedBinaryReadILb0EE21TransferSTLStyleArrayI13dynamic_arrayI8Vector4fLj4EEEEvRT_17TransferMetaFlags
hpg:_X509Store__ctor_m1573680316
f8h:_EqualityComparer_1__cctor_m1011898363_gshared
rEe:_AnimationTriggers__ctor_m2623627182
rXe:_Array_InternalArray__IndexOf_TisClientCertificateType_t4001384466_m1168139450_gshared
UTa:__ZN9Coroutine16SetCurrentMethodE18ScriptingMethodPtr
ys:__ZN8Animator9WriteStepEv
Nrb:__ZNSt3__23mapIN4core12basic_stringIcNS1_20StringStorageDefaultIcEEEE9PrefValueNS_4lessIS5_EENS_9allocatorINS_4pairIKS5_S6_EEEEEixERSB_
Wkc:__ZN15DirectorManager22ConstructPlayableGraphEv
$Yd:_SymmetricAlgorithm_set_IV_m4262655606
Phi:_StencilMaterial__cctor_m2963056855
Ynh:_CustomAttributeNamedArgument_GetHashCode_m3715408876_AdjustorThunk
LZc:__Z38Register_UnityEngine_Font_HasCharacterv
Bog:_X509Certificate2_AppendBuffer_m3517242299
W1a:__Z35IntersectSpherePlaneBoundsOptimizedRKN4math7_float4EPS1_i
nye:_CultureInfo_get_IsNeutralCulture_m3874876470
rte:_Delegate_CreateDelegate_m3813023227
Lpj:_Uri_get_AbsoluteUri_m2120317928
D8b:__ZNK9Texture2D17CheckHasPixelDataEv
tHe:_ColorTween_TweenValue_m3279916815
l7:__Z22CleanupLODGroupManagerPv
xZe:_Array_InternalArray__ICollection_Add_TisContentType_t1028629049_m2984242302_gshared
mnc:__Z21Event_CUSTOM_PopEventP12Il2CppObject
ml:_glUniform3fv
Jzb:__ZNSt3__218__insertion_sort_3IRN15ResourceManager10Dependency6SorterEPS2_EEvT0_S6_T_
d9e:_Enumerator_System_Collections_IEnumerator_Reset_m3796537546_AdjustorThunk
iZc:_UNITY_FT_Init_Class_tt_service_gx_multi_masters
_Tf:_IntComparer_Compare_m3057931085
FYa:__ZNK16LightmapSettings31GetRealtimeLightmapDecodeValuesEv
BL:__ZN5audio5mixer12SetSuspendedERNS0_16AudioMixerMemoryEb
ena:__ZN17PersistentManager21UnloadNonDirtyStreamsEv
jAd:__ZN6il2cpp2vm13LivenessStateC2EP11Il2CppClassjPFvPP12Il2CppObjectiPvES7_PFvvESB_
hSa:__ZN12ImageFilters4BlitER17ShaderPassContextP7TextureP13RenderTextureiPK18SharedMaterialDataPKcP6ShaderiNS_9BlitFlagsE11CubemapFaceRK8Vector2fSH_
Rmg:_Oid__ctor_m1936781897
fVh:_Object_INTERNAL_CALL_Internal_InstantiateSingleWithParent_m1401308849
sdj:_ResourceSet__ctor_m1222864106
qmf:_Collection_1_System_Collections_IList_get_Item_m3376056117_gshared
Jl:_emscripten_glDepthMask
c9e:_Enumerator_VerifyState_m3639069574_gshared
GBa:__ZN4crnd25static_huffman_data_model22prepare_decoder_tablesEv
Qlf:_Enumerator_MoveNext_m689054299_gshared
L1e:_Array_Sort_TisIl2CppObject_TisIl2CppObject_m1915706600_gshared
V5f:_ModulusRing_Difference_m662924064
XFe:_CanvasUpdateRegistry_ObjectValidForUpdate_m855695984
LOe:_InputField_set_onValueChanged_m2406388125
kZ:__ZL22CleanupUnityWebStreamsPv
jWg:__ZL92AudioSource_t1135106623_CustomAttributesCacheGenerator_AudioSource_Play_m889724421____delay0P21CustomAttributesCache
GPb:__Z18Transfer_BlittableI18StreamedBinaryReadILb0EELb0E10ColorRGBAfEvRK29SerializationCommandArgumentsR31RuntimeSerializationCommandInfo
rjg:_ListDictionary_Add_m4276262662
N7:__Znaj
AWd:_RIPEMD160Managed_GGG_m1639995340
J0j:_emscripten_glEnableClientState__wrapper
xZ:__ZN17MessageIdentifierC2EPKcNS_7OptionsEPKN5Unity4TypeES1_
yE:__Z76AnimatorControllerPlayable_CUSTOM_INTERNAL_CALL_CrossFadeInFixedTimeInternalR9HPlayableifif
U$h:_Enumerator_System_Collections_IEnumerator_get_Current_m1648049763_gshared
EUe:_Enumerable_Any_TisIl2CppObject_m2208185096_gshared
Q6d:_Array_System_Collections_IList_Remove_m2438892375
TQf:_TextWriter__ctor_m2225796097
xdb:__ZN14SafeBinaryRead8TransferI14ConstantStringEEvRT_PKc17TransferMetaFlags
Ntj:_ScriptableObject_Internal_CreateScriptableObject_m1778903390
Hea:__ZNK6Camera16GetStereoEnabledEv
k2b:__ZN12LightManager15InitializeClassEv
Hfa:__ZN9ShaderLab11shaderprops16GetComputeBufferEPK19ShaderPropertySheetS3_NS_16FastPropertyNameE
G3:__ZN23ManagedAttributeManager35CallManagedGetDefaultExecutionOrderE17ScriptingClassPtr
ibc:__ZN18ScriptingArgumentsC2Ev
vEh:_TimeZone_IsDaylightSavingTime_m875882154
dYj:_emscripten_glBlendFuncSeparate__wrapper
Kag:_CipherSuiteCollection_System_Collections_IList_set_Item_m750275607
BTa:__ZNK25CameraStackRenderingState27GetStereoImageEffectTextureEb
JXd:_SHA1CryptoServiceProvider__ctor_m3127563759
Tp:__ZN8Vector3f8TransferI14SafeBinaryReadEEvRT_
s9b:__ZN13BuildSettings13GetSceneIndexERKN4core12basic_stringIcNS0_20StringStorageDefaultIcEEEE
Zah:__ZL103BaseVertexEffect_t2504093552_CustomAttributesCacheGenerator_BaseVertexEffect_ModifyVertices_m3446986347P21CustomAttributesCache
Co:FUNCTION_TABLE_ii
H0h:_Enumerator_MoveNext_m335649778_AdjustorThunk
qT:__ZNSt3__26__treeINS_12__value_typeIN4core12basic_stringIcNS2_20StringStorageDefaultIcEEEES6_EENS_19__map_value_compareIS6_S7_NS_4lessIS6_EELb1EEENS_9allocatorIS7_EEE16__construct_nodeERKNS_4pairIKS6_S6_EE
Qrc:__Z18Transfer_BlittableI9JSONWriteLb0E8BitFieldEvRK29SerializationCommandArgumentsR31RuntimeSerializationCommandInfo
Zvd:__ZNK15dense_hashtableINSt3__24pairIK10KeyWrapperINS1_IP11Il2CppClassjEEES4_EES6_N6il2cpp8metadata14ArrayClassHashEN14dense_hash_mapIS6_S4_SB_NS6_14EqualsComparerINSA_17ArrayClassCompareEEENS0_9allocatorIS8_EEE9SelectKeyESF_SH_E10test_emptyEj
yWj:b44
hye:_CultureInfo_get_TextInfo_m1582311326
S6b:__ZNK6Sprite15GenerateOutlineEfhbRNSt3__26vectorI13dynamic_arrayI8Vector2fLj4EENS0_9allocatorIS4_EEEEi
NQh:_GUIStyle_get_contentOffset_m1904924583
G_h:_ShimEnumerator_get_Key_m616785465_gshared
a0f:_SmallXmlParser_Error_m1832158746
Dk:_glDeleteVertexArrays
P9a:__Z24CreateDirectoryRecursiveRKN4core12basic_stringIcNS_20StringStorageDefaultIcEEEE
vWj:b41
TUb:__ZN9ShaderLab20SerializedSubProgram8TransferI18StreamedBinaryReadILb0EEEEvRT_
tQf:_StreamAsyncResult_get_AsyncWaitHandle_m4218169359
Blc:__Z22MonoGUIContentToNative18ScriptingObjectPtrR10GUIContent
W4e:_Array_InternalArray__get_Item_TisContactPoint2D_t3659330976_m825151777_gshared
n_c:__ZN2UI13CanvasManager9AddCanvasEPNS_6CanvasE
bqa:__ZN9Texture3D8TransferI19StreamedBinaryWriteILb0EEEEvRT_
PUa:__ZNK6Camera22CalculateRenderingPathEv
etc:__ZN9JSONWrite8TransferI5RectTIfEEEvRT_PKc17TransferMetaFlags
ju:__ZN11UnityEngine9Animation37SetGenericRootTransformPropertyValuesERKNS0_30AnimatorGenericBindingConstantERKN7mecanim10ValueArrayER9Transformbb
tbj:_AnimatorControllerPlayable_INTERNAL_CALL_GetCurrentAnimatorClipInfoInternal_m3542665271
oJb:__ZL12InvokeMethodI17RemapPPtrTransferEvRK29SerializationCommandArgumentsR31RuntimeSerializationCommandInfo
y3f:_X509Certificate_get_PublicKey_m714501701
BRc:_tt_sbit_decoder_load_image
Z2d:_String_LastIndexOf_m290475879
Tlc:__ZNSt3__24listIN10GUIManager12SortedScriptE11memory_poolIS2_EE6__sortI13OldSortScriptEENS_15__list_iteratorIS2_PvEESA_SA_jRT_
$Hh:_UInt64_System_IConvertible_ToChar_m1930853313_AdjustorThunk
Odg:_TlsClientCertificate_SendCertificates_m1096074091
Gie:_SyncHashtable_get_Item_m408601391
Pxf:_ReadOnlyCollection_1_System_Collections_IEnumerable_GetEnumerator_m1401363518_gshared
bdb:__ZNK9Behaviour26GetTypeInfoVirtualInternalEv
Wlf:_Stack_1_System_Collections_ICollection_CopyTo_m2104527616_gshared
jzh:_StringBuilder_AppendFormat_m1666670800
Y_a:__ZN18DeferredRenderLoop13RenderGBufferEP13RenderTexturePS1_b8JobFencePK25DeferredRenderLoopScratchRi
ryd:__ZN6il2cpp6icalls8mscorlib6System9ThreadingL11ThreadStartEPv
F$:__ZN15DirectorManager12OnSampleTimeEv
fAf:_ReadOnlyCollection_1_System_Collections_IList_Remove_m3878418841_gshared
QOe:_InputField_EnforceContentType_m1902926812
iA:__ZN8Animator13ClearBindingsEv
eea:__ZN12CachedReader10Align4ReadEv
REc:__ZN15b2WorldManifold10InitializeEPK10b2ManifoldRK11b2TransformfS5_f
eOi:__Z154RuntimeInvoker_RaycastHit2D_t4063908774_Vector2_t2243707579_Vector2_t2243707579_Single_t2076509932_Int32_t2071877448_Single_t2076509932_Single_t2076509932PK10MethodInfoPvPS2_
Mzd:__ZN6il2cpp2vm9Exception28GetMarshalDirectiveExceptionEPKc
dVf:_MulticastDelegate_GetObjectData_m3187757658
PAf:_ReadOnlyCollection_1_System_Collections_IList_get_Item_m887129009_gshared
cWa:__Z21GetScriptingArraySize17ScriptingArrayPtr
$Kc:__ZN20TextRenderingPrivate8FontImpl8TransferI14SafeBinaryReadEEvRT_
hia:__Z35UnityPropertySheet_MakeSortedColorsRKNSt3__23mapIN9ShaderLab16FastPropertyNameE10ColorRGBAfNS_4lessIS2_EENS_9allocatorINS_4pairIKS2_S3_EEEEEER10vector_mapIS2_S3_S5_NS6_INS7_IS2_S3_EEEEE
SPh:_GUIStyle_Draw_m4006459684
qwa:__ZN9GfxDevice17ImmediateTexCoordEifff
Ulj:_Parser_ParseRegularExpression_m2390577313
ODc:__ZN10ClipperLib7Clipper13AppendPolygonEPNS_5TEdgeES2_
nWf:_OperatingSystem_Clone_m1943707477
Ypg:_X509CertificateEnumerator_System_Collections_IEnumerator_Reset_m327358896
h$d:_Hash__ctor_m2554411450
TYd:_SHAConstants__cctor_m2781430679
Q0d:_Single_System_IConvertible_ToDateTime_m2510003459_AdjustorThunk
Kte:_Delegate_RemoveImpl_m3666700529
ZVj:_emscripten_glUniform4f__wrapper
Ljg:_NameObjectCollectionBase_OnDeserialization_m3478980442
COe:_InputField_set_caretColor_m2252440840
aB:__ZN8Animator8TransferI19StreamedBinaryWriteILb0EEEEvRT_
yXa:__ZNK6Camera16GetProjectionFarEv
$3a:__Z24InverseTransformRotationRK23TransformAccessReadOnlyRKN4math7_float4E
mHg:__ZL68SecurityCriticalAttribute_t2312050089_CustomAttributesCacheGeneratorP21CustomAttributesCache
fM:__ZN11AudioSource6UpdateEv
DXe:_Array_InternalArray__IndexOf_TisSlot_t2267560602_m1912863273_gshared
k9c:__Z31GetPerformanceReportingSettingsv
gqa:__ZN7Texture34CreateFileTextureUploadInstructionE18TextureUploadFlagsj
YRa:__ZN13ComputeShader14SetBufferParamEjRKN9ShaderLab16FastPropertyNameE15ComputeBufferID
Sze:_EventSystem_get_current_m319019811
Uzf:_ReadOnlyCollection_1_System_Collections_Generic_IListU3CTU3E_Insert_m3054305464_gshared
TA:__ZN8Animator8TransferI14SafeBinaryReadEEvRT_
UXe:_Array_InternalArray__IndexOf_TisTypeTag_t141209596_m2882894956_gshared
$gi:_Slider_get_value_m4182660424
Dxc:__ZNK14b2CapsuleShape5CloneEP16b2BlockAllocator
gx:__ZN17AnimationPlayable34CollectAnimatorControllerPlayablesER13dynamic_arrayIP26AnimatorControllerPlayableLj4EE
mP:__ZN16BaseVideoTexture19UpdateVideoTexturesEv
mlb:__Z28BuildSingleStreamChannelInfo17ShaderChannelMaskRK20VertexChannelsLayoutS_S2_P11ChannelInfo
dOi:__Z79RuntimeInvoker_RaycastHit2D_t4063908774_Vector2_t2243707579_Vector2_t2243707579PK10MethodInfoPvPS2_
Loa:__ZNK16LightmapSettings23HasLightProbeTetrahedraEv
$cg:_Context_get_WriteSequenceNumber_m243492531
Vrb:__ZN6Sprite23VirtualRedirectTransferER19StreamedBinaryWriteILb0EE
aBg:__ZL51Assembly_t4268412390_CustomAttributesCacheGeneratorP21CustomAttributesCache
R2d:_String_LastIndexOfAny_m1473637802
Bjc:__Z38Transform_CUSTOM_INTERNAL_set_positionP12Il2CppObjectRK8Vector3f
Qpd:__ZNK15dense_hashtableINSt3__24pairIK10KeyWrapperINS1_IPK9FieldInfoP11Il2CppClassEEEjEES9_17ReflectionMapHashIS8_EN14dense_hash_mapIS9_jSD_NS9_14EqualsComparerINS0_8equal_toIS8_EEEENS0_9allocatorISB_EEE9SelectKeyESI_SK_E5beginEv
cId:__ZN6il2cpp2os6Thread15CurrentThreadIdEv
qt:__ZN15SerializeTraitsIN4math4trsXEE8TransferI8BlobSizeEEvRS1_RT_
Fza:__ZN14DataBufferGLES11CopySubDataEPKS_jjj
me:_emscripten_glVertexPointer
VIa:__ZNSt3__26__treeI20DeviceDepthStateGLES11memcmp_lessIS1_S1_ENS_9allocatorIS1_EEE7destroyEPNS_11__tree_nodeIS1_PvEE
b0c:__ZN2UI13PrepareOutputERNS_7BatchesEjjNS_30AdditionalCanvasShaderChannelsE
F_a:__Z17GetFrustumPortionPK8Vector3fffPS_
QJi:__Z72RuntimeInvoker_Il2CppObject_Il2CppObject_Decimal_t724701077_Il2CppObjectPK10MethodInfoPvPS2_
sBd:__ZN15dense_hashtableINSt3__24pairIK10KeyWrapperIP14Il2CppIUnknownEjEES5_N6il2cpp5utils11PointerHashIS3_EEN14dense_hash_mapIS5_jSB_NS5_14EqualsComparerINS0_8equal_toIS4_EEEENS0_9allocatorIS7_EEE9SelectKeyESG_SI_E14squash_deletedEv
oF:__Z96Register_UnityEngine_Experimental_Director_AnimatorControllerPlayable_INTERNAL_CALL_PlayInternalv
qIe:_DefaultControls_CreateDropdown_m1384069408
lCe:_PointerEventData_get_clickCount_m4064532478
xwe:_EventArgs__cctor_m1350395667
bxe:_CCGregorianCalendar_is_leap_year_m567513478
V8d:_Attribute_IsDefined_m2118467641
oSa:__ZN14GraphicsHelper8DrawQuadER9GfxDevice17ShaderChannelMaskbRK5RectTIfE
UAe:_ExecuteEvents_Execute_m898902863
Tli:_InternalEnumerator_1_System_Collections_IEnumerator_get_Current_m3125080595_gshared
Dsf:_Collection_1_System_Collections_IList_Add_m2091889616_gshared
O5b:__ZN16StreamedResource8TransferI24GenerateTypeTreeTransferEEvRT_
rzc:__ZN11b2GearJoint4DumpEv
MJe:_DropdownItem_OnPointerEnter_m761897861
fz:__ZN7mecanim9animation21CreateBlendTreeOutputEjRNS_6memory9AllocatorE
_Fa:__ZN10Matrix3x3f15InvertTransposeEv
$nd:__ZNSt3__213__vector_baseIN6il2cpp2vm17TypeNameParseInfoENS_9allocatorIS3_EEED2Ev
KTe:_Array_InternalArray__ICollection_Remove_TisKeyValuePair_2_t1174980068_m2768765894_gshared
lqf:_Collection_1_set_Item_m2199807215_gshared
gIb:__Z29Transfer_Blittable_ArrayFieldI14SafeBinaryRead8Vector3fEvRT_R9ArrayInfoRK23StaticTransferFieldInfo
bHh:_UInt32_System_IConvertible_ToBoolean_m91295134
IBh:_Monitor_Monitor_test_synchronised_m1542589500
m1g:__ZL68RuntimePlatform_t1869584967_CustomAttributesCacheGenerator_WP8PlayerP21CustomAttributesCache
VLc:__ZN20TextRenderingPrivate8FontImpl18ResetCachedTextureEv
X1f:_SymmetricTransform_TransformFinalBlock_m4192185386
_Gf:_TextInfo__ctor_m1263401274
Bwj:_TouchScreenKeyboard_Open_m913506328
ise:_Decimal_System_IConvertible_ToInt16_m3159038792
k1h:_ValueCollection__ctor_m927733289_gshared
MAc:__ZNK12b2WheelJoint10GetAnchorBEv
gdc:__Z53Register_UnityEngine_Behaviour_get_isActiveAndEnabledv
bDb:__ZNK13MonoBehaviour26GetTypeInfoVirtualInternalEv
xq:__ZNSt3__26vectorIN4core12basic_stringIcNS1_20StringStorageDefaultIcEEEENS_9allocatorIS5_EEE8__appendEj
kmd:_il2cpp_gc_collect
gzb:__ZN26PlayerSettingsSplashScreen8TransferI17RemapPPtrTransferEEvRT_
FLc:__ZN20TextRenderingPrivate8FontImpl8TransferI17RemapPPtrTransferEEvRT_
upi:_InternalEnumerator_1_get_Current_m3922357178_gshared
okd:__ZN6il2cpp6icalls8mscorlib6SystemL17CollectTypeFieldsINS_5utils10functional10TrueFilterEEEvP11Il2CppClassPKS7_iRNSt3__26vectorIP9FieldInfoNSB_9allocatorISE_EEEERKT_
N5g:__ZL72ColorBlock_t2652774230_CustomAttributesCacheGenerator_m_HighlightedColorP21CustomAttributesCache
NEh:_Type_get_IsValueType_m1733572463
tZb:__Z13GetTagManagerv
uEi:__Z127RuntimeInvoker_Void_t1841601450_IntPtr_t_Int32_t2071877448_SByte_t454417549_Int32_t2071877448_SByte_t454417549_SByte_t454417549PK10MethodInfoPvPS2_
kUe:_Array_InternalArray__ICollection_Remove_TisUInt16_t986882611_m65494986_gshared
Iyf:_ReadOnlyCollection_1_IndexOf_m3054637117_gshared
nQ:__ZN11UnityEngine15CloudWebService17CloudJobSchedulerD0Ev
M1d:_String_System_IConvertible_ToBoolean_m2696751322
nna:__ZN18LoadSceneOperation7PerformEv
nMh:_GUILayer_INTERNAL_CALL_HitTest_m693512502
U2d:_String_LastIndexOfAny_m4281325295
MDc:__ZN10ClipperLib7Clipper14IntersectEdgesEPNS_5TEdgeES2_RNS_8IntPointE
VE:__Z113Register_UnityEngine_Experimental_Director_AnimatorControllerPlayable_INTERNAL_CALL_GetAnimatorControllerInternalv
lmc:__Z21CleanupGlobalGUIStatev
pDh:_TimeSpan__ctor_m1888018443_AdjustorThunk
Bie:_SyncHashtable_get_Count_m3694444082
tHa:__ZN22VertexDeclarationCache5ClearEv
C$j:_emscripten_glUniform2i__wrapper
N7a:__ZN17PersistentManager12SetPathRemapERKN4core12basic_stringIcNS0_20StringStorageDefaultIcEEEES6_
j0a:__ZN6Camera24PrepareCullingParametersERK23CameraCullingParameters13RenderingPathR11CullResults
zna:__ZN19RuntimeSceneManager22EndIntegrateMainThreadEP10UnitySceneNS_11LoadingModeE
qJb:__Z26Transfer_UnityEngineObjectI17RemapPPtrTransferLb0EEvRK29SerializationCommandArgumentsR31RuntimeSerializationCommandInfo
$2d:_String_IsNullOrEmpty_m2802126737
Gbe:_Byte_Parse_m1442736478
WKf:_Int64_Parse_m3258022240
L2d:_String_IndexOfOrdinal_m3591623977
iwj:_Texture2D_get_whiteTexture_m1979591766
akh:_CryptoConfig_EncodeLongNumber_m2352037787
sFh:_Type_GetMethod_m475234662
bfj:_ActivationServices_get_ConstructionActivator_m1726426854
nLb:__Z29Transfer_Blittable_ArrayFieldI24GenerateTypeTreeTransfer4AABBEvRT_R9ArrayInfoRK23StaticTransferFieldInfo
SIg:__ZL52Activator_t1850728717_CustomAttributesCacheGeneratorP21CustomAttributesCache
BOd:_GC_adj_bytes_allocd
tZe:_Array_InternalArray__ICollection_Add_TisKeyframe_t1449471340_m887263954_gshared
Fxj:_UIVertex__cctor_m803910084
T_e:_Array_InternalArray__Insert_TisDateTime_t693205669_m1484996356_gshared
pef:_List_1_System_Collections_IList_Remove_m3933652540_gshared
GPf:_MonoIO_get_ConsoleInput_m2976499023
ith:_OpCode_get_Size_m481593949_AdjustorThunk
Yfe:_BitArrayEnumerator_checkVersion_m3839504595
j7d:_Array_GetUpperBound_m1352329707
gOa:__ZZ23InitPlayerLoopCallbacksvEN36UpdateScriptRunBehaviourUpdatestruct7ForwardEv
wbg:_RecordProtocol__ctor_m168945279
fre:_DateTimeOffset_Equals_m3728302791_AdjustorThunk
q_a:__ZN20SphericalHarmonicsL219AddDirectionalLightERKN4math7_float3ERKNS0_7_float4E
mEh:_TimeSpan_op_GreaterThanOrEqual_m3997050520
u$:__Z26ScheduleJobForEachInternalR8JobFencePFvPvjES1_iPFvS1_E11JobPriority
Hng:_OidEnumerator_MoveNext_m1889267785
F9b:__ZN9Scripting18RaiseMonoExceptionEPKcz
Iob:__ZN9Texture2D8TransferI19StreamedBinaryWriteILb0EEEEvRT_
ZNh:_GUISkin_set_box_m877476512
NFj:_TweenRunner_1_StartTween_m3792842064_gshared
J2b:__ZN9ShaderLab16FastPropertyName15InitBy28BitHashEj
Y0d:_Single_System_IConvertible_ToInt32_m3269519527_AdjustorThunk
PXd:_SHA1Internal_ProcessBlock_m4070037334
W$e:_Array_InternalArray__set_Item_TisDouble_t4078015681_m24756265_gshared
Cdh:_ObjRef_GetObjectData_m3081609242
I$b:__ZN13ProduceHelperIN2UI13RectTransformELb0EE7ProduceE18MemLabelIdentifier18ObjectCreationMode
_tb:__ZN17PackedFloatVector12UnpackFloatsEPfiiii
Xvf:_ReadOnlyCollection_1__ctor_m3671019970_gshared
Iv:__ZN17AnimationPlayable28UpdateInternalStateRecursiveILi3ELb0EEEvPK35AnimationPlayableEvaluationConstant
jxa:__ZN13GfxDeviceGLES21DestroyComputeProgramER12ObjectHandleI18ComputeProgram_TagPvE
lme:_Convert_ToDecimal_m2007036836
o7:__ZN17UniqueIDGenerator16DestroyPureIndexEj
S3:__ZL21AppendNestedClassName17ScriptingClassPtrRN4core17string_with_labelILi1EEE
NSb:__ZN14SafeBinaryRead21TransferSTLStyleArrayINSt3__26vectorIN9ShaderLab20SerializedSubProgram12UAVParameterENS1_9allocatorIS5_EEEEEEvRT_17TransferMetaFlags
ihj:_Context_NotifyDynamicSinks_m1367144344
wR:__ZN24TextDOMTransferWriteBaseI9JSONWriteE12PushMetaFlagEi
Cbg:_TlsClientCertificateVerify__ctor_m110646389
Ela:__ZN6prcoreL26RemapGenericIntegerToFloatI17TexFormatARGB888815TexFormatRFloatEEvPKNS_9InnerInfoE
rhj:_Context_GetServerContextSinkChain_m390126977
Rnd:__ZN6il2cpp2vm17TypeNameParseInfoD2Ev
R1e:_Array_Sort_TisIl2CppObject_m143182644_gshared
mRf:_StringReader_Read_m513112775
qqb:__ZNK8Renderer8GetLayerEv
kkb:__ZN12FlareManager11DeleteFlareEi
LWa:__ZNK6Camera20GetReplacementShaderEv
GXj:_glProgramBinary__wrapper
Rre:_Decimal__ctor_m569480123_AdjustorThunk
Ukg:_HttpWebRequest__cctor_m3013631978
HRd:__ZNSt3__26__treeINS_12__value_typeINS_12basic_stringIcNS_11char_traitsIcEENS_9allocatorIcEEEEPFvvEEENS_19__map_value_compareIS7_SA_NS_4lessIS7_EELb1EEENS5_ISA_EEE4findIS7_EENS_15__tree_iteratorISA_PNS_11__tree_nodeISA_PvEEiEERKT_
VSb:__ZNSt3__26vectorIN9ShaderLab20SerializedSubProgram14ConstantBufferENS_9allocatorIS3_EEE7reserveEj
tpa:__ZL23stbir__calculate_memoryP11stbir__info
HLi:__Z90RuntimeInvoker_Boolean_t3825574718_Int32_t2071877448_Int32U26_t455636984_Int32_t2071877448PK10MethodInfoPvPS2_
Rdi:_Scrollbar_FindSelectableOnRight_m3219495255
hAb:__ZNK30RuntimeInitializeOnLoadManager26GetTypeInfoVirtualInternalEv
iwc:__ZNK9rapidjson12GenericValueINS_4UTF8IcEE13JSONAllocatorE6AcceptINS_12PrettyWriterI16TempBufferWriterS2_S2_S3_EEEEbRT_
D_e:_Array_InternalArray__ICollection_CopyTo_TisVector3_t2243707580_m509487340_gshared
TE:__Z82AnimatorControllerPlayable_CUSTOM_INTERNAL_CALL_IsParameterControlledByCurveStringR9HPlayableP12Il2CppString
muc:__ZL26Transfer_SimpleNativeClassI8JSONRead10RectOffsetLb1EEvRK29SerializationCommandArgumentsR31RuntimeSerializationCommandInfo
M1c:__Z44CanvasRenderer_CUSTOM_INTERNAL_CALL_SetColorP12Il2CppObjectRK10ColorRGBAf
pfj:_UrlAttribute_Equals_m1587451932
Drc:__Z18Transfer_BlittableI9JSONWriteLb1EsEvRK29SerializationCommandArgumentsR31RuntimeSerializationCommandInfo
EDc:__ZN10ClipperLib8JoinHorzEPNS_5OutPtES1_S1_S1_NS_8IntPointEb
X4c:__Z48UnityAnalyticsHandler_CUSTOM_SendCustomEventNameP12Il2CppObjectP12Il2CppString
clh:_DSAParameters_t1872138834_marshal_pinvoke_cleanup
Zbc:__ZN9Transform16SetLocalRotationERK11Quaternionf
ele:_DateTime_Parse_m1628430317
RQa:__ZN13RenderManager37RenderCamerasWithScriptableRenderLoopEi
y_f:_ASN1_Element_m2600236165
OY:__GLOBAL__sub_I_runtime_graphics5_lump_cpp
C8:__ZN23InstancedPropInfoStaticL16RegisterCallbackEPv
At:__ZN7mecanim8skeleton25SkeletonPoseComputeLocalQEPKNS0_8SkeletonEPKNS0_13SkeletonPoseTIN4math4trsXEEEPS7_ii
jEd:__ZN6il2cpp2os19ReleaseSocketHandleEj
Bth:_TypeBuilder_GetPropertyImpl_m1854119335
bph:_TypeBuilder_get_next_table_index_m1415870184
uSj:___cxa_can_catch
G6f:_SequentialSearchPrimeGeneratorBase_GenerateNewPrime_m296245934
Lce:_Char_GetUnicodeCategory_m4273361321
gEa:__ZNK13TranslateGLES23VertexArraySizeBitfieldEi
$gj:_Identity_get_ClientDynamicProperties_m767245959
DGd:__ZN6il2cpp2os5posix15PosixWaitObjectC2ENS2_4TypeE
KBb:__Z23AppendPathNameExtensionRKN4core12basic_stringIcNS_20StringStorageDefaultIcEEEES5_
sth:_TypeBuilder_create_generic_class_m986834171
WXj:_emscripten_glVertexPointer__wrapper
wsa:__ZN23ShaderVariantCollection13WarmupShadersEv
Ocg:_Context_set_ProtocolNegotiated_m1177527245
qbj:_AnimatorControllerPlayable_INTERNAL_CALL_GetAnimatorTransitionInfoInternal_m2259454958
fHh:_UInt32_System_IConvertible_ToChar_m1056040486
z3:__Z25GetCommonScriptingClassesv
vig:_TlsStream_get_Length_m1562309511
Pna:__Z27scripting_gc_collect_unsafei
XO:__ZN11AudioModule20SuspendVideoTexturesEv
f2b:__ZN12CubemapArrayC2E18MemLabelIdentifier18ObjectCreationMode
Lke:_Convert_ToByte_m395020137
MKb:__Z26Transfer_UnityEngineObjectI24GenerateTypeTreeTransferLb0EEvRK29SerializationCommandArgumentsR31RuntimeSerializationCommandInfo
vWc:_UNITY_FT_GlyphLoader_CheckPoints
$Rf:_TextWriter_WriteLine_m1754475888
gkb:__ZN15SharedLightData7PrecalcEv
QTd:__ZNK6il2cpp8metadata22Il2CppGenericClassHashclEPK18Il2CppGenericClass
tCj:_InvokableCall_1_Invoke_m769918017_gshared
w4e:_Array_InternalArray__get_Item_TisDouble_t4078015681_m2215331088_gshared
Xdb:__ZN19StreamedBinaryWriteILb0EE19TransferSTLStyleMapINSt3__28multimapIN4core12basic_stringIcNS4_20StringStorageDefaultIcEEEEN11AssetBundle9AssetInfoENS2_4lessIS8_EENS2_9allocatorINS2_4pairIKS8_SA_EEEEEEEEvRT_17TransferMetaFlags
h2h:_Dictionary_2_Init_m3666073812_gshared
JMa:__ZN15ArchiveReadFileD0Ev
Q1f:_SymmetricTransform_TransformBlock_m1524716432
x8:__ZN18ConcurrentFreeListI28FileTextureUploadInstructionE7CleanUpEv
zWe:_Array_compare_TisColor32_t874517518_m3842009370_gshared
s6c:__ZN11UnityEngine15PlatformWrapper18GetOperatingSystemEv
$Af:_ReadOnlyCollection_1_System_Collections_Generic_ICollectionU3CTU3E_Remove_m974176789_gshared
ote:_Delegate_return_type_match_m4278947849
qQe:_InputField_GenerateHightlight_m1346735465
kpj:_Uri_ParseNoExceptions_m1151989845
cke:_GC_SuppressFinalize_m953228702
rWc:_FT_MSB
LQh:_GUIStyle_get_clipping_m2754700641
Xwd:__ZN15dense_hashtableINSt3__24pairIK10KeyWrapperINS1_IP11Il2CppClassjEEES4_EES6_N6il2cpp8metadata14ArrayClassHashEN14dense_hash_mapIS6_S4_SB_NS6_14EqualsComparerINSA_17ArrayClassCompareEEENS0_9allocatorIS8_EEE9SelectKeyESF_SH_E3endEv
gSd:__ZN6il2cpp6icalls8mscorlib4Mono8Security12Cryptography18KeyPairPersistence10_CanSecureEP12Il2CppString
Fji:_Action_1_Invoke_m4180501989_gshared
fnd:__ZN6il2cpp2os4File11GetFileStatERKNSt3__212basic_stringIcNS2_11char_traitsIcEENS2_9allocatorIcEEEEPNS0_8FileStatEPi
Yta:__ZN13GfxDeviceGLES14SetRasterStateEPK17DeviceRasterState
Oya:__ZNK13TranslateGLES11BlendFactorE9BlendMode
gPe:_InputField_set_caretPositionInternal_m231166704
uxj:_Transform_InverseTransformPoint_m2648491174
icg:_TlsServerHello__ctor_m3032108168
xda:__ZN14SafeBinaryRead11EndTransferEv
FAg:__ZL98ILGenerator_t99948092_CustomAttributesCacheGenerator_ILGenerator_Mono_GetCurrentOffset_m3553856682P21CustomAttributesCache
CGb:__ZN14SafeBinaryRead8TransferI8MonoPPtrEEvRT_PKc17TransferMetaFlags
xti:_InternalEnumerator_1_System_Collections_IEnumerator_get_Current_m1533037706_gshared
IFa:__ZN21UniformBufferTFMethod13MapBoneBufferEj
_fg:_RecordProtocol_SendChangeCipherSpec_m3542001341
F0e:_Array_InternalArray__set_Item_TisVector3_t2243707580_m1390667454_gshared
xlc:__ZN12GUIClipState10BeginOnGUIER10InputEvent
Pyd:__ZNSt3__26vectorIcNS_9allocatorIcEEEC2Ej
N$f:_KeyPairPersistence_CanSecure_m2251009700
wch:_ReturnMessage_get_Properties_m531965085
crh:_GenericTypeParameterBuilder_IsSubclassOf_m563999142
Owe:_Exception_ToString_m627574695
AMc:__ZNSt3__26vectorIN20TextRenderingPrivate8FontImpl7IntRectE13stl_allocatorIS3_L18MemLabelIdentifier34ELi16EEE21__push_back_slow_pathIKS3_EEvRT_
gnc:__Z30Event_Get_Custom_PropModifiersP12Il2CppObject
ux:__ZN7mecanim9animation16CreateClipOutputEPKNS0_4ClipERNS_6memory9AllocatorE
ru:__ZN7mecanim9animation23ClearAnimationNodeStateEPNS0_18AnimationNodeStateEb
U_e:_Array_InternalArray__Insert_TisDecimal_t724701077_m1429254816_gshared
KBa:__ZN18AsyncUploadManager17DoScaledPaddedJobEP28FileTextureUploadInstruction
asa:__ZNSt3__218__stable_sort_moveIRN10vector_mapI17ScriptingClassPtrPKN5Unity4TypeENS_4lessIS2_EENS_9allocatorINS_4pairIS2_S6_EEEEE13value_compareENS_11__wrap_iterIPSB_EEEEvT0_SJ_T_NS_15iterator_traitsISJ_E15difference_typeEPNSM_10value_typeE
HRb:__ZN6Shader21AwakeFromLoadThreadedEv
Fka:__ZN6prcoreL17RemapGenericFloatI17TexFormatRGBFloat17TexFormatRGBAHalfEEvPKNS_9InnerInfoE
l7g:__ZL70InputField_t1631627530_CustomAttributesCacheGenerator_m_CharacterLimitP21CustomAttributesCache
Vvc:__ZN8JSONRead21TransferSTLStyleArrayI13dynamic_arrayI8Vector2fLj4EEEEvRT_18MemLabelIdentifier17TransferMetaFlags
kTd:__ZN6il2cpp2os9SemaphoreC2Eii
Pli:_InternalEnumerator_1_get_Current_m2960188445_AdjustorThunk
EGb:__ZNSt3__26vectorI8MonoPPtr13stl_allocatorIS1_L18MemLabelIdentifier1ELi16EEE8__appendEj
iii:_Text_set_alignByGeometry_m1514652028
oVa:__ZN14qsort_internal30FindAndMovePivotToLastPositionIP17RODataReplacementi19ROSorterReplacementEEvT_S4_T0_T1_
TFa:__ZN15UniformTFMethod20IsBoneCountSupportedEi
cVh:_Object_Internal_InstantiateSingle_m2776302597
SZd:_X509Certificate_GetExpirationDateString_m2351894475
Rzd:__ZN6il2cpp2vm9Exception26FormatInvalidCastExceptionEPK11Il2CppClassS4_
yed:__ZN14dense_hash_setI10KeyWrapperIPK19Il2CppGenericMethodEN6il2cpp8metadata23Il2CppGenericMethodHashENS4_14EqualsComparerINS6_26Il2CppGenericMethodCompareEEENSt3__29allocatorIS4_EEEC2EjRKS7_RKSA_
nUj:dynCall_viidi
Y_e:_Array_InternalArray__Insert_TisInt64_t909078037_m3039874636_gshared
Uii:_ToggleGroup_NotifyToggleOn_m997426227
igg:_RSASslSignatureDeformatter_SetKey_m1150106904
H_:__ZN24ScriptingMethodFiltering17FilterOnSignatureENS_18MethodSearchFilterE
Bdi:_Scrollbar_ClickRepeat_m3403943364
nO:__ZN13ProduceHelperI9AudioClipLb0EE7ProduceE18MemLabelIdentifier18ObjectCreationMode
gW:__ZN18ScreenManagerWebGL13SetLockCursorE14CursorLockMode
PVc:_cf2_arrstack_finalize
vUf:_MonoType_GetMethodsByName_m1854415088
kph:_DerivedType_GetMethods_m165266904
v1f:_RSAManaged_EncryptValue_m4089823119
t$b:__ZN13MonoBehaviour19HandleNotificationsEPviR11MessageData
NTd:__ZN6il2cpp2os9EventImpl5ResetEv
tPh:_GUIStyle_set_focused_m1547304893
Vea:__ZNK11NamedObject26GetTypeInfoVirtualInternalEv
UOf:_ReadDelegate_Invoke_m2091885836
tqh:_TypeBuilder_GetField_m2112455315
eXj:b58
fXj:b59
OWj:b52
PWj:b53
MWj:b50
cXj:b56
dXj:b57
_Wj:b54
bXj:b55
nAi:__Z67RuntimeInvoker_Void_t1841601450_Int32_t2071877448_Int16_t4041245914PK10MethodInfoPvPS2_
mpe:_DateTime__ctor_m3604679583_AdjustorThunk
K0f:_MACAlgorithm_Core_m2390605245
Bsi:_InternalEnumerator_1_System_Collections_IEnumerator_get_Current_m30488070_gshared
n_b:__ZN10GameObject12CleanupClassEv
eej:_DllImportAttribute__ctor_m1165454237
Bua:__ZN9GfxDevice25SetShaderPropertiesSharedERK19ShaderPropertySheet
fFj:_IndexedSet_1_GetEnumerator_m3646001838_gshared
t7b:__ZN19SpriteMeshGenerator4path9clip_edgeEi
Xbi:_VertexHelper_AddUIVertexTriangleStream_m4009409241
r3b:__ZL25InitializeDefaultMaterialv
Ngb:__ZN21ArchiveStorageCreatorD2Ev
gDh:_WaitHandle_Dispose_m441403862
wji:_VertexHelper_AddVert_m3290455716
nra:__ZN17PersistentManager12UnloadStreamERKN4core12basic_stringIcNS0_20StringStorageDefaultIcEEEEb
THc:__ZN19CompositeCollider2D22SimplifyCompositePathsERKNSt3__26vectorINS1_IN10ClipperLib8IntPointENS0_9allocatorIS3_EEEENS4_IS6_EEEERS8_
ZV:__ZN13ScreenManager17RequestResolutionEiibi
xkh:_DESTransform__ctor_m4096028381
vmd:_il2cpp_unity_liveness_calculation_from_statics
ICh:_Scheduler_get_Instance_m1989471839
Lmg:_WebRequest_System_Runtime_Serialization_ISerializable_GetObjectData_m3377822910
Tqb:__ZN8Renderer8TransferI17RemapPPtrTransferEEvRT_
Mqf:_Collection_1_Contains_m1299140035_gshared
aXj:_glBlitFramebuffer__wrapper
Y5e:_ExecuteEvents_ExecuteHierarchy_TisIl2CppObject_m2541874163_gshared
yZe:_Array_InternalArray__ICollection_Add_TisUICharInfo_t3056636800_m968274080_gshared
pGj:_ObjectPool_1__ctor_m1532275833_gshared
uJj:__ZL24UnresolvedVirtualCall_71P12Il2CppObjectS0_S0_iS0_S0_S0_PK10MethodInfo
yif:_List_1_GetIndex_m3262928832_gshared
Oej:_SafeHandle_DangerousRelease_m2167699172
H3a:__Z24LookRotationToQuaternionRK8Vector3fS1_P11Quaternionf
F3a:__ZN16ReflectionProbes9GetCameraEv
WVb:__ZL18IsGpuProgramUsable20ShaderGpuProgramTypePK6Shader
Z4f:_ArgumentException__ctor_m2105824819
N0c:__ZN2UI6Canvas17SetSortingLayerIDEi
ZEe:_BaseMeshEffect_get_graphic_m3358796463
AGd:__ZN6il2cpp2vm11MethodStack23CleanupForCurrentThreadEv
cBj:_Predicate_1_Invoke_m695569038_gshared
e7e:_Enumerator_VerifyState_m825848279_AdjustorThunk
Pkb:__ZN20TierGraphicsSettings8TransferI24GenerateTypeTreeTransferEEvRT_
_Hb:__ZN14SafeBinaryRead21TransferSTLStyleArrayI13dynamic_arrayI4AABBLj4EEEEvRT_17TransferMetaFlags
cia:__ZN18UnityPropertySheet8TransferI19StreamedBinaryWriteILb0EEEEvRT_
weg:_TlsServerCertificate_checkServerIdentity_m3836435780
p9:__ZNSt3__26__treeINS_12__value_typeIiN11TypeManager18TypeCallbackStructEEENS_19__map_value_compareIiS4_NS_4lessIiEELb1EEENS_9allocatorIS4_EEE7destroyEPNS_11__tree_nodeIS4_PvEE
x2f:_PKCS12_Decrypt_m2353135969
M8i:_PersistentCallGroup_Initialize_m3908067069
Gvh:_MonoEvent_ToString_m386956596
i1g:__ZL70RuntimePlatform_t1869584967_CustomAttributesCacheGenerator_FlashPlayerP21CustomAttributesCache
qCb:__ZN39AssetBundleLoadFromStreamAsyncOperationC2ERKN4core12basic_stringIcNS0_20StringStorageDefaultIcEEEE
Iea:__ZL19GetCameraTargetRectRK6Camerabb
c$h:_Transform_1_BeginInvoke_m1786442111_gshared
QIf:_Int32_GetFormatException_m1729046182
B4a:__ZN13dynamic_arrayIN10GameObject13ComponentPairELj4EE6insertEPS1_RKS1_
bcb:__ZN21UnityDefaultAllocatorI17LowLevelAllocatorE10DeallocateEPv
DY:__GLOBAL__sub_I_runtime_camera2_lump_cpp
ur:__ZN15PackedIntVector8TransferI14SafeBinaryReadEEvRT_
duh:_FieldInfo_get_IsLiteral_m267898096
jCa:__ZN17SharedTextureDataD0Ev
whg:_SslStreamBase_EndNegotiateHandshake_m1732321201
o$h:_Transform_1_BeginInvoke_m1167293475_gshared
PH:__ZN13AudioListener8DoUpdateEv
Gke:__Z13bankers_roundd
Zyb:__ZN14SafeBinaryRead8TransferI5RectTIfEEEvRT_PKc17TransferMetaFlags
vi:_emscripten_glGenFramebuffers
Mhe:_Hashtable_CopyTo_m2778915805
k9:__ZN17BaseObjectManager16StaticInitializeEPv
Aoh:_ConstructorBuilder_get_IsCompilerContext_m2796899803
mXe:_Array_IndexOf_TisUIVertex_t1204258818_m613887160_gshared
aAb:__ZN18StreamedBinaryReadILb0EE19TransferSTLStyleMapINSt3__28multimapIN4core12basic_stringIcNS4_20StringStorageDefaultIcEEEE4PPtrI6ObjectENS2_4lessIS8_EE13stl_allocatorINS2_4pairIKS8_SB_EEL18MemLabelIdentifier51ELi16EEEEEEvRT_17TransferMetaFlags
fle:_DateTime_CoreParse_m2014268103
agf:_List_1__ctor_m3698273726_gshared
SFc:__ZN24ParticleIntersectQuery2D18ReportFixtureProxyEPK14b2FixtureProxy
csc:__Z18Transfer_BlittableI9JSONWriteLb0EyEvRK29SerializationCommandArgumentsR31RuntimeSerializationCommandInfo
Oea:__ZN13RenderTexture15ThreadedCleanupEv
T6:__ZN15dense_hashtableINSt3__24pairIKiiEEi21InstanceIDHashFunctorN14dense_hash_mapIiiS4_NS0_8equal_toIiEE13stl_allocatorIS3_L18MemLabelIdentifier130ELi16EEE9SelectKeyES7_SA_E9copy_fromERKSD_j
mnb:__ZN12CubemapArray23VirtualRedirectTransferER14SafeBinaryRead
ckh:_CryptographicException__ctor_m1012314467
gBf:_ReadOnlyCollection_1_System_Collections_IList_Add_m616574295_gshared
RIf:_Int32_ProcessTrailingWhitespace_m2812079777
Zhc:__Z43RectTransform_CUSTOM_INTERNAL_set_sizeDeltaP12Il2CppObjectRK13Vector2fIcall
zmg:_WebProxy__ctor_m3679722173
PEd:__ZN15dense_hashtableINSt3__24pairIK10KeyWrapperINS1_IPKcS4_EEEiEES6_24NamespaceAndNamePairHashN14dense_hash_mapIS6_iS9_NS6_14EqualsComparerI26NamespaceAndNamePairEqualsEENS0_9allocatorIS8_EEE9SelectKeyESD_SF_E6insertERKS8_
Tda:__ZN24GenerateTypeTreeTransfer18BeginArrayTransferEPKcS1_Ri17TransferMetaFlags
dBa:__Z16DecompressCrunchPKhRjR13TextureFormatiiii18MemLabelIdentifier
nm:___syscall51
rm:___syscall54
Cyi:__Z107RuntimeInvoker_Boolean_t3825574718_SByte_t454417549_Il2CppObject_Int32_t2071877448_ExceptionU26_t1467204777PK10MethodInfoPvPS2_
JDj:_UnityAction_2_Invoke_m1994351568_gshared
_$i:_UnityAnalyticsHandler_Dispose_m1048126775
gs:__ZNK8Animator20IsAnyRendererVisibleEv
wWc:_cff_builder_add_point1
UFd:__ZN6il2cpp2vm5Image21GetCachedResourceDataEPK11Il2CppImageRKNSt3__212basic_stringIcNS5_11char_traitsIcEENS5_9allocatorIcEEEE
JMe:_HorizontalOrVerticalLayoutGroup_set_childControlWidth_m4209477792
mZe:_Array_InternalArray__ICollection_Add_TisUInt32_t2149682021_m2629016323_gshared
CFb:__Z18Transfer_BlittableI14SafeBinaryReadLb0E10ColorRGBAfEvRK29SerializationCommandArgumentsR31RuntimeSerializationCommandInfo
Ba:invoke_iiiiiiiiii
ona:__ZN18LoadSceneOperation19IntegrateTimeSlicedEi
TCh:_Scheduler_SchedulerThread_m2209572785
CXf:_SortKeyBuffer_GetResultAndReset_m2516956577
M9a:__ZN10FileSystem19SetCurrentDirectoryERKN4core12basic_stringIcNS0_20StringStorageDefaultIcEEEE
U3:__ZN16ScriptingManager24NotifyScriptCacheReleaseEi
Zcc:__Z47Register_UnityEngine_Coroutine_ReleaseCoroutinev
BI:__ZN15AudioReverbZone13SetFMODValuesEv
N5i:_Component_GetComponentInChildren_m3925629424
e1:__ZL19StaticDestroyShaderPv
he:_glRenderbufferStorageMultisample
fA:__ZN23AnimationPlayableOutput17SetTargetAnimatorEP8Animator
Ksj:_X509Chain__ctor_m1113875360
lIb:__Z35Transfer_Blittable_SingleValueFieldI14SafeBinaryReadfEvRT_R17GeneralMonoObjectRK23StaticTransferFieldInfo
Reg:_TlsServerHello_processProtocol_m1241336522
Phj:_ContextAttribute_IsContextOK_m3281216012
dQf:_PathTooLongException__ctor_m3212099251
khh:_ObjectManager_RaiseDeserializationEvent_m1611173032
Dr:__ZN17PackedFloatVector8TransferI18StreamedBinaryReadILb0EEEEvRT_
Unb:__ZN7Cubemap23VirtualRedirectTransferER17RemapPPtrTransfer
MPa:_longest_match_fast
F6b:__ZN22BlockMemoryCacheWriter11GetPathNameEv
$Ke:_Graphic_Rebuild_m2617722358
Mqe:_DateTime_ToString_m3108726445_AdjustorThunk
AQ:__ZN19CloudServiceHandlerD2Ev
c6a:__ZN13dynamic_arrayIN23ReflectionProbesContext23ReflectionProbeCubeInfoELj4EE18resize_initializedEjRKS1_12ResizePolicy
g4e:_Array_InternalArray__get_Item_TisTableRange_t2011406615_m602485977_gshared
jQe:_InputField_Append_m2623574152
aF:__Z116Register_UnityEngine_Experimental_Director_AnimatorControllerPlayable_INTERNAL_CALL_GetNextAnimatorStateInfoInternalv
S4f:_ApplicationException__ctor_m1120437222
hp:stackAlloc
sdc:__Z44Camera_CUSTOM_INTERNAL_CALL_ScreenPointToRayP12Il2CppObjectRK8Vector3fR3Ray
UKa:__ZN25SingleBlockMemoryFileData4LockEPPv
Ash:_MethodBuilder_GetHashCode_m1713271764
F7b:__ZN15dense_hashtableINSt3__24pairIK12TriangleEdgeiEES2_16TriangleEdgeHashN14dense_hash_mapIS2_iS5_NS0_8equal_toIS2_EENS0_9allocatorIS4_EEE9SelectKeyES8_SA_E12resize_deltaEjj
yej:_Marshal__cctor_m802981325
Mmf:_Collection_1_IsSynchronized_m1319022347_gshared
MWf:_MSCompatUnicodeTable_GetResource_m3816716847
Eec:__Z32RectOffset_Get_Custom_PropBottomP12Il2CppObject
y7d:_Array_CreateInstance_m15016505
yHb:__ZNSt3__26vectorI17AnimationCurveTplIfE13stl_allocatorIS2_L18MemLabelIdentifier1ELi16EEE6assignINS_11__wrap_iterIPS2_EEEENS_9enable_ifIXaasr21__is_forward_iteratorIT_EE5valuesr16is_constructibleIS2_NS_15iterator_traitsISC_E9referenceEEE5valueEvE4typeESC_SC_
wPj:_stat
gWd:_RijndaelTransform_Decrypt128_m1282993908
m_e:_Array_InternalArray__ICollection_CopyTo_TisUInt16_t986882611_m3228377237_gshared
W7g:__ZL68Navigation_t1571958496_CustomAttributesCacheGenerator_m_SelectOnDownP21CustomAttributesCache
$2i:_Bounds_op_Inequality_m2315096783
azc:__ZN15b2DistanceJoint23InitVelocityConstraintsERK12b2SolverData
Msa:__ZNSt3__218__insertion_sort_3IRNS_4lessIN22BuiltinResourceManager8ResourceEEEPS3_EEvT0_S7_T_
h6i:_Component_BroadcastMessage_m1308086896
AVd:_RC2_set_KeySize_m2015782960
ma:invoke_iiiiiiiiiiii
l2f:_StrongName_get_PublicKey_m3777577320
vfc:__Z43Register_UnityEngine_GameObject_SendMessagev
K6:__ZNSt3__26__treeINS_12__value_typeIN4core12basic_stringIcNS2_20StringStorageDefaultIcEEEES6_EENS_19__map_value_compareIS6_S7_NS_4lessIS6_EELb1EEE13stl_allocatorIS7_L18MemLabelIdentifier12ELi16EEE7destroyEPNS_11__tree_nodeIS7_PvEE
kbd:__ZN6il2cpp2vm17SetupFieldsLockedEP11Il2CppClassRKNS_2os12FastAutoLockE
WL:__ZN11AudioSourceD0Ev
x4i:_CanvasRenderer_set_hasPopInstruction_m1388844875
mab:__ZN16MemoryFileSystem4NameEv
Nze:_BaseRaycaster_OnEnable_m3641767070
hIe:_DefaultControls_CreateImage_m2821562988
B6f:_PrimeGeneratorBase_get_PrimalityTest_m308005118
uQh:_GUIStyle_Internal_CalcSize_m1309259680
Jmc:__ZNK8GUIStyle8CalcSizeER10GUIContent
Xbf:_List_1_CheckIndex_m2328469916_gshared
tNc:_UNITY_FT_New_Size
Aac:__Z42ScriptingGetComponentsOfTypeFromGameObjectRK26ScriptingGetComponentsArgs
Hlf:_List_1_get_Item_m3157283227_gshared
n3h:_Dictionary_2_ToTKey_m965425080_gshared
eDj:_InvokableCall_4_Invoke_m1555001411_gshared
koe:_Convert_ToString_m2915777777
Fia:__ZNSt3__27__sort4IRPFbRKNS_4pairIN9ShaderLab16FastPropertyNameEN18UnityPropertySheet11UnityTexEnvEEES8_EPS6_EEjT0_SD_SD_SD_T_
LVc:_cf2_hintmap_build
DOi:__Z92RuntimeInvoker_AnimatorStateInfo_t2577870592_PlayableHandleU26_t3483893774_Int32_t2071877448PK10MethodInfoPvPS2_
zTc:_Line_Up
cVf:_MonoType_GetGenericTypeDefinition_m2363776160
Ycg:_Context_set_SentConnectionEnd_m2641458842
oe:_emscripten_glBufferSubData
Jae:_Buffer_BlockCopyInternal_m2627156229
UKe:_Graphic_set_material_m329335629
wze:_ExecuteEvents_get_pointerExitHandler_m3250605428
Lja:__ZN6prcoreL12RemapGenericI15TexFormatRGB88817TexFormatARGB8888EEvPKNS_9InnerInfoE
vD:__Z17CalculateGlobalRS23TransformAccessReadOnly
KQd:__ZNSt3__210__list_impIPN6il2cpp5utils10MemoryPool6RegionENS_9allocatorIS5_EEE5clearEv
u3i:_Camera_ScreenPointToRay_m614889538
lZf:_Kernel_multiByteDivide_m735279869
d4h:_Dictionary_2_ToTValue_m542772656_gshared
rCh:_Thread_GetNewManagedId_internal_m3211695465
VPa:_unity_z_deflateReset
rLh:_SkinChangedDelegate_Invoke_m2801964040
LAa:__ZN17GenericDynamicVBO17DrawChunkInternalERK21DynamicVBOChunkHandle17ShaderChannelMaskS3_P17VertexDeclarationP16DrawBuffersRangeij
uRb:__ZN22MemoryCacherReadBlocks14LockCacheBlockEjPPhS1_
K9d:_Boolean_System_IConvertible_ToChar_m2637404801_AdjustorThunk
Q$d:_SecurityContext_Capture_m2535194991
xGh:_UInt16_System_IConvertible_ToSByte_m3044765342_AdjustorThunk
dHd:__ZN4utf88internal15increase_safelyIPKcEENS0_9utf_errorERT_S5_
rMc:__ZN20TextRenderingPrivate8FontImpl16CacheFontForTextEPtiifjPK13dynamic_arrayINS_16TextFormatChangeELj4EE
_0e:_Array_qsort_TisUIVertex_t1204258818_TisUIVertex_t1204258818_m512606409_gshared
uVd:__Z21ArrayElementTypeCheckP11Il2CppArrayPv
u_j:_emscripten_glTexSubImage2D__wrapper
ekg:_NameValueCollection_AsSingleString_m10599052
pRj:__ZNSt3__212basic_stringIcNS_11char_traitsIcEENS_9allocatorIcEEE6appendEjc
dWf:_Object_InternalGetHashCode_m1371384246
Obi:_Navigation_get_defaultNavigation_m2185194207
EJf:_Int32_System_IConvertible_ToSByte_m1449623243_AdjustorThunk
k4f:_AccessViolationException__ctor_m1270251537
n3c:__Z42Register_UnityEngine_Canvas_get_rootCanvasv
btj:_X509ExtensionCollection_IndexOf_m3972100651
BGb:__Z14resize_trimmedINSt3__26vectorI8MonoPPtr13stl_allocatorIS2_L18MemLabelIdentifier1ELi16EEEEEvRT_j
Agb:__ZN39AssetBundleLoadFromStreamAsyncOperation11GetProgressEv
Xe:_TTF_RenderText_Solid
sEb:__ZN13MonoBehaviour25TransferEngineAndInstanceI24GenerateTypeTreeTransferEEvRT_
rHh:_UInt32_System_IConvertible_ToInt64_m3091851828
lTf:_MissingMethodException__ctor_m3898429715
Geh:_RemotingConfiguration_RegisterClientProviderTemplate_m514821425
FZh:_Enumerator_System_Collections_IEnumerator_Reset_m3085583937_gshared
w1f:_RSAManaged_ExportParameters_m2873993187
Jlf:_Enumerator__ctor_m2816143215_AdjustorThunk
W8c:__ZN11UnityEngine7Connect16PersistentValuesC2Ev
rpg:_X509Chain_FindParent_m404663796
jTf:_MissingMemberException__ctor_m2164043278
t$d:__Z15CastclassSealedP12Il2CppObjectP11Il2CppClass
xBb:__ZN13EmscriptenWWW10OnProgressEPvjj
Yrg:_Interpreter_GetGroupInfo_m312421921
vJb:__Z19TransferField_ArrayI17RemapPPtrTransfer27Converter_UnityEngineObjectEvRK23StaticTransferFieldInfoR31RuntimeSerializationCommandInfoRT0_
UPi:__Z120RuntimeInvoker_Void_t1841601450_Single_t2076509932_Single_t2076509932_Single_t2076509932_Single_t2076509932_Il2CppObjectPK10MethodInfoPvPS2_
fLf:_NumberFormatter_InitDecHexDigits_m1612588520
w5e:_Object_Instantiate_TisIl2CppObject_m4219963824_gshared
yLf:_IntPtr_System_Runtime_Serialization_ISerializable_GetObjectData_m21554269_AdjustorThunk
Xpa:__ZN29SerializeTraitsForStringTypesIN4core12basic_stringIcNS0_20StringStorageDefaultIcEEEEE8TransferI24GenerateTypeTreeTransferEEvRS4_RT_
sK:__ZN4FMOD6System9createDSPEP20FMOD_DSP_DESCRIPTIONPPNS_3DSPE
Yz:__ZN7mecanim9animation26DestroyControllerWorkspaceEPNS0_19ControllerWorkspaceERNS_6memory9AllocatorE
AG:__ZN4FMOD8ChannelI11EndCallbackEv
qZd:_ToBase64Transform_TransformBlock_m2201454137
xmc:__ZN8GUIStyle14SetDefaultFontEPN13TextRendering4FontE
jth:_OpCode_get_StackBehaviourPop_m3787015663_AdjustorThunk
Ukj:_PatternCompiler_EmitCount_m3609178511
rrb:__ZN15QualitySettings23VirtualRedirectTransferER24GenerateTypeTreeTransfer
KAj:_U3CCreateWhereIteratorU3Ec__Iterator1D_1_System_Collections_Generic_IEnumerableU3CTSourceU3E_GetEnumerator_m2682676065_gshared
pQh:_GUIStyle_Internal_GetCursorStringIndex_m1491806746
t_h:_Enumerator_VerifyState_m262343092_AdjustorThunk
$md:__ZN6il2cpp2os10FileHandleC2Ev
xhc:__Z59Register_UnityEngine_MonoBehaviour_Internal_CancelInvokeAllv
Wdd:__ZN30dense_hashtable_const_iteratorINSt3__24pairIK10KeyWrapperIPK19Il2CppGenericMethodEPK26Il2CppGenericMethodIndicesEES6_N6il2cpp8metadata23Il2CppGenericMethodHashEN14dense_hash_mapIS6_SA_SE_NS6_14EqualsComparerINSD_26Il2CppGenericMethodCompareEEENS0_9allocatorISB_EEE9SelectKeyESI_SK_EppEv
Zig:_HybridDictionary_Add_m1037587952
USh:_Mathf_Cos_m238853451
XMc:_UNITY_FT_Request_Metrics
iBd:__ZN6il2cpp6icalls8mscorlib6System10Reflection10MonoMethod29get_IsGenericMethodDefinitionEP22Il2CppReflectionMethod
Pxd:__ZN6il2cpp2vm6Thread21AllocThreadStaticDataEi
hle:_DateTime_YearMonthDayFormats_m4204607055
EGe:_ColorBlock_set_disabledColor_m3502887543_AdjustorThunk
zKd:__ZN30dense_hashtable_const_iteratorINSt3__24pairIK10KeyWrapperIPK19Il2CppGenericMethodEP10MethodInfoEES6_N6il2cpp8metadata23Il2CppGenericMethodHashEN14dense_hash_mapIS6_S9_SD_NS6_14EqualsComparerINSC_26Il2CppGenericMethodCompareEEENS0_9allocatorISA_EEE9SelectKeyESH_SJ_EppEv
wO:__Z13RegisterClassI13AudioListenerEvv
lAj:_Aes__ctor_m4020215067
xD:__ZN23AnimationOffsetPlayable11GetPositionEv
src:__Z18Transfer_BlittableI9JSONWriteLb0E8Vector3fEvRK29SerializationCommandArgumentsR31RuntimeSerializationCommandInfo
Wf:_emscripten_glUniform4i
ZKe:_Graphic_OnDisable_m2360886868
vGj:_ObjectPool_1_Release_m1615270002_gshared
gf:_emscripten_glUniform4f
zj:___unlock
ifi:_ScrollRect_InternalCalculateOffset_m3083065267
dge:_Comparer_Compare_m4132969818
CM:__ZN20SoundChannelInstance19setReverbPropertiesEP29FMOD_REVERB_CHANNELPROPERTIES
ZC:__ZNK26AnimatorControllerPlayable14IsInTransitionEi
U5h:_DefaultComparer_Equals_m2171836276_gshared
Gzd:__ZN6il2cpp2vm9Exception18GetFormatExceptionEPKc
ikc:__Z40Register_UnityEngine_Transform_IsChildOfv
XPh:_GUIStyle_Draw_m1435796321
Xde:_ArrayList_Sort_m923359189
tec:__Z45Register_UnityEngine_Display_GetSystemExtImplv
Zmi:_InternalEnumerator_1_System_Collections_IEnumerator_get_Current_m3088751576_gshared
uGi:__Z78RuntimeInvoker_Void_t1841601450_Int64_t909078037_Il2CppObject_Int64_t909078037PK10MethodInfoPvPS2_
P2i:_Bounds_set_center_m2069004927_AdjustorThunk
Doc:__Z46GUIStyle_CUSTOM_Internal_DrawWithTextSelectionP12Il2CppObjectR43MonoInternal_DrawWithTextSelectionArguments
X9c:__ZL17log2withScale_128yyi
x$c:__ZNSt3__218__insertion_sort_3IRNS_6__lessIN2UI14DepthSortEntryES3_EEPS3_EEvT0_S7_T_
cwh:_MonoField_CheckGeneric_m1527550038
zZ:__ZN13RuntimeStaticI15DirectorManagerLb0EE16StaticInitializeEPv
v0f:_AttrListImpl_Add_m130708252
sCh:_Thread_get_ManagedThreadId_m1995754972
fze:_BaseInput_get_touchCount_m998724785
Zxb:__ZN11TimeManager6UpdateEv
DQe:_InputField_get_preferredWidth_m3185355225
GLh:_GUIUtility_get_pixelsPerPoint_m2667928361
jCh:_Thread_SetState_m3198426726
pee:_ArrayListWrapper_Contains_m1158465965
DPj:_fflush
voa:__ZN17LightProbeContext4InitERK16LightmapSettingsRK14RenderSettings
eUd:__GLOBAL__sub_I_Error_cpp
fnj:_Alternation_GetWidth_m4218808325
Poa:__ZN9Texture3DD2Ev
lkg:_TypeConverterAttribute__ctor_m4061167050
uGd:__ZN6il2cpp2vm11MethodStack17GetStackFramesRawEv
wfg:_RecordProtocol_ProcessChangeCipherSpec_m3233959862
s1a:__Z34ProcessIndexListIsNodeVisibleStep2RK22SceneCullingParametersPK9SceneNodePK4AABBR9IndexList
rCb:__ZN10MonoScriptD2Ev
phi:_Slider_OnRectTransformDimensionsChange_m4109401172
vmg:_WebHeaderCollection_Get_m3391944907
fZ:__GLOBAL__sub_I_half_cpp
Rfc:__Z39Input_CUSTOM_INTERNAL_get_mousePositionP8Vector3f
ASc:_tt_cmap13_char_next
yOa:__ZN9ShaderLab4Pass16SetupPassOptionsEv
Iaj:_AnimatorControllerPlayable_INTERNAL_CALL_SetTriggerID_m508896534
WEj:_UnityEvent_4__ctor_m3102731553_gshared
jh:_JS_Sound_ReleaseInstance
$0g:__ZL72IL2CPPStructAlignmentAttribute_t130316838_CustomAttributesCacheGeneratorP21CustomAttributesCache
Pua:__ZN13GfxDeviceGLES19DrawBuffersIndirectEP9GfxBufferPK18VertexStreamSourceiP17VertexDeclaration17ShaderChannelMask16GfxPrimitiveType15ComputeBufferIDj
bZh:_Renderer_get_sortingLayerID_m2403577271
fZj:_emscripten_glPixelStorei__wrapper
IQb:__Z29Transfer_Blittable_ArrayFieldI18StreamedBinaryReadILb0EEaEvRT_R9ArrayInfoRK23StaticTransferFieldInfo
lic:__Z21Resources_CUSTOM_LoadP12Il2CppStringP12Il2CppObject
Fm:FUNCTION_TABLE_diddi
_xd:__ZN6il2cpp6icalls8mscorlib6System5Array8FastCopyEP11Il2CppArrayiS5_ii
sic:__Z26Material_CUSTOM_SetIntImplP12Il2CppObjectii
zIf:_Int16_System_IConvertible_ToSingle_m3277935657_AdjustorThunk
c2i:_AttributeHelperEngine_CheckIsEditorScript_m2980171478
pij:_InternalRemotingServices__cctor_m3821625125
Rec:__Z42Register_UnityEngine_RectOffset_get_bottomv
kzh:_StringBuilder_Insert_m3322917127
b5h:_DefaultComparer_Equals_m724229128_gshared
u_h:_Enumerator_VerifyCurrent_m1702320752_AdjustorThunk
Mme:_Convert_ToDouble_m3520060872
yYj:_emscripten_glUniform1f__wrapper
pTj:dynCall_di
ogg:_SslCipherSuite_ComputeServerRecordMAC_m1876572367
bOc:__ZN20TextRenderingPrivate19NativeTextGeneratorC2ERK11UTF16StringPNS_8FontImplE11ColorRGBA32ifRK8Vector2fbifiibffbbbP13dynamic_arrayIN2UI8UIVertexELj4EE
crc:__Z28RegisterModule_JSONSerializev
dF:__Z111Register_UnityEngine_Experimental_Director_AnimatorControllerPlayable_INTERNAL_CALL_GetAnimatorClipInfoInternalv
DBh:_Interlocked_CompareExchange_m3227034792
tlh:_HashAlgorithm_get_Hash_m931854461
Hvi:_DefaultComparer_Compare_m3564013922_gshared
yXb:__ZN2UI13RectTransform8TransferI14SafeBinaryReadEEvRT_
$8b:__Z20IsHumanControllingUsv
tRa:__ZNK19RenderEventsContext21ExecuteCommandBuffersEijR17ShaderPassContextR15RenderNodeQueueP19ProfilerInformationi
aV:__ZNK20DynamicHeapAllocatorI17LowLevelAllocatorE10GetPtrSizeEPKv
PWf:_MSCompatUnicodeTable_GetTailoringInfo_m2792223347
lcj:_AnimatorControllerPlayable_PlayInFixedTime_m172593751
MTd:__ZN6il2cpp2os9EventImpl3SetEv
TIe:_Dropdown_set_value_m2945561009
Gua:__ZN13GfxDeviceGLES17DestroyGpuProgramEPK10GpuProgram
hGf:_GregorianCalendar_GetMonth_m523739832
hFb:__Z44InitializeTransferFunctionScriptingTraitsForI18StreamedBinaryReadILb0EEEvR31TransferFunctionScriptingTraits
sZa:__ZNSt3__218__insertion_sort_3IR23CompareReflectionProbesP31RuntimeReflectionProbeBlendInfoEEvT0_S5_T_
FJb:__ZN12NativeBufferI27Converter_SimpleNativeClassI8GradientEE15SetupForWritingER9ArrayInfo
MKh:_GameObject_AddComponent_m3757565614
daa:__ZN12_GLOBAL__N_113StaticDestroyEPv
YHf:_Guid_ToString_m51661589
elc:__ZNK8GUIStyle4DrawER8GUIStateRK5RectTIfER10GUIContentbbbb
Whi:_Text_set_font_m1095513810
i1j:_glUnmapBuffer__wrapper
Vpe:_DateTime_System_IConvertible_ToUInt32_m1363211018_AdjustorThunk
WNe:_InputField_get_cachedInputTextGenerator_m881618486
_3i:_Canvas_get_rootCanvas_m1790974328
Jgc:__Z32Mesh_CUSTOM_ExtractArrayFromListP12Il2CppObject
enh:_Binder_get_DefaultBinder_m965620943
hvc:__ZN8JSONRead21TransferSTLStyleArrayINSt3__26vectorI8Gradient13stl_allocatorIS3_L18MemLabelIdentifier1ELi16EEEEEEvRT_17TransferMetaFlags
vyb:__ZNSt3__218__insertion_sort_3IRNS_6__lessINS_4pairIPKN5Unity4TypeE7Hash128EES8_EEPS8_EEvT0_SC_T_
XKb:__ZN10RectOffset8TransferI24GenerateTypeTreeTransferEEvRT_
y8d:_SimpleEnumerator_get_Current_m482975946
Q9b:__Z18GetResourceManagerv
hQj:_srand
j$c:__ZN2UI13CanvasManager19RemoveDirtyRendererEPNS_6CanvasEPNS_14CanvasRendererE
Ved:__ZN15dense_hashtableI10KeyWrapperIPK17Il2CppGenericInstES4_N6il2cpp8metadata21Il2CppGenericInstHashEN14dense_hash_setIS4_S7_NS4_14EqualsComparerINS6_24Il2CppGenericInstCompareEEENSt3__29allocatorIS4_EEE8IdentityESB_SE_E12resize_deltaEjj
i2i:_AudioClip_InvokePCMSetPositionCallback_Internal_m2304858844
e6c:__ZN11UnityEngine15PlatformWrapper25GetGraphicsRendererStringEv
RPe:_InputField_KeyPressed_m3066588581
nwj:_Time_get_unscaledTime_m862335845
tfd:__ZNK15dense_hashtableINSt3__24pairIK10KeyWrapperI13dynamic_arrayIPK10Il2CppTypeLj4EEEPFvvEEES8_N6il2cpp8metadata19Il2CppSignatureHashEN14dense_hash_mapIS8_SB_SF_NS8_14EqualsComparerINSE_22Il2CppSignatureCompareEEENS0_9allocatorISC_EEE9SelectKeyESJ_SL_E13find_positionERS9_
ugi:_Selectable_DoStateTransition_m539253088
zYd:_SHA512_Create_m439875055
Vb:invoke_vi
rYd:_SHA384Managed_update_m2629600295
dEc:__ZNSt3__26vectorINS0_IN10ClipperLib8IntPointENS_9allocatorIS2_EEEENS3_IS5_EEE7reserveEj
IJa:__ZN15dense_hashtableINSt3__24pairIKN4core12basic_stringIcNS2_20StringStorageDefaultIcEEEEP20ArchiveStorageReaderEES6_20StringHash32FunctionIS6_EN14dense_hash_mapIS6_S9_SC_NS0_8equal_toIS6_EE13stl_allocatorISA_L18MemLabelIdentifier54ELi16EEE9SelectKeyESF_SI_ED2Ev
Tb:invoke_vd
tb:invoke_vf
wQh:_GUIStyle_Internal_CalcSizeWithConstraints_m3375255978
s5:__ZNK10GameObject8IsActiveEv
Qdc:__Z34Component_Get_Custom_PropTransformP12Il2CppObject
gjh:_SByte_System_IConvertible_ToUInt32_m4256495110
JBe:_PointerEventData_set_eligibleForClick_m2036057844
DDa:__ZN18GfxFramebufferGLES23SetupDefaultFramebufferEPP17RenderSurfaceBaseS2_N2gl6HandleILNS3_10ObjectTypeE9EEE
LPj:_mbsinit
FPh:_GUIStyle_get_Internal_clipOffset_m4237737448
k3g:__ZL70EventSystem_t3466835263_CustomAttributesCacheGenerator_m_FirstSelectedP21CustomAttributesCache
Jbd:__ZN6il2cpp2vm5Class12SetupMethodsEP11Il2CppClass
uS:__ZN11UnityEngine15CloudWebService13WWWRestClient18GetResponseHeadersEv
icc:__Z39DeleteLastPathNameComponentWithAnySlashRKN4core12basic_stringIcNS_20StringStorageDefaultIcEEEE
xU:__ZN13EmscriptenWWW14BlockUntilDoneEv
h7g:__ZL68InputField_t1631627530_CustomAttributesCacheGenerator_m_KeyboardTypeP21CustomAttributesCache
Aji:_VerticalLayoutGroup_CalculateLayoutInputHorizontal_m497637066
Mva:__ZN13GfxDeviceGLES17UploadTextureCubeE9TextureIDPKhiii13TextureFormati18TextureUploadFlags17TextureColorSpace
SYh:_RectTransformUtility_PixelAdjustPoint_m560908615
Qij:_MethodCall__ctor_m4106494862
Toc:__Z37Register_UnityEngine_GUIStyle_Cleanupv
Oa:invoke_iiifii
aMf:_BinaryReader_FillBuffer_m3097603599
_kd:__ZN6il2cpp6icalls8mscorlib6System8MonoType13IsPointerImplEP20Il2CppReflectionType
wme:_Convert_ToDecimal_m2284596541
dtb:__ZN14Texture2DArray34UpdateFileTextureUploadInstructionEP28FileTextureUploadInstructionj
Si:_emscripten_glFramebufferRenderbuffer
SKf:_Int64_GetHashCode_m4047499913
C4a:__ZN9Transform30EnsureTransformHierarchyExistsEv
gP:__ZN11AudioModule26SetDefaultMicrophoneDriverEPv
W8d:_Attribute_IsDefined_m216577166
ucc:__Z46Register_UnityEngine_Application_get_isPlayingv
api:_InternalEnumerator_1_get_Current_m1089848479_gshared
Lue:_Double_System_IConvertible_ToInt64_m3798425616
sDe:_StandaloneInputModule_get_repeatDelay_m3025279
Hg:___cxa_find_matching_catch_4
nhc:__ZN13MonoBehaviour13StopCoroutineEPKc
F7a:__ZNSt3__26vectorINS_4pairIN4core12basic_stringIcNS2_20StringStorageDefaultIcEEEEPK17MessageIdentifierEENS_9allocatorISA_EEE12__move_rangeEPSA_SE_SE_
pVa:__ZN14qsort_internal17MedianOfThreeSwapIP17RODataReplacement19ROSorterReplacementEEvT_S4_S4_T0_
zad:__ZNK15dense_hashtableINSt3__24pairIK10KeyWrapperIPK22Il2CppGenericParameterEP11Il2CppClassEES6_N6il2cpp5utils11PointerHashIS4_EEN14dense_hash_mapIS6_S9_SE_NS6_14EqualsComparerINS0_8equal_toIS5_EEEENS0_9allocatorISA_EEE9SelectKeyESJ_SL_E3endEv
ecc:__ZN17TransformInternal36OnScaleChangedCalculateTransformTypeE15TransformAccess
tfe:_SynchronizedArrayListWrapper_InsertRange_m709359548
eMa:__ZN17ArchiveFileSystem10ToAbsoluteEPKc
p6f:_BigInteger_op_Modulus_m13450242
qWi:__Z56RuntimeInvoker_Int32_t2071877448_RaycastResult_t21186376PK10MethodInfoPvPS2_
mne:_Convert_ToInt32_m2988544165
r1e:_Array_Resize_TisColor32_t874517518_m2219502085_gshared
ww:__ZN7mecanim6CRCKeyENS_7eStringE
gig:_SslStreamBase_get_CanWrite_m2069502593
aZb:__ZL12SetPrefValueRKN4core12basic_stringIcNS_20StringStorageDefaultIcEEEERK9PrefValue
e0:__ZN19ShaderPropertySheet20ReservePropertyCountEj
LGd:__ZN6il2cpp5utils11StringUtils6PrintfEPKcz
Lwd:__ZNSt3__26vectorIN6il2cpp8metadata18GenericArrayMethodENS_9allocatorIS3_EEE7reserveEj
Sia:__ZN15NameToObjectMapI6ShaderNSt3__23mapI4PPtrIS0_EN4core12basic_stringIcNS5_20StringStorageDefaultIcEEEENS1_4lessIS4_EENS1_9allocatorINS1_4pairIKS4_S9_EEEEEENS1_8multimapIS9_S4_NSA_IS9_EENSC_INSD_IKS9_S4_EEEEEEE4FindERSK_
C_h:_ShimEnumerator_Reset_m98005789_gshared
cad:__ZN6il2cpp6icalls8mscorlib6System7Decimal13decimal2Int64EP19il2cpp_decimal_reprPx
dVh:_Object_INTERNAL_CALL_Internal_InstantiateSingle_m3932420250
aGd:__ZN6il2cpp2vm6Object5CloneEP12Il2CppObject
Kzf:_ReadOnlyCollection_1_System_Collections_IList_set_Item_m1377990618_gshared
CPa:_UNITY_png_zstream_error
_rh:_ILGenerator_make_room_m373147874
_Rd:__ZN6il2cpp6icalls8mscorlib6System9Threading5Mutex20CreateMutex_internalEbP12Il2CppStringPb
F0j:_emscripten_glLinkProgram__wrapper
rae:_Boolean_CompareTo_m3691698947_AdjustorThunk
X0f:_PKCS1_Verify_v15_m2571212635
Llb:__ZNSt3__212__deque_baseI18ReflectionProbeJobNS_9allocatorIS1_EEED2Ev
Kv:__ZN11UnityEngine9Animation27DestroyAnimationSetBindingsEPNS0_20AnimationSetBindingsERN7mecanim6memory9AllocatorE
ESb:__ZN15dense_hashtableINSt3__24pairIKiN4core17string_with_labelILi1EEEEEi18SInt32HashFunctionN14dense_hash_mapIiS5_S7_NS0_8equal_toIiEE13stl_allocatorIS6_L18MemLabelIdentifier1ELi16EEE9SelectKeyESA_SD_E13set_empty_keyERKS6_
TB:__ZN8Animator12CleanupClassEv
h5d:_DecoderReplacementFallbackBuffer__ctor_m1305504326
fvc:__Z13TransferFieldI8JSONReadLb0E27Converter_SimpleNativeClassI10RectOffsetEEvRK23StaticTransferFieldInfoR31RuntimeSerializationCommandInfoRT1_
J2d:_String_IndexOf_m570401060
vve:_Enum_System_IConvertible_ToDateTime_m2924690746
wdb:__ZN11AssetBundle9AssetInfo8TransferI14SafeBinaryReadEEvRT_
tJe:_Dropdown_CreateBlocker_m4109366440
olh:_HashAlgorithm_System_IDisposable_Dispose_m2106335965
rCd:__GLOBAL__sub_I_GenericMetadata_cpp
xWh:_RangeAttribute__ctor_m1657271662
dlc:__ZNK8GUIStyle4DrawER8GUIStateRK5RectTIfER10GUIContentib
GVa:__ZNK17InstancedPropInfo14IsInstanceableERK19ShaderPropertySheet
V0a:__Z24CalculateSpotLightBoundsffRK10Matrix4x4fR15SpotLightBounds
OWf:_TailoringInfo__ctor_m2248501932
vQ:__ZN23CloudWebServicesManager23VirtualRedirectTransferER14SafeBinaryRead
Ree:_FixedSizeArrayListWrapper_InsertRange_m2690348965
QDb:__Z19ShouldTransferFieldR32SerializationCommandQueueBuilder17ScriptingClassPtriR18TransferField_InfoRK20CoreScriptingClasses
xth:_FieldInfo_get_IsStatic_m1411173225
tPf:_MemoryStream_Read_m2289595005
xL:__ZN5audio5mixer22UpdateAudioMixerMemoryERKNS0_18AudioMixerConstantERNS0_16AudioMixerMemoryEfPN4FMOD6SystemEf
OKc:__ZL21InitializeCachedStripPv
K$i:_CustomEventData_Add_m4139356558
uyd:__ZN6il2cpp6icalls8mscorlib6System9Threading6Thread23GetCachedCurrentCultureEP12Il2CppThread
Pfi:_Selectable_get_allSelectables_m3045831006
qVa:__ZNK6Camera22GetWorldToCameraMatrixEv
qGd:__ZN6il2cpp2vm12GenericClass11IsValueTypeEP18Il2CppGenericClass
dDb:__ZN13MonoBehaviour7SetNameEPKc
j9f:_ContentInfo__ctor_m3579805263
Xei:_ScrollRect_get_verticalNormalizedPosition_m1701804869
Dna:__ZN18AwakeFromLoadQueue5ClearEv
n0h:_Enumerator_get_Current_m2986380627_AdjustorThunk
G$a:__ZNSt3__27__sort5IR15ReflProbeSorterPP15ReflectionProbeEEjT0_S6_S6_S6_S6_T_
VZ:__ZN8Playable10DisconnectEPS_i
uk:_glGenTransformFeedbacks
Qra:__ZN13LoadOperationD2Ev
D$f:_KeyPairPersistence__ctor_m1817312194
hTe:_Array_InternalArray__ICollection_Contains_TisMark_t2724874473_m1640201705_gshared
Rla:__Z21PlayerStartFirstSceneb
Pph:_TypeBuilder_get_AssemblyQualifiedName_m2097258567
Gia:__ZNSt3__27__sort5IRPFbRKNS_4pairIN9ShaderLab16FastPropertyNameEN18UnityPropertySheet11UnityTexEnvEEES8_EPS6_EEjT0_SD_SD_SD_SD_T_
hza:__ZNK7ApiGLES18GetExtensionStringEv
WFa:__ZN31TransformFeedbackSkinPoseBufferD0Ev
zYj:_emscripten_glVertexAttrib1f__wrapper
nLa:__ZNK12HandlerChain4SizeERK13FileEntryData
w5h:_DefaultComparer_Equals_m1281232537_gshared
fp:FUNCTION_TABLE_iiiiiiiii
cPe:_InputField_set_asteriskChar_m619206227
skh:_DES_IsSemiWeakKey_m3967392585
Y5:__Z24GetComponentOrScriptNameRN5Unity9ComponentE
hEc:__Z22GetPhysicsGroundBody2Dv
_wh:_MonoProperty_get_PropertyType_m1921201152
RHe:_FloatTween_TweenValue_m3881535116_AdjustorThunk
_Md:_GC_allochblk
n5c:__ZN22BaseUnityConnectClient19SendAppRunningEventEv
Gna:__Z15UnloadGameScenev
d1j:_glCheckFramebufferStatus__wrapper
u5f:_BigInteger_get_Rng_m2525288368
Wfh:_BinaryCommon_IsPrimitive_m2132448955
yx:__ZN7mecanim9animation14DeltasFromClipERKNS0_18ClipMuscleConstantERKNS0_12ClipBindingsERKNS_14ValueArrayMaskERNS_10ValueArrayESB_SB_
Qqg:_X509ExtensionEnumerator_Reset_m3200687545
ege:_CaseInsensitiveHashCodeProvider__ctor_m3775398833
Yvi:_Comparer_1_System_Collections_IComparer_Compare_m674728644_gshared
Dfc:__Z36Renderer_Get_Custom_PropSortingOrderP12Il2CppObject
gqd:__ZNK15dense_hashtableINSt3__24pairIK10KeyWrapperIPK10Il2CppTypeEjEES6_N6il2cpp8metadata14Il2CppTypeHashEN14dense_hash_mapIS6_jSB_NS6_14EqualsComparerINSA_26Il2CppTypeEqualityComparerEEENS0_9allocatorIS8_EEE9SelectKeyESF_SH_E13find_positionERS7_
Uca:__ZN7Texture5ResetEv
zxc:__ZNK14b2CapsuleShape7RayCastEP15b2RayCastOutputRK14b2RayCastInputRK11b2Transformi
PJb:__Z18Transfer_BlittableI24GenerateTypeTreeTransferLb1EhEvRK29SerializationCommandArgumentsR31RuntimeSerializationCommandInfo
_Ic:__ZN10Collider2D16TransformChangedEi
ybc:__ZNK16TypeTreeIterator10ByteOffsetEv
ZWe:_Array_FindLastIndex_TisIl2CppObject_m3885928623_gshared
EKe:_Graphic_get_rectTransform_m2697395074
d8:__ZnwjRKSt9nothrow_t
cs:__ZN8Animator11ClearObjectEv
vAb:__ZNSt3__26vectorIi13stl_allocatorIiL18MemLabelIdentifier12ELi16EEE8__appendEj
GJf:_Int32_System_IConvertible_ToSingle_m4225885999_AdjustorThunk
zfd:__ZN15dense_hashtableINSt3__24pairIK10KeyWrapperI13dynamic_arrayIPK10Il2CppTypeLj4EEEPFvvEEES8_N6il2cpp8metadata19Il2CppSignatureHashEN14dense_hash_mapIS8_SB_SF_NS8_14EqualsComparerINSE_22Il2CppSignatureCompareEEENS0_9allocatorISC_EEE9SelectKeyESJ_SL_E12maybe_shrinkEv
Xga:__ZN14SafeBinaryRead19TransferSTLStyleMapINSt3__23mapI39DeprecatedFastPropertyNameSerializationN18UnityPropertySheet11UnityTexEnvENS1_4lessIS3_EENS1_9allocatorINS1_4pairIKS3_S5_EEEEEEEEvRT_17TransferMetaFlags
Chc:__Z45Register_UnityEngine_MonoBehaviour_IsInvokingv
PGi:__Z65RuntimeInvoker_Void_t1841601450_Int64_t909078037_Int64_t909078037PK10MethodInfoPvPS2_
Clg:_IPv6Address_set_ScopeId_m1442934355
lhh:_ObjectManager_RaiseOnDeserializedEvent_m512850179
kac:__Z35UnregisterSerializationCacheBuilderPFv17ScriptingClassPtrR23CachedSerializationDataRbE
xfa:__Z30GetBuiltinVectorParamArraySize24BuiltinShaderVectorParam
AWf:_CodePointIndexer__ctor_m797342079
bxb:__Z14RecalculateUVs14StrideIteratorI8Vector2fES1_S_I8Vector3fER9Texture2DRKS0_RK5RectTIfERK8Vector4fSB_S7_21SpritePackingRotation
w2a:__ZN21RendererUpdateManager11AddRendererER8Renderer
F_b:__Z13RegisterClassI15ResourceManagerEvv
hub:__ZN14SafeBinaryRead21TransferSTLStyleArrayI13dynamic_arrayIfLj4EEEEvRT_17TransferMetaFlags
MGd:__ZN6il2cpp5utils11StringUtils11Utf16ToUtf8EPKDs
Bvh:_MonoEventInfo_GetEventInfo_m2331957186
v6c:__ZN11UnityEngine15PlatformWrapper20IsRootedOrJailbrokenEv
tog:_X509Certificate2_GetNameInfo_m402390219
Q0a:__Z33IntersectAABBPlaneBoundsOptimizedRK4AABBPKN4math7_float4Ei
D8d:_Swapper_BeginInvoke_m2652511022
XXh:_RectOffset_t3387826427_marshal_pinvoke_back
KAh:_UTF8Encoding_GetBytes_m2973831055
Tua:__ZN9GfxDevice19EndGeometryJobFrameEv
kDf:_Comparison_1_Invoke_m2645957248_gshared
KJb:__ZN27Converter_SimpleNativeClassI17AnimationCurveTplIfEE17ScriptingToNativeER18ScriptingObjectPtrPS1_
cJi:__Z197RuntimeInvoker_Boolean_t3825574718_Il2CppObject_Il2CppObject_Il2CppObject_Int32_t2071877448_DateTimeU26_t3448131235_SByte_t454417549_BooleanU26_t3168250738_SByte_t454417549_ExceptionU26_t1467204777PK10MethodInfoPvPS2_
PSd:__ZN6il2cpp8metadata24Il2CppGenericInstCompare7CompareERK10KeyWrapperIPK17Il2CppGenericInstES8_
Tdd:__ZNK15dense_hashtableINSt3__24pairIK10KeyWrapperIPK19Il2CppGenericMethodEPK26Il2CppGenericMethodIndicesEES6_N6il2cpp8metadata23Il2CppGenericMethodHashEN14dense_hash_mapIS6_SA_SE_NS6_14EqualsComparerINSD_26Il2CppGenericMethodCompareEEENS0_9allocatorISB_EEE9SelectKeyESI_SK_E5beginEv
VKe:_Graphic_get_materialForRendering_m2600868951
xcj:_AnimatorControllerPlayable_INTERNAL_CALL_PlayInternal_m3496633968
xqf:_Collection_1_System_Collections_IList_Contains_m3210868188_gshared
VHa:__ZN9GfxDevice22UploadTextureCubeArrayE9TextureIDPKhjii13TextureFormati18TextureUploadFlags17TextureColorSpace
a0b:__ZNK17AnimationCurveTplIfE8EvaluateEfPNS0_5CacheE
oNa:__Z31ManagerContextInitializeClassesv
SEf:_NumberFormatter_AppendIntegerString_m868842252
czg:__ZL53SortedList_t3004938869_CustomAttributesCacheGeneratorP21CustomAttributesCache
zNc:_UNITY_FT_List_Finalize
FWa:__Z20LightAttenuateApproxRKfS0_
c3:__ZN9Scripting30SetCachedPtrOnScriptingWrapperE18ScriptingObjectPtrP6Object
_H:__ZNK12AudioManager26GetTypeInfoVirtualInternalEv
rMb:__Z18Transfer_BlittableI19StreamedBinaryWriteILb0EELb0EdEvRK29SerializationCommandArgumentsR31RuntimeSerializationCommandInfo
y4d:_ASCIIEncoding_GetBytes_m3649277167
KLh:_GUILayoutUtility_Internal_GetWindowRect_m1287880151
Tzc:__ZN16b2PrismaticJoint4DumpEv
YPi:__Z49RuntimeInvoker_Il2CppObject_Il2CppObject_IntPtr_tPK10MethodInfoPvPS2_
ZUf:_MonoType_GetObjectData_m2888677152
Cqa:__ZN18BlockRangeInternal16PopLastNodeIndexEP10BlockRangeji
I7e:_Enumerator_System_Collections_IEnumerator_Reset_m886102771_AdjustorThunk
SZf:_Kernel_MultiplyByDword_m155008287
ytb:__ZN4MeshD0Ev
G9c:__ZL42RequestRecreateEyeTexturesBeforeNextUpdatev
Nea:__ZNK6Camera20IsCurrentlyRenderingEv
wai:_LayoutUtility_U3CGetMinHeightU3Em__4_m1769295917
V1c:__Z36CanvasRenderer_CUSTOM_SetPopMaterialP12Il2CppObjectS0_i
esc:__Z18Transfer_BlittableI9JSONWriteLb0EdEvRK29SerializationCommandArgumentsR31RuntimeSerializationCommandInfo
pzc:__ZNK11b2GearJoint16GetReactionForceEf
qxf:_ReadOnlyCollection_1_System_Collections_IList_Insert_m3679749778_gshared
bji:_Toggle_OnDidApplyAnimationProperties_m325835214
AOj:_wctomb
Raj:_AnimatorControllerPlayable_INTERNAL_CALL_IsParameterControlledByCurveString_m1715379406
wdc:__Z27Camera_CUSTOM_GetAllCamerasP11Il2CppArray
gke:_Convert_InternalFromBase64String_m3682756716
bd:___cxa_rethrow
Ctc:__Z18Transfer_BlittableI8JSONReadLb1EhEvRK29SerializationCommandArgumentsR31RuntimeSerializationCommandInfo
zGc:__ZN18Overlap2DQueryBase13ReportFixtureEP9b2Fixture
Omj:_Regex_System_Runtime_Serialization_ISerializable_GetObjectData_m4035555909
KDh:_TimeSpan_Add_m3228293154
z5h:_DefaultComparer_Equals_m4098991076_gshared
u4a:__ZN13MonoBehaviour8SetClassE17ScriptingClassPtr18ScriptingObjectPtr
Q8f:_RC4__cctor_m523650203
Uhj:_CrossContextDelegate_Invoke_m2908136830
EW:__ZN20LocalFileSystemPosix4ReadER13FileEntryDatayyPvPy
e_a:__ZNSt3__211__sift_downIRN23ForwardShaderRenderLoop18RenderObjectSorterILb0EEEP21ForwardRenderPassDataEEvT0_S7_T_NS_15iterator_traitsIS7_E15difference_typeES7_
vSf:_UnmanagedMemoryStream_get_Position_m4093669769
$Uj:dynCall_iiiiiiffiiiiiiiiiffffiiii
tDb:__ZN13MonoBehaviour5DoGUIENS_13GUILayoutTypeEii
Jph:_DerivedType_IsDefined_m555719351
ekj:_Mark_get_IsDefined_m3332701456
ybb:__ZNK12TLSAllocatorI14StackAllocatorE8ContainsEPKv
$xb:__ZN11TimeManager8TransferI18StreamedBinaryReadILb0EEEEvRT_
WWb:__ZN15SerializeTraitsINSt3__23mapI4PPtrI6ShaderEN4core12basic_stringIcNS5_20StringStorageDefaultIcEEEENS0_4lessIS4_EENS0_9allocatorINS0_4pairIKS4_S9_EEEEEEE8TransferI24GenerateTypeTreeTransferEEvRSH_RT_
Dkh:_DESTransform__cctor_m1179482644
Mtb:__ZN14BlendShapeData8TransferI14SafeBinaryReadEEvRT_
Vvj:_TextGenerator_PopulateWithErrors_m467881283
Gve:_Enum_Format_m2294492821
ynb:__ZN7Texture25ReloadFromStorageIfNeededEPvb
QAb:__ZN24GenerateTypeTreeTransfer8TransferINSt3__26vectorIN30RuntimeInitializeOnLoadManager15ClassMethodInfoE13stl_allocatorIS4_L18MemLabelIdentifier12ELi16EEEEEEvRT_PKc17TransferMetaFlags
F_h:_ShimEnumerator_get_Entry_m2332479818_gshared
Bqe:_DateTime_CheckDateTimeKind_m329345155_AdjustorThunk
HYc:_Update_Max
Pcj:_PlayableHandle_Equals_m1435096530_AdjustorThunk
hyd:__ZN6il2cpp6icalls8mscorlib6SystemL15ThrowNoWideningEv
k0b:__ZNK23TransformChangeDispatch24GetChangeMaskForInterestENS_12InterestTypeE
Njc:__Z45Transform_CUSTOM_INTERNAL_CALL_TransformPointP12Il2CppObjectRK8Vector3fRS1_
fqf:__ZN23InterfaceActionInvoker2Ii18Color32_t874517518E6InvokeEjP11Il2CppClassP12Il2CppObjectiS0_
bbb:__ZL10KeyHandleriPK23EmscriptenKeyboardEventPv
dMg:__ZL64ThreadStaticAttribute_t1787731584_CustomAttributesCacheGeneratorP21CustomAttributesCache
uha:__ZNSt3__26__treeINS_12__value_typeI39DeprecatedFastPropertyNameSerializationfEENS_19__map_value_compareIS2_S3_NS_4lessIS2_EELb1EEENS_9allocatorIS3_EEE7destroyEPNS_11__tree_nodeIS3_PvEE
dSc:_tt_cmap4_char_index
_1i:_AsyncOperation_get_allowSceneActivation_m2825451182
jEh:_TimeSpan_op_Addition_m3421801803
xLa:__ZNK12HandlerChain8IsHiddenERK13FileEntryData
C6g:__ZL50Graphic_t2426225576_CustomAttributesCacheGeneratorP21CustomAttributesCache
cJb:__ZL26Transfer_SimpleNativeClassI17RemapPPtrTransfer10RectOffsetLb0EEvRK29SerializationCommandArgumentsR31RuntimeSerializationCommandInfo
aOc:__Z14ValidateFormatR13dynamic_arrayIN20TextRenderingPrivate16TextFormatChangeELj4EE
hyj:_Vector2_op_Implicit_m1064335535
Dpe:_DateTime_System_IConvertible_ToInt32_m2789391054_AdjustorThunk
A_f:_ASN1Convert_FromInt32_m1541043489
MCe:_PointerInputModule_ProcessMove_m3200120346
Pke:_Convert_ToByte_m1008221737
R7f:_MD2Managed_MD2Transform_m3825201358
i8g:__ZL69Scrollbar_t3248359358_CustomAttributesCacheGenerator_m_OnValueChangedP21CustomAttributesCache
BDc:__ZN10ClipperLib14PointInPolygonERKNS_8IntPointEPNS_5OutPtE
YIe:_Dropdown_AddOptions_m835420907
gzj:_Vector4_get_sqrMagnitude_m2115578799_AdjustorThunk
zfa:__ZNK9ShaderLab20ShaderBlendStateDesc15ToGfxBlendStateEPK19ShaderPropertySheetS3_R13GfxBlendState
mGe:_CanvasUpdateRegistry_IsRebuildingLayout_m1677873278
ZEc:__ZN15dense_hashtableINSt3__24pairIKNS1_IPK10Collider2DS4_EE11Collision2DEES5_NS2_23ColliderPairHashFunctorEN14dense_hash_mapIS5_S7_S9_NS0_8equal_toIS5_EE13stl_allocatorIS8_L18MemLabelIdentifier65ELi16EEE9SelectKeyESC_SF_E9copy_fromERKSI_j
_v:__ZN11UnityEngine9AnimationL22GenericBindingCallbackEPvS1_i
pYc:_Compute_Point_Displacement
GWb:__ZN9ShaderLab9IntShaderC2Ev
fld:__ZN6il2cpp6icalls8mscorlib6SystemL9IsPrivateEPK9EventInfo
rRd:__ZN6il2cpp6icalls8mscorlib6System10Reflection4Emit11TypeBuilder20setup_internal_classEP27Il2CppReflectionTypeBuilderS7_
VMh:_RectOffset_set_left_m620681523
QVh:_Physics2D_Raycast_m2560154475
Pki:_ArrayReadOnlyList_1_IndexOf_m1809425308_gshared
nmd:_il2cpp_gc_disable
jE:__Z69AnimatorControllerPlayable_CUSTOM_INTERNAL_CALL_GetLayerIndexInternalR9HPlayableP12Il2CppString
vBe:_ExecuteEvents_U3Cs_HandlerListPoolU3Em__0_m2903690915
Vhe:_Hashtable_Clone_m165405752
Wzc:__ZN16b2PrismaticJoint24SolveVelocityConstraintsERK12b2SolverData
jad:__ZN13Il2CppHashMapIPK22Il2CppGenericParameterP11Il2CppClassN6il2cpp5utils11PointerHashIS1_EENSt3__28equal_toIS2_EENS9_9allocatorINS9_4pairIK10KeyWrapperIS2_ES4_EEEEEC2EjRKS8_RKSB_
Q5c:__ZN11UnityEngine15PlatformWrapper19GetPhysicalMemoryMBEv
IX:__Z15CreateDirectoryRKN4core12basic_stringIcNS_20StringStorageDefaultIcEEEE
Ioa:__Z21CalculateGlobalMatrix23TransformAccessReadOnly
Pxg:__ZL70InternalsVisibleToAttribute_t1037732567_CustomAttributesCacheGeneratorP21CustomAttributesCache
aNf:_MonoIO_GetCurrentDirectory_m1509324201
Xzh:_UTF32Encoding_GetHashCode_m4205784236
Ele:_DateTime_ToUniversalTime_m1815024752
D_b:__Z13RegisterClassI14RenderSettingsEvv
Bvj:_TextGenerator_Finalize_m4242493229
pMf:_BinaryReader_ReadDouble_m488089323
gEh:_TimeSpan_Subtract_m3597791685_AdjustorThunk
hcj:_AnimatorControllerPlayable_CrossFade_m3146661810
az:__ZN7mecanim12statemachine24CreateStateMachineOutputEPKNS0_20StateMachineConstantEjRNS_6memory9AllocatorE
rSh:_Logger__ctor_m3834134587
zld:_il2cpp_assembly_get_image
qva:__ZNK9GfxDevice27GetActiveRenderSurfaceWidthEv
IUe:_SetPropertyUtility_SetClass_TisIl2CppObject_m3524554928_gshared
jdb:__ZNK11AssetBundle26GetTypeInfoVirtualInternalEv
Crj:_PKCS12_get_Keys_m1312614820
g6c:__ZN11UnityEngine15PlatformWrapper28GetCleanGraphicsFixedVersionEv
qod:__ZN6il2cpp2vm4Type7GetTypeEPK10Il2CppType
IXh:_Rect_Contains_m1334685291_AdjustorThunk
T0b:__ZN16SpriteRenderData28PrepareRenderingDataIfNeededEv
I8d:_AssemblyLoadEventHandler_Invoke_m108373765
MQi:__Z64RuntimeInvoker_Boolean_t3825574718_Il2CppObject_Int64_t909078037PK10MethodInfoPvPS2_
zJj:__ZL24UnresolvedVirtualCall_76P12Il2CppObjectPK10MethodInfo
Mka:__ZN6prcoreL17RemapGenericFloatI18TexFormatRGBAFloat17TexFormatRGBAHalfEEvPKNS_9InnerInfoE
SQa:__Z16FindCameraStacksRKNSt3__24listI4PPtrI6CameraENS_9allocatorIS3_EEEERNS_6vectorI11CameraStackNS4_ISA_EEEE
Kzj:_WebRequestUtils__cctor_m893658947
npb:__ZN10GISettings8TransferI14SafeBinaryReadEEvRT_
xn:FUNCTION_TABLE_vifff
Vzf:_ReadOnlyCollection_1_System_Collections_Generic_ICollectionU3CTU3E_Remove_m2957273994_gshared
Dze:_BaseInputModule_ShouldActivateModule_m2899747874
cda:__ZN13RenderTexture13ApplySettingsEv
$e:_JS_Sound_SetListenerPosition
qn:FUNCTION_TABLE_fiffi
_sh:_ModuleBuilderTokenGenerator_GetToken_m3427457873
DCb:__ZN9TextAsset9SetScriptERKN4core12basic_stringIcNS0_20StringStorageDefaultIcEEEEb
cgi:_Selectable_get_isPointerInside_m3162215687
zaf:_List_1_System_Collections_IList_Contains_m149594880_gshared
MXh:_Rect_Overlaps_m4145874649
nJh:_UnauthorizedAccessException__ctor_m3480402128
PZf:_BigInteger_op_Modulus_m3788401748
uij:_ArgInfo_GetInOutArgs_m3184132151
Qma:__ZNK8Material16MarkDependenciesER27GarbageCollectorThreadState
gsc:__ZL17Transfer_GUIStyleI9JSONWriteLb0EEvRK29SerializationCommandArgumentsR31RuntimeSerializationCommandInfo
EUa:__Z28GetHaloVertexPositionsStereoP8Vector3fRKS_S2_f
Cla:__ZN6prcoreL27StretchGenericFloatBilinearI15TexFormatRGHalfEEvPKNS_9InnerInfoE
s7e:_Enumerator_MoveNext_m598197344_AdjustorThunk
s7i:_DisplaysUpdatedDelegate_Invoke_m3646339243
w3d:_String_JoinUnchecked_m1880555587
Qfa:__ZNK9ShaderLab7Program21GetMatchingSubProgramEPK6ShaderPKNS_4PassERK16ShaderKeywordSetjPS7_R19ShaderSnippetResult
N_e:_Array_InternalArray__Insert_TisKeyValuePair_2_t1174980068_m2464431954_gshared
oic:__Z49Register_UnityEngine_Resources_GetBuiltinResourcev
pSc:_tt_cmap10_char_index
UIe:_Dropdown_Awake_m335654827
g4h:_Dictionary_2_U3CCopyToU3Em__0_m1479035402_gshared
Nfe:_BitArray_set_Item_m3801461194
Oad:__ZN15dense_hashtableINSt3__24pairIK10KeyWrapperIPK22Il2CppGenericParameterEP11Il2CppClassEES6_N6il2cpp5utils11PointerHashIS4_EEN14dense_hash_mapIS6_S9_SE_NS6_14EqualsComparerINS0_8equal_toIS5_EEEENS0_9allocatorISA_EEE9SelectKeyESJ_SL_E3endEv
g3d:_String_Remove_m3580114465
mVb:__ZN9ShaderLab22SerializedBindChannels8TransferI19StreamedBinaryWriteILb0EEEEvRT_
Omc:__ZN5IMGUI20MoveWindowFromLayoutER8GUIStateiRK5RectTIfE
XBg:__ZL56ParameterInfo_t2249040075_CustomAttributesCacheGeneratorP21CustomAttributesCache
QIh:_UIntPtr__ctor_m2737768530
FNc:_UNITY_FT_Stream_ReadUShort
pPe:_InputField_OnEnable_m3797157569
Vec:__Z51Register_UnityEngine_GUILayer_INTERNAL_CALL_HitTestv
Skc:__Z50Register_UnityEngine_Object_FindSceneObjectsOfTypev
Vga:__ZNSt3__26__treeINS_12__value_typeIN4core12basic_stringIcNS2_20StringStorageDefaultIcEEEES6_EENS_19__map_value_compareIS6_S7_NS_4lessIS6_EELb1EEE13stl_allocatorIS7_L18MemLabelIdentifier1ELi16EEE7destroyEPNS_11__tree_nodeIS7_PvEE
OAj:_Nullable_1__ctor_m796575255_gshared
NLd:__ZN6il2cpp2vm8Profiler7GCEventE13Il2CppGCEvent
Npe:_DateTimeUtils_ToString_m3878360633
gyd:__ZN6il2cpp6icalls8mscorlib6SystemL16ThrowInvalidCastEPK11Il2CppClassS5_
Xti:_InternalEnumerator_1_get_Current_m3732458101_AdjustorThunk
czb:__ZN12AspectRatios8TransferI24GenerateTypeTreeTransferEEvRT_
qKc:__Z12FormatBufferPciPKcz
v$i:_CustomEventData_AddUInt64_m1437973832
aEe:_TouchInputModule_Process_m1373751353
Rf:_emscripten_glUniform1fv
_ad:__ZN6il2cpp2vm5Class13GetArrayClassEP11Il2CppClassj
jJ:__ZN4FMOD7Channel7setModeEj
uph:_DerivedType_InvokeMember_m4149586013
mTa:__ZN15RenderNodeQueueC2E18MemLabelIdentifier
xig:_TlsStream_SetLength_m1460039587
Vmc:__ZN11IMGUIModule12AddGUIScriptER8ListNodeI13MonoBehaviourE
qb:invoke_difi
C7:__ZL50StaticRegisterSceneLoadedCallback_LightmapSettingsPv
Pm:FUNCTION_TABLE_iiffi
_Le:_GridLayoutGroup_get_cellSize_m1061731753
_za:__ZN21GLESGpuProgramApplier11ApplyVectorERKN20GpuProgramParameters14ValueParameterEPK8Vector4ft
q0a:__Z17PrepareSceneNodesP11CullResults
nzj:_Vector4_ToString_m2340321043_AdjustorThunk
Koj:_Parser_IsIgnoreCase_m4155598997
EUc:_cff_size_done
WRa:__ZN22RenderingCommandBuffer13GetAndCheckRTE24BuiltinRenderTextureTypeRKN9ShaderLab16FastPropertyNameEPKcPP13RenderTexture
c7a:__ZN6Camera34UpdatePreviousViewProjectionMatrixEv
Tfa:__ZN9ShaderLab11ShaderState25RemoveUnsupportedProgramsEPK6Shader
ZVb:__ZL23AddGpuProgramParametersR20GpuProgramParametersRKNSt3__26vectorIN9ShaderLab20SerializedSubProgram15MatrixParameterENS1_9allocatorIS5_EEEERKNS2_INS4_15VectorParameterENS6_ISB_EEEEiP16PropertyNamesSet
Kkc:__Z44Register_UnityEngine_Object_DestroyImmediatev
fec:__Z47Register_UnityEngine_Component_BroadcastMessagev
Ar:__ZN18StreamedBinaryReadILb0EE21TransferSTLStyleArrayI13dynamic_arrayI4PPtrI6ObjectELj4EEEEvRT_17TransferMetaFlags
eDg:__ZL62_ConstructorBuilder_t1236878896_CustomAttributesCacheGeneratorP21CustomAttributesCache
Dac:__Z26scripting_class_has_parent17ScriptingClassPtrS_
WAd:__ZN6il2cpp6icalls8mscorlib6System2IO6MonoIO4ReadE12Il2CppIntPtrP11Il2CppArrayiiPi
L6:__ZN13RuntimeStaticI21AssetReferenceStorageLb0EE16StaticInitializeEPv
VTd:__ZN6il2cpp8metadata25Il2CppGenericClassCompare7CompareEPK18Il2CppGenericClassS4_
Eu:__ZNK8Animator20IsInMatchTargetStateEv
Em:FUNCTION_TABLE_viiifiii
Anc:__Z36Register_UnityEngine_GUI_set_changedv
t0d:_Encoding_get_Unicode_m1382741113
Ggj:_LifetimeServices_set_SponsorshipTimeout_m1403222216
dde:_Char_ToString_m1401375624_AdjustorThunk
DYe:_Array_InternalArray__ICollection_Add_TisTableRange_t2011406615_m147373358_gshared
Vle:_Convert_ToDateTime_m1251728572
FYe:_Array_InternalArray__ICollection_Add_TisBoolean_t3825574718_m1009318882_gshared
QAf:_ReadOnlyCollection_1_System_Collections_IList_set_Item_m1149349508_gshared
My:__ZN27AnimationLayerMixerPlayable18SetInputConnectionEP8Playablei
cpc:__Z42Register_UnityEngine_GUIStyle_get_wordWrapv
Ngh:_ObjectReader_ReadObjectContent_m3949770110
f6i:_Component_SendMessage_m4199581575
_sa:__ZZ19InitializeGfxDevice20GfxCreateDeviceFlagsEN38PreLateUpdateEndGraphicsJobsLatestruct7ForwardEv
zcd:__ZN6il2cpp2vm5Class40GetInterfaceInvokeDataFromVTableSlowPathEPK12Il2CppObjectPK11Il2CppClassj
Wkb:__ZN20TierGraphicsSettings8TransferI18StreamedBinaryReadILb0EEEEvRT_
Uhi:_Text_get_font_m3115501113
qxd:__GLOBAL__sub_I_Thread_cpp
eha:__ZN14SafeBinaryRead8TransferINSt3__24pairIN9ShaderLab16FastPropertyNameE10ColorRGBAfEEEEvRT_PKc17TransferMetaFlags
N9c:__ZL9rshift128PyS_
pYb:__Z10pqHeapInitP13PriorityQHeap
Hgh:_ObjectReader_RecordFixup_m1893348030
oqh:_EnumBuilder_GetElementType_m1228393631
evd:__ZN14dense_hash_mapI10KeyWrapperINSt3__24pairIPK12PropertyInfoP11Il2CppClassEEEj17ReflectionMapHashIS8_ENS9_14EqualsComparerINS1_8equal_toIS8_EEEENS1_9allocatorINS2_IKS9_jEEEEE13set_empty_keyERSH_
fk:_glRenderbufferStorage
XEd:__ZNK15dense_hashtableINSt3__24pairIK10KeyWrapperINS1_IPKcS4_EEEiEES6_24NamespaceAndNamePairHashN14dense_hash_mapIS6_iS9_NS6_14EqualsComparerI26NamespaceAndNamePairEqualsEENS0_9allocatorIS8_EEE9SelectKeyESD_SF_E13find_positionERS7_
Htg:__ZL43Il2CppObject_CustomAttributesCacheGeneratorP21CustomAttributesCache
kgc:__Z45Register_UnityEngine_Input_get_touchSupportedv
k6c:__ZN11UnityEngine15PlatformWrapper28GetTextureFormatSupportFlagsEv
fQc:_UNITY_FT_Create_Class_pshinter_module_class
F2d:_String_CompareOrdinalCaseInsensitiveUnchecked_m2002640463
xae:_Boolean_GetHashCode_m1894638460
hVc:_cf2_setError
nAh:_UTF7Encoding_InternalGetChars_m4157428055
Boa:__Z33InterpolateLightProbeCoefficientsRK17LightProbeContextRK29LightProbeSamplingCoordinatesR20SphericalHarmonicsL2
$$f:_SmallXmlParser_HandleBufferedContent_m3397096753
dh:_glDisable
xQe:_InputField_OnDeselect_m3963675647
e3c:__Z44Register_UnityEngine_Canvas_get_pixelPerfectv
fHd:__ZN6il2cpp5utils11StringUtils15StringDuplicateEPKDsj
frg:_BaseMachine_Scan_m122450399
zcj:_AnimatorControllerPlayable_PlayInternal_m3385259863
Rde:_ArrayList_CopyTo_m2353632788
y7:__ZNSt3__26vectorINS_4pairIyP17VertexDeclarationEENS_9allocatorIS4_EEE6assignIPS4_EENS_9enable_ifIXaasr21__is_forward_iteratorIT_EE5valuesr16is_constructibleIS4_NS_15iterator_traitsISB_E9referenceEEE5valueEvE4typeESB_SB_
LVi:__Z100RuntimeInvoker_Int32_t2071877448_Il2CppObject_Color32_t874517518_Int32_t2071877448_Int32_t2071877448PK10MethodInfoPvPS2_
$Xa:__ZNK8Material12GetPassCountEv
uje:_Enumerator__cctor_m3784927209
E1j:b110
F1j:b111
G1j:b112
ASj:_bitshift64Ashr
J1j:b114
K1j:b115
L1j:b116
Hga:__ZNK8Material26GetTypeInfoVirtualInternalEv
mIc:__ZN11Rigidbody2D23VirtualRedirectTransferER14SafeBinaryRead
K0b:__ZN14SpriteRenderer12CleanupClassEv
ABa:__ZN4crnd12crn_unpacker22decode_alpha_endpointsEv
q1a:__Z23CullDynamicObjectsUmbraPK4AABBPKN5Umbra15OcclusionBufferER9IndexList
eSc:_tt_cmap4_char_next
o$:__ZN17DirectorFrameTime14ResetDSPValuesEv
Cqj:_GeneralNames_ToString_m800435094
aFe:_BaseMeshEffect_OnDidApplyAnimationProperties_m2484799839
G4d:_ASCIIEncoding_GetString_m3931709239
R_a:__ZN23ForwardShaderRenderLoopD2Ev
OGh:_UInt16_Parse_m3560204090
Jvc:__ZN8JSONRead21TransferSTLStyleArrayI13dynamic_arrayIsLj2EEEEvRT_18MemLabelIdentifier17TransferMetaFlags
XI:__ZN4FMOD7Channel11setPositionEjj
Xh:_glBindSampler
B8:__Z22CreateMutexLockedQueuev
dCf:_ReadOnlyCollection_1_System_Collections_Generic_ICollectionU3CTU3E_Clear_m964488020_gshared
_h:_glGetVertexAttribiv
HYe:_Array_InternalArray__ICollection_Add_TisChar_t3454481338_m422084244_gshared
P_c:__ZN2UI11CanvasGroup23VirtualRedirectTransferER18StreamedBinaryReadILb0EE
$aj:_AnimatorControllerPlayable_GetLayerName_m2571001466
Quc:__ZN8JSONRead8TransferIbEEvRT_PKc17TransferMetaFlagsb
aSh:_DefaultValueAttribute_Equals_m3216982933
mng:_X509KeyUsageExtension_Decode_m3292847033
O7:__ZN26SharedLightmapSettingsDataD2Ev
bvh:_Module_filter_by_type_name_ignore_case_m3574895736
Zob:__ZN26CustomRenderTextureManager19PreAllocateMaterialEP19CustomRenderTexture
ngh:_ObjectReader_ReadObject_m397855326
IMd:_GC_promote_black_lists
$Me:_Image_get_fillAmount_m3354146540
Bvc:__Z29Transfer_Blittable_ArrayFieldI8JSONRead8Vector4fEvRT_R9ArrayInfoRK23StaticTransferFieldInfo
hOc:__ZNK13TextRendering4Font9GetAscentEv
Yn:FUNCTION_TABLE_vf
xo:FUNCTION_TABLE_vd
vFh:_Type_GetMethod_m1930231379
zo:FUNCTION_TABLE_vi
zfh:_WellKnownServiceTypeEntry_ToString_m493996021
pXf:_SimpleCollator_GetContraction_m1391584430
Aae:_CultureInfo_get_InvariantCulture_m398972276
aae:_Boolean_System_IConvertible_ToInt64_m4142756949_AdjustorThunk
NC:__ZNK8Animator17HasBoundPlayablesEv
uHc:__ZN17Physics2DSettings8TransferI24GenerateTypeTreeTransferEEvRT_
F7f:_HMAC_initializePad_m3828610671
nXd:_RSAParameters_t1462703416_marshal_pinvoke_cleanup
Y1i:_AsyncOperation_get_priority_m966065939
va:invoke_iiifiii
mzd:__ZN6il2cpp2vm9Exception11FromNameMsgEPK11Il2CppImagePKcS6_S6_
eFh:_Type_internal_from_name_m1506974323
gn:FUNCTION_TABLE_fiiifii
gC:__ZN10HumanTrait15InitializeClassEv
D$:__Z14GetTimeManagerv
KZb:__ZneRK20SpriteTilingPropertyS1_
TNi:__Z67RuntimeInvoker_Void_t1841601450_Scene_t1684909666_Int32_t2071877448PK10MethodInfoPvPS2_
jhb:__Z12GUIDToStringRK9UnityGUIDPc
Meb:__ZN15FileSystemEntry4LockE12FileLockModeP12FileAccessor
oSe:_Array_get_swapper_TisIl2CppObject_m1701356863_gshared
PZh:_Enumerator_System_Collections_IDictionaryEnumerator_get_Value_m3005608231_AdjustorThunk
mM:__ZN11AudioSource22UnmuteActiveVideoSinksEv
cHd:__ZN4utf88internal20is_overlong_sequenceIiEEbjT_
Ti:_glReadBuffer
ffe:_SynchronizedArrayListWrapper_get_Count_m4104930530
hZa:__Z30SetupBakedOcclusionForGeometrybRK26SharedLightmapSettingsDataRK15LightmapIndicesR17ShaderPassContext
jQf:_Stream_Close_m1499612649
lec:__Z41Register_UnityEngine_Cursor_get_lockStatev
GYa:__Z14SetupLightmapsRK8Vector4fS1_R17ShaderPassContext
Tsg:_Interval_get_Empty_m3170923997
iu:__ZN11UnityEngine9Animation37HasGenericRootTransformPropertyValuesERKNS0_30AnimatorGenericBindingConstantEb
$$b:__Z20DestroyObjectDelayedP6Objectf
WU:__ZN20DynamicHeapAllocatorI17LowLevelAllocatorED0Ev
MPe:_InputField_OnDrag_m726194348
iDc:__ZN10ClipperLib11ClipperBase5ResetEv
xYf:_PreviousInfo__ctor_m1442166472_AdjustorThunk
TVa:__ZN9DepthPassD2Ev
RH:__ZN11AudioFilter6GetDSPEv
Fcd:__ZN13Il2CppHashMapIPKcP11Il2CppClassN6il2cpp5utils11StringUtils12StringHasherIS1_EENS6_21CaseSensitiveComparerENSt3__29allocatorINSA_4pairIK10KeyWrapperIS1_ES3_EEEEEC2EjRKS8_RKS9_
ZMc:__ZN20TextRenderingPrivate15DynamicFontData36GetFaceForCharacterIfAvailableInFontERKNS_7FontRefERKNSt3__26vectorI4PPtrIN13TextRendering4FontEE13stl_allocatorIS9_L18MemLabelIdentifier34ELi16EEEEj
I1:__ZN19RuntimeSceneManager14CanUnloadSceneEP10UnityScene
hWa:__Z22ExtractRenderNodeQueueRK11CullResults15ExtractionFlagsR15RenderNodeQueue
A0e:_Array_InternalArray__set_Item_TisContentType_t1028629049_m703420360_gshared
Ilf:_List_1_set_Item_m1431784996_gshared
dH:__ZN24AudioScriptBufferManagerC2Ev
Kwc:__ZN11UnityEngine9Analytics18SceneLoadTimeEvent12ToJsonStringER9JSONWrite
zMc:__ZNSt3__26vectorIh13stl_allocatorIhL18MemLabelIdentifier1ELi16EEE8__appendEj
CMc:__ZN20TextRenderingPrivate8FontImpl16ResetPackingDataEv
wDh:_TimeSpan_get_Hours_m3804628138_AdjustorThunk
wXe:_Array_InternalArray__IndexOf_TisLink_t865133271_m3612939760_gshared
orc:__Z18Transfer_BlittableI9JSONWriteLb0EfEvRK29SerializationCommandArgumentsR31RuntimeSerializationCommandInfo
pda:__Z21GetAsyncUploadManagerv
Kj:_emscripten_glDetachShader
VIh:_UIntPtr__cctor_m889490270
xWf:_SafeHandleZeroOrMinusOneIsInvalid_get_IsInvalid_m2033528032
Rce:_Char_IsUpper_m4083577610
MAa:__ZN17GenericDynamicVBO20ReleaseChunkInternalERK21DynamicVBOChunkHandlejj
sZc:__ZL27CleanupModule_TextRenderingv
wWf:_SafeHandleZeroOrMinusOneIsInvalid__ctor_m3340306667
aPj:_fmodl
Gdh:_SerializationInfo_AddValue_m902275108
oPj:_fmodf
uNb:__Z18Transfer_BlittableI18StreamedBinaryReadILb1EELb1E4AABBEvRK29SerializationCommandArgumentsR31RuntimeSerializationCommandInfo
mea:__ZN12CachedWriter11Align4WriteEv
kXa:__Z20DoDeferredRenderLoopR17RenderLoopContextR13dynamic_arrayI16RenderObjectDataLj4EES4_RK11CullResultsRP13RenderTextureSA_Pb
Vra:__ZN19RuntimeSceneManager11CreateSceneEv
Cih:_RuntimeTypeHandle__ctor_m235560320_AdjustorThunk
uUc:_ps_get_standard_strings
Cpf:_Collection_1_IsValidItem_m1908012838_gshared
gZa:__Z27SetupBakedOcclusionForLightbRK15SharedLightDataR17ShaderPassContext
qSd:__ZN6il2cpp2os5Mutex6UnlockEv
gfi:_ScrollRect_OnScroll_m3346515304
o8e:_Enumerator_System_Collections_IEnumerator_get_Current_m3461301268_gshared
_2h:_Dictionary_2_CopyToCheck_m1638253305_gshared
rRa:__Z18RenderImageFiltersR10RenderLoopb
IU:__Z19free_alloc_internalPv18MemLabelIdentifier
Ggb:__ZNK23ArchiveStorageConverter16GetDirectoryInfoEv
R1c:__Z43CanvasRenderer_Get_Custom_PropMaterialCountP12Il2CppObject
a5a:__ZN10GameObjectD2Ev
ixf:_ReadOnlyCollection_1_System_Collections_Generic_IListU3CTU3E_set_Item_m25653560_gshared
N8g:__ZL68Selectable_t1490392188_CustomAttributesCacheGenerator_m_InteractableP21CustomAttributesCache
oBb:__ZN33AssetBundleLoadFromAsyncOperation12IsCrc32ValidEv
H5i:_Color32_op_Implicit_m889975790
pac:__ZN19RuntimeSceneManager32LoadSceneAsyncByNameOrBuildIndexERKN4core12basic_stringIcNS0_20StringStorageDefaultIcEEEEiNS_11LoadingModeEb
_8i:_UnityEventBase_RebuildPersistentCallsIfNeeded_m1583202007
F9f:_CertificateSelectionCallback_Invoke_m2902629105
c7:__ZN10InputEventD2Ev
Vxj:_Vector2_ToString_m775491729_AdjustorThunk
iFf:_NumberFormatter_Append_m3268121457
Std:__ZNK15dense_hashtableINSt3__24pairIK10KeyWrapperIPK14Il2CppAssemblyEPK16MonoAssemblyNameEES6_N6il2cpp5utils11PointerHashIS4_EEN14dense_hash_mapIS6_SA_SF_NS6_14EqualsComparerINS0_8equal_toIS5_EEEENS0_9allocatorISB_EEE9SelectKeyESK_SM_E3endEv
YWd:_RSA_ToXmlString_m4145056574
$aa:__Z20SetPlayerPauseDirect11PlayerPause
Wue:_Double_System_IConvertible_ToUInt64_m1318285078_AdjustorThunk
HOj:_isalpha
Odi:_Selectable_FindSelectable_m2739582497
zzc:__ZNK12b2MotorJoint17GetReactionTorqueEf
Ppe:_DateTimeUtils_ZeroPad_m86470512
Qid:__ZN6il2cpp2vmL17IsSocketAsyncCallEP14Il2CppDelegate
JJc:__Z13RegisterClassI11Rigidbody2DEvv
ySh:_Logger_IsLogTypeAllowed_m1750132386
bLd:__ZN6il2cpp2vm6String6NewLenEPKcj
Yib:__ZN6Camera23VirtualRedirectTransferER19StreamedBinaryWriteILb0EE
ZZa:__ZN21BillboardBatchManager24AutoBillboardShaderPropsC2ER16ShaderKeywordSetR24BuiltinShaderParamValues
Zk:_time
KVd:_RC2Transform__cctor_m4079629627
ETc:_ps_hints_done
xLe:_Graphic_UnregisterDirtyLayoutCallback_m1724443555
Aqa:__ZN14BatchAllocator6CommitE18MemLabelIdentifier
QVc:_cf2_stack_free
f2:__ZN15dense_hashtableINSt3__24pairIKiP6ObjectEEi21InstanceIDHashFunctorN14dense_hash_mapIiS4_S6_NS0_8equal_toIiEE13stl_allocatorIS5_L18MemLabelIdentifier65ELi16EEE9SelectKeyES9_SC_E12resize_deltaEjj
MA:__ZN8Animator31ClearInternalControllerPlayableEv
T8e:_Enumerator_VerifyState_m3913376581_gshared
YRd:__ZN6il2cpp6icalls8mscorlib6System11Diagnostics10StackTrace9get_traceEP15Il2CppExceptionib
B0j:_glDeleteSync__wrapper
tme:_Decimal_op_Implicit_m623319612
O0h:_ValueCollection_System_Collections_Generic_ICollectionU3CTValueU3E_Remove_m98888100_gshared
vAe:_EventTrigger_OnPointerExit_m2119176877
uCh:_ThreadAbortException__ctor_m1623816114
l1b:__ZN13ProduceHelperI30RuntimeInitializeOnLoadManagerLb0EE7ProduceE18MemLabelIdentifier18ObjectCreationMode
t3a:__ZN13RenderTexture19SetAutoGenerateMipsEb
jja:__Z20GetTextureFormatInfo13TextureFormat
apc:__Z43Register_UnityEngine_GUIStyle_get_alignmentv
Fz:__ZN26AnimatorControllerPlayable8GetFloatEiRf
rbd:__ZN6il2cpp2vm5Class4InitEP11Il2CppClass
hCe:_PointerEventData_set_worldPosition_m192283671
uUj:dynCall_iiifiiii
Pyj:_Vector3_get_right_m1884123822
NQd:__ZN6il2cpp5utils10MemoryPool6MallocEj
wG:__ZN11SoundHandle8InstanceD2Ev
g9:__ZN31CanvasBatchIntermediateRenderer13StaticDestroyEPv
Ftj:_X509Store_BuildCrlsCollection_m52567568
Mgc:__Z29Mesh_CUSTOM_RecalculateBoundsP12Il2CppObject
Fve:_Enum_ToString_m662345249
CZj:_emscripten_glBindProgramARB__wrapper
iec:__Z41Register_UnityEngine_CullingGroup_Disposev
Snb:__ZN7Cubemap23VirtualRedirectTransferER19StreamedBinaryWriteILb0EE
MOi:__Z100RuntimeInvoker_Void_t1841601450_Il2CppObject_Single_t2076509932_Int32_t2071877448_Single_t2076509932PK10MethodInfoPvPS2_
AKa:__ZN25MultiBlocksMemoryFileData5WriteEyyPKv
aAc:__ZNK13b2PulleyJoint16GetReactionForceEf
QBi:__Z78RuntimeInvoker_Il2CppObject_Int64_t909078037_Int64_t909078037_Int64_t909078037PK10MethodInfoPvPS2_
chf:_List_1_System_Collections_IList_Add_m4271264217_gshared
Aud:__ZN14dense_hash_mapI10KeyWrapperIPK10Il2CppTypeEjN6il2cpp8metadata14Il2CppTypeHashENS4_14EqualsComparerINS6_26Il2CppTypeEqualityComparerEEENSt3__29allocatorINSB_4pairIKS4_jEEEEE13set_empty_keyERSE_
Wdc:__Z35Component_CUSTOM_SendMessageUpwardsP12Il2CppObjectP12Il2CppStringS0_i
KCa:__ZL17ProgramUniform2fvPK7ApiGLESjiihPKv
uMc:__ZN20TextRenderingPrivate8FontImpl21HasCharacterInTextureEjijfPj
bQj:_htonl
Yxa:__Z20GetBufferManagerGLESv
wQb:__ZN18StreamedBinaryReadILb0EE21TransferSTLStyleArrayI31ArrayOfManagedObjectsTransfererEEvRT_17TransferMetaFlags
yAh:_UTF7Decoder_GetChars_m2790530452
Vtc:__Z18Transfer_BlittableI8JSONReadLb0EtEvRK29SerializationCommandArgumentsR31RuntimeSerializationCommandInfo
DNa:__ZZ23InitPlayerLoopCallbacksvEN44EarlyUpdateResetFrameStatsAfterPresentstruct7ForwardEv
kii:_Text_set_fontSize_m2101304336
X7g:__ZL68Navigation_t1571958496_CustomAttributesCacheGenerator_m_SelectOnLeftP21CustomAttributesCache
Yu:__ZN34AnimationStateMachineMixerPlayable13EndTransitionEv
XGd:__ZNSt3__212basic_stringIDsNS_11char_traitsIDsEENS_9allocatorIDsEEE9__grow_byEjjjjjj
AI:__ZN12AudioManager21FixMasterGroupRoutingEv
bZd:_SymmetricAlgorithm_set_Key_m2973350820
yIc:__ZN6b2Body9SetActiveEb
o6g:__ZL58FontData_t2614388407_CustomAttributesCacheGenerator_m_FontP21CustomAttributesCache
pmg:_WebHeaderCollection_IsHeaderValue_m1723393133
the:_Hashtable__ctor_m4280223555
FId:__ZN6il2cpp2os10ThreadImpl33UnregisterCurrentThreadForCleanupEv
Oy:__ZN27AnimationLayerMixerPlayable22PrepareAnimationEventsEfR13dynamic_arrayI22AnimationClipEventInfoLj4EE
FFb:__Z18Transfer_BlittableI14SafeBinaryReadLb1E4AABBEvRK29SerializationCommandArgumentsR31RuntimeSerializationCommandInfo
qHd:__ZN6il2cpp6icalls8mscorlib6System4Enum12get_hashcodeEP12Il2CppObject
uHd:__ZN6il2cpp6icalls8mscorlib6System9AppDomain12getCurDomainEv
yaj:_AnimatorControllerPlayable_SetInteger_m1311149575
jH:__ZN9AudioClip7WWWOpenEPKciPjPPvS4_
zKi:__Z79RuntimeInvoker_Void_t1841601450_Il2CppObject_Int32_t2071877448_Int64_t909078037PK10MethodInfoPvPS2_
yFb:__Z18Transfer_BlittableI14SafeBinaryReadLb0E8Vector2fEvRK29SerializationCommandArgumentsR31RuntimeSerializationCommandInfo
$Ed:__ZN15dense_hashtableINSt3__24pairIK10KeyWrapperINS1_IPKcS4_EEEiEES6_24NamespaceAndNamePairHashN14dense_hash_mapIS6_iS9_NS6_14EqualsComparerI26NamespaceAndNamePairEqualsEENS0_9allocatorIS8_EEE9SelectKeyESD_SF_E12resize_deltaEjj
mcj:_AnimatorControllerPlayable_PlayInFixedTime_m2562520484
rRf:_SynchronizedReader_Peek_m282642073
jTb:__ZN15SerializeTraitsIN9ShaderLab20SerializedSubProgram16TextureParameterEE8TransferI14SafeBinaryReadEEvRS2_RT_
bbe:_Byte_System_IConvertible_ToInt16_m1575115635_AdjustorThunk
Mt:__ZN11UnityEngine9Animation31SetHumanTransformPropertyValuesERKNS0_21AvatarBindingConstantERKN7mecanim8skeleton13SkeletonPoseTIN4math4trsXEEEbb
hhj:_Context_get_HasGlobalDynamicSinks_m3205328884
OXf:_SimpleCollator_CompareQuick_m619038530
Uhg:_SslStreamBase_EndRead_m1072850679
nd:_SDL_GetTicks
k0c:__ZN2UI14CanvasRenderer11SyncCullingENS0_8SyncFlagE
prd:__ZN15dense_hashtableINSt3__24pairIK10KeyWrapperINS1_IPK11Il2CppImageP11Il2CppClassEEEjEES9_17ReflectionMapHashIS8_EN14dense_hash_mapIS9_jSD_NS9_14EqualsComparerINS0_8equal_toIS8_EEEENS0_9allocatorISB_EEE9SelectKeyESI_SK_E6insertERKSB_
dw:__Z16AppendPathToHashRKN7mecanim5crc32EPKc
X0a:__Z21CreateShadowCullerJobP30CreateUmbraShadowCullerJobData
ISh:_Material_get_mainTexture_m432794412
CCa:__ZL18ProgramUniform2uivPK7ApiGLESjiihPKv
h$j:_glUniform4iv__wrapper
E7b:__ZNK15dense_hashtableINSt3__24pairIK12TriangleEdgeiEES2_16TriangleEdgeHashN14dense_hash_mapIS2_iS5_NS0_8equal_toIS2_EENS0_9allocatorIS4_EEE9SelectKeyES8_SA_E23find_position_with_hashERS3_j
T4h:_Dictionary_2_ToTKey_m4209561517_gshared
bVc:_cf2_computeDarkening
KY:__GLOBAL__sub_I_runtime_gfxdevice_lump_cpp
Z1i:_AsyncOperation_set_priority_m3581020444
cNd:_GC_expand_hp_inner
ufd:__ZNK15dense_hashtableINSt3__24pairIK10KeyWrapperI13dynamic_arrayIPK10Il2CppTypeLj4EEEPFvvEEES8_N6il2cpp8metadata19Il2CppSignatureHashEN14dense_hash_mapIS8_SB_SF_NS8_14EqualsComparerINSE_22Il2CppSignatureCompareEEENS0_9allocatorISC_EEE9SelectKeyESJ_SL_E12test_deletedEj
ZCd:__ZNK15dense_hashtableI10KeyWrapperIP18Il2CppGenericClassES3_N6il2cpp8metadata22Il2CppGenericClassHashEN14dense_hash_setIS3_S6_NS3_14EqualsComparerINS5_25Il2CppGenericClassCompareEEENSt3__29allocatorIS3_EEE8IdentityESA_SD_E12test_deletedEj
Gfc:__Z25Screen_Get_Custom_PropDpiv
zSa:__ZN13ComputeShader20GetCompatibleVariantE17GfxDeviceRendereri
TGd:__ZN4utf812find_invalidIPKcEET_S3_S3_
Lqg:_X509ExtensionCollection_System_Collections_ICollection_CopyTo_m3421329346
wMd:_GC_err_printf
$qh:_FieldBuilder_SetValue_m3109503557
IKe:_Graphic_OnBeforeTransformParentChanged_m1866292273
Cog:_X509Certificate2_Verify_m1574874641
n5g:__ZL58PhysicsRaycaster_t249603239_CustomAttributesCacheGeneratorP21CustomAttributesCache
hMc:__ZN20TextRenderingPrivate19NativeTextGenerator23FixLineHorizontalOffsetEiii
mje:_SortedList_GetEnumerator_m1318483481
x7d:_Array_CreateInstance_m3327690220
nw:__ZN7mecanim9animation19DestroyAnimationSetEPNS0_12AnimationSetERNS_6memory9AllocatorE
PDi:__Z64RuntimeInvoker_Double_t4078015681_Il2CppObject_Int32_t2071877448PK10MethodInfoPvPS2_
a4:__ZN14SerializedFile7ReleaseEv
Z9a:__ZN16MemoryFileSystem4OpenER13FileEntryData14FilePermission16FileAutoBehavior
U8:__ZN13RuntimeStaticI13RendererSceneLb0EE13StaticDestroyEPv
tKb:__Z18Transfer_BlittableI24GenerateTypeTreeTransferLb1E12PropertyNameEvRK29SerializationCommandArgumentsR31RuntimeSerializationCommandInfo
nyb:__ZN14SafeBinaryRead21TransferSTLStyleArrayI10vector_mapIPKN5Unity4TypeE7Hash128NSt3__24lessIS5_EENS7_9allocatorINS7_4pairIS5_S6_EEEEEEEvRT_17TransferMetaFlags
iH:__ZN9AudioClip18GetQueuedAudioDataEPPvj
KGd:__ZN6il2cpp2os5posix15PosixWaitObject13InterruptWaitEv
gHc:__ZN15b2ContactSolver13StoreImpulsesEv
CVa:__Z18SetShadowsKeywordsR17ShaderPassContext9LightType10ShadowType16ShadowProjectionbb
dvd:__ZN14dense_hash_mapI10KeyWrapperINSt3__24pairIPK12PropertyInfoP11Il2CppClassEEEj17ReflectionMapHashIS8_ENS9_14EqualsComparerINS1_8equal_toIS8_EEEENS1_9allocatorINS2_IKS9_jEEEEEC2EjRKSB_RKSF_
n3b:__ZN17CollisionMeshDataC2Ev
wmh:_Assembly_GetModule_m2064378601
Jei:_ScrollRect_SetDirty_m93243192
epb:__ZN16LightmapSettings23VirtualRedirectTransferER19StreamedBinaryWriteILb0EE
dJc:__ZN19CollisionListener2DC2Ev
YUh:_MessageTypeSubscribers__ctor_m743474932
Y_j:_glTexParameteriv__wrapper
Rqa:__ZN18IDCollectorFunctor18GenerateInstanceIDEi17TransferMetaFlags
G$e:_Array_InternalArray__set_Item_TisTableRange_t2011406615_m2386708730_gshared
fHc:__ZN15b2ContactSolver9WarmStartEv
tFf:_NumberFormatter_ToDecHex_m1474793296
hKe:_FontData_set_richText_m29558601
LCh:_Scheduler_Change_m4063588742
B1e:_Array_Resize_TisVector2_t2243707579_m1117258774_gshared
sS:__ZN11UnityEngine15CloudWebService13WWWRestClientD0Ev
euj:_HitInfo_SendMessage_m3368777144_AdjustorThunk
qwi:_Comparer_1_System_Collections_IComparer_Compare_m2490067344_gshared
Mhc:__Z22PlayableValidityChecksRK9HPlayableb
szb:__ZN15ResourceManagerD2Ev
Mff:_List_1_Insert_m2532850849_gshared
Ndc:__Z41Register_UnityEngine_Camera_GetAllCamerasv
WTh:_Mesh_get_vertices_m626989480
obi:_MaskableGraphic_OnCanvasHierarchyChanged_m2012659245
uBa:__ZN4crnd12crn_unpacker10unpack_dxnEPPhjjjjjj
W7c:__ZN28PerformanceReportingSettings8TransferI14SafeBinaryReadEEvRT_
Ome:_Double_Parse_m2344589511
czd:__ZN6il2cpp2vm22EmbeddedResourceRecordC2ERKS1_
Nnb:__ZN9Texture2D13AwakeFromLoadE17AwakeFromLoadMode
fXf:_MSCompatUnicodeTableUtil__cctor_m1479836795
Ioj:_PositionAssertion__ctor_m3703837499
yRe:_LayoutGroup_get_minWidth_m4111745491
UQf:_StreamWriter_Initialize_m1707678624
fGd:__ZN6il2cpp2vm3RCW14QueryInterfaceILb0EEEP14Il2CppIUnknownP15Il2CppComObjectRK10Il2CppGuid
Cei:_ScrollRect_set_verticalScrollbar_m2903688658
_Qh:_GUIStyle_INTERNAL_CALL_SetMouseTooltip_m1802284884
oka:__ZN6prcoreL17RemapGenericFloatI15TexFormatRFloat18TexFormatARGBFloatEEvPKNS_9InnerInfoE
tDg:__ZL50_Thread_t1894135853_CustomAttributesCacheGeneratorP21CustomAttributesCache
kpi:_InternalEnumerator_1_get_Current_m1047712960_gshared
GY:__GLOBAL__sub_I_runtime_camera_renderlayers_lump_cpp
H7c:__ZN11UnityEngine15PlatformWrapper20GetPlayerPrefsUInt64ERKN4core12basic_stringIcNS1_20StringStorageDefaultIcEEEEy
vZa:__ZN20ReflectionProbeCacheC2ER13BatchRendererR15RenderLoopStats
I9:__ZN18AssetBundleManagerC2Ev
PLa:__ZNK12HandlerChain6ExistsERK13FileEntryData
AOg:__ZL61ExtensionAttribute_t1840441203_CustomAttributesCacheGeneratorP21CustomAttributesCache
kne:_Convert_ToInt32_m2734833291
m_a:__Z30FindDirectAttenuationFromProbeP18ForwardLightsBlockbiRK10RenderNodeRK23FindForwardLightsParamsf
sxb:__ZN12InputManager23VirtualRedirectTransferER24GenerateTypeTreeTransfer
_Xb:__ZN9Transform23VirtualRedirectTransferER24GenerateTypeTreeTransfer
lWb:__ZNSt3__26vectorIN9ShaderLab20SerializedSubProgram12UAVParameterENS_9allocatorIS3_EEE21__push_back_slow_pathIKS3_EEvRT_
Nfj:_CrossAppDomainChannel_RegisterCrossAppDomainChannel_m43456045
uqg:_X509ChainElement_Count_m228862214
uEh:_TimeZone_IsDaylightSavingTime_m1840774423
JXc:_UNITY_tt_size_ready_bytecode
QKc:__ZN13TextRendering4FontD2Ev
ONc:_UNITY_FT_Stream_Open
n$c:__GLOBAL__sub_I_runtime_ui_lump_cpp
JKa:__ZN10MemoryFile4ReadEyyPvPy
kua:__ZN13GfxDeviceGLES26UpdateViewProjectionMatrixEv
MF:__ZN4FMOD3DSP12setParameterEif
oaa:__ZN13MemoryManager16StaticInitializeEv
nzg:__ZL53StackFrame_t2050294881_CustomAttributesCacheGeneratorP21CustomAttributesCache
sf:___cxa_free_exception
eBf:_ReadOnlyCollection_1_System_Collections_ICollection_CopyTo_m4126742951_gshared
GJ:__ZN4FMOD22FakeModChannelCallbackEPv
yf:_emscripten_glValidateProgram
LRa:__ZN4Mesh10CreateMeshEv
xsd:__ZN6il2cpp2gc19AppendOnlyGCHashMapINSt3__24pairIPK9EventInfoP11Il2CppClassEEP21Il2CppReflectionEvent17ReflectionMapHashIS9_ENS2_8equal_toIS9_EEE3AddERKS9_SB_
EG:__ZN4FMOD7SystemI11createSoundEPKcjP22FMOD_CREATESOUNDEXINFOPPNS_5SoundE
Auj:_Sprite_get_associatedAlphaSplitTexture_m3617241169
Cfh:_ArrayFixupRecord_FixupImpl_m2377725358
zVc:_cf2_stack_clear
wue:_Double_System_IConvertible_ToBoolean_m4251806534_AdjustorThunk
J_h:_ShimEnumerator_Reset_m2247049027_gshared
hDc:__ZN10ClipperLib11ClipperBase5ClearEv
u3a:__ZN7Texture13SetAnisoLevelEi
Nog:_X509Chain_Process_m2508784250
Bkf:_List_1_RemoveAt_m2929488689_gshared
Twc:__ZN27PerformanceReportingManager23VirtualRedirectTransferER24GenerateTypeTreeTransfer
FPc:_raccess_guess_vfat
Y2c:__Z44Canvas_CUSTOM_GetETC1SupportedCanvasMaterialv
F8:__ZN33InstancedMeshIntermediateRenderer13StaticDestroyEPv
TIf:_Int16_Parse_m3012618547
oBd:__ZN14dense_hash_mapI10KeyWrapperIP14Il2CppIUnknownEjN6il2cpp5utils11PointerHashIS1_EENS3_14EqualsComparerINSt3__28equal_toIS2_EEEENS9_9allocatorINS9_4pairIKS3_jEEEEE13set_empty_keyERSF_
fke:_Convert__cctor_m926133987
Cjb:__Z21DestroyShadowMapCacheP14ShadowMapCache
$y:__ZN7mecanim9animation25CreateControllerWorkspaceEPKNS0_18ControllerConstantERNS_6memory9AllocatorE
aYe:_Array_InternalArray__IndexOf_TisUInt64_t2909196914_m3958307360_gshared
yLe:_Graphic_RegisterDirtyVerticesCallback_m4169445219
Dud:__ZN15dense_hashtableINSt3__24pairIK10KeyWrapperIPK10Il2CppTypeEjEES6_N6il2cpp8metadata14Il2CppTypeHashEN14dense_hash_mapIS6_jSB_NS6_14EqualsComparerINSA_26Il2CppTypeEqualityComparerEEENS0_9allocatorIS8_EEE9SelectKeyESF_SH_E14squash_deletedEv
oAd:__ZN6il2cpp2vm13LivenessState5ResetEv
kxj:_Transform_get_parent_m147407266
pqc:__ZN9JSONWrite8TransferI11KeyframeTplIfEEEvRT_PKc17TransferMetaFlags
CJi:__Z71RuntimeInvoker_Double_t4078015681_Double_t4078015681_Double_t4078015681PK10MethodInfoPvPS2_
Rhi:_Text_get_cachedTextGenerator_m224335893
NKh:_GameObject_GetComponent_m306258075
aJa:__ZN24BuiltinShaderParamValuesC2Ev
grc:__ZL41CreateJSONTransferFunctionScriptingTraitsv
YNf:_FileStream_get_CanWrite_m775322953
kOa:__Z23GetLateBehaviourManagerv
dBe:_ExecuteEvents_Execute_m2863348178
D5:__ZN10MemoryPool10DeallocateEPv
lGf:_NumberFormatInfo__ctor_m2752806684
REe:_CanvasUpdateRegistry_get_instance_m862315367
qlj:_PatternCompiler_EmitFastRepeat_m1175707353
p4e:_Array_InternalArray__get_Item_TisKeyValuePair_2_t3716250094_m3120861630_gshared
jPc:_cff_driver_class_pic_free
hwc:__ZNK9rapidjson12GenericValueINS_4UTF8IcEE13JSONAllocatorE6AcceptINS_6WriterI16TempBufferWriterS2_S2_S3_EEEEbRT_
iUj:dynCall_vif
jUj:dynCall_vid
vef:_List_1_System_Collections_IList_get_Item_m3989815218_gshared
lUj:dynCall_vii
Cle:_DateTime__ctor_m3604679583
mQb:__Z18Transfer_BlittableI18StreamedBinaryReadILb0EELb0EdEvRK29SerializationCommandArgumentsR31RuntimeSerializationCommandInfo
Hkj:_Enumerator_System_Collections_IEnumerator_MoveNext_m3313126804
mkd:__ZN6il2cpp6icalls8mscorlib6System8MonoType18GetFields_internalEP20Il2CppReflectionTypeiS5_
tcb:__ZN5Unity9Component16CheckConsistencyEv
OEe:_LayoutRebuilder_ValidController_m2595049322
sDa:__ZN7ApiGLES11CheckShaderERjb
mYh:_RectTransform_set_anchoredPosition_m2077229449
kMb:__ZL26Transfer_SimpleNativeClassI19StreamedBinaryWriteILb0EE10RectOffsetLb1EEvRK29SerializationCommandArgumentsR31RuntimeSerializationCommandInfo
o4e:_Array_InternalArray__get_Item_TisKeyValuePair_2_t1174980068_m964958642_gshared
bqd:__ZN15dense_hashtableINSt3__24pairIK10KeyWrapperIPK10Il2CppTypeEjEES6_N6il2cpp8metadata14Il2CppTypeHashEN14dense_hash_mapIS6_jSB_NS6_14EqualsComparerINSA_26Il2CppTypeEqualityComparerEEENS0_9allocatorIS8_EEE9SelectKeyESF_SH_E3endEv
o_a:__Z28GetNonInterpolatedLightProbeRK17LightProbeContextjR20SphericalHarmonicsL2
RYe:_Array_InternalArray__ICollection_Add_TisDateTime_t693205669_m3559987213_gshared
Mwa:__ZN13GfxDeviceGLES17SetGpuProgramNameEP10GpuProgramPKc
x7f:_ARC4Managed_CheckInput_m3033530539
Zhd:__ZN6il2cpp2vm13MetadataCache28GetMethodDefinitionFromIndexEi
SJd:__ZN6il2cpp2os20FileErrnoToErrorCodeEi
Zga:__ZN14SafeBinaryRead19TransferSTLStyleMapINSt3__23mapI39DeprecatedFastPropertyNameSerialization10ColorRGBAfNS1_4lessIS3_EENS1_9allocatorINS1_4pairIKS3_S4_EEEEEEEEvRT_17TransferMetaFlags
HBb:__ZN14CachingManager13WriteInfoFileERKN4core12basic_stringIcNS0_20StringStorageDefaultIcEEEERKNSt3__26vectorIS4_NS7_9allocatorIS4_EEEE
D2i:_Behaviour_get_enabled_m4079055610
qEa:__ZN7ApiGLES18CreateRenderbufferEiN2gl9TexFormatEii
qyj:_Vector3_Lerp_m2935648359
Ezj:_NetFxCoreExtensions_GetMethodInfo_m2715372889
gh:_atexit
Zfe:_BitArrayEnumerator_Reset_m3218489242
HMf:_IOException__ctor_m613517077
etd:__ZN6il2cpp2vmL31GetObjectForMissingDefaultValueEj
jQa:_UNITY_png_write_info_before_PLTE
zsf:_Collection_1__ctor_m824713192_gshared
STb:__ZN9ShaderLab14SerializedPassC2ERKS0_
$mi:_InternalEnumerator_1_System_Collections_IEnumerator_get_Current_m3088751576_AdjustorThunk
_Ne:_InputField_get_text_m409351770
l:STACKTOP
hXc:_cff_get_name_index
USf:_Math_Cos_m43596019
vpb:__ZN21EnlightenSceneMapping16BuildRemapTablesEv
_Eb:__ZNSt3__26vectorI4PPtrI10MonoScriptE13stl_allocatorIS3_L18MemLabelIdentifier76ELi16EEE8__appendEj
l6b:__ZN17TransformInternal27UpdateDeepChildCountUpwardsER18TransformHierarchyii
zti:_InternalEnumerator_1_System_Collections_IEnumerator_get_Current_m1533037706_AdjustorThunk
LRj:__ZNK10__cxxabiv117__class_type_info16search_above_dstEPNS_19__dynamic_cast_infoEPKvS4_ib
A:tempBigIntD
v1d:_Single_Equals_m3359827399_AdjustorThunk
AAe:_EventTrigger_OnPointerClick_m413999043
z:tempBigIntI
jCj:_CachedInvokableCall_1__ctor_m127496184_gshared
M6f:_PrimalityTests_RabinMillerTest_m2029846965
y:tempBigIntR
x:tempBigIntS
w:tempBigIntP
un:FUNCTION_TABLE_viffi
lNc:_open_face_PS_from_sfnt_stream
cfh:_ServerIdentity_CreateObjRef_m1056204803
p5:__ZN6Object18RegisterInstanceIDEPS_
dKb:__Z18Transfer_BlittableI24GenerateTypeTreeTransferLb1EsEvRK29SerializationCommandArgumentsR31RuntimeSerializationCommandInfo
fEd:__ZN15dense_hashtableINSt3__24pairIK10KeyWrapperIP12Il2CppObjectEN6il2cpp2gc9CachedCCWEEES5_NS7_5utils11PointerHashIS3_EEN14dense_hash_mapIS5_S9_SD_NS5_14EqualsComparerINS0_8equal_toIS4_EEEENS0_9allocatorISA_EEE9SelectKeyESI_SK_E11set_deletedER30dense_hashtable_const_iteratorISA_S5_SD_SM_SI_SK_E
lua:__ZNK9GfxDevice18GetWorldViewMatrixEv
Gef:_List_1_Contains_m3819542652_gshared
Nbg:_TlsServerKeyExchange__ctor_m247733406
syf:_ReadOnlyCollection_1_System_Collections_IList_Add_m3065652010_gshared
KLd:__ZN6il2cpp6icalls8mscorlib6System7Convert17Base64ToByteArrayEPDsib
hFj:_IndexedSet_1_Clear_m2776064367_gshared
uRh:_GUIUtility_set_systemCopyBuffer_m2040945785
$Ni:__Z87RuntimeInvoker_Void_t1841601450_Int32_t2071877448_Single_t2076509932_Single_t2076509932PK10MethodInfoPvPS2_
dUh:_Mesh_SetNormals_m3341225499
dfd:__ZNSt3__218__insertion_sort_3IRN6il2cpp5utils11collections13ArrayValueMapIPK10Il2CppType17Il2CppInteropData26InteropDataToTypeConverterNS1_8metadata14Il2CppTypeLessENSA_26Il2CppTypeEqualityComparerEE12SortComparerEPS8_EEvT0_SH_T_
G$c:__ZN2UI39SendIgnoreNextTransformChangedRecursiveEPK9TransformPKNS_6CanvasE
pua:__ZNK9GfxDevice25GetDeviceProjectionMatrixEv
Tkg:_HttpWebRequest__ctor_m1248252412
na:invoke_iidiii
hKb:__Z18Transfer_BlittableI24GenerateTypeTreeTransferLb1EtEvRK29SerializationCommandArgumentsR31RuntimeSerializationCommandInfo
Ulh:_RankException__ctor_m2119191472
owc:__ZN9rapidjson12PrettyWriterI16TempBufferWriterNS_4UTF8IcEES3_13JSONAllocatorE11WriteIndentEv
T9b:__ZN10systeminfo24GetRuntimePlatformStringEv
mtc:__ZN9JSONWrite8TransferI13dynamic_arrayI4AABBLj4EEEEvRT_PKc17TransferMetaFlags
LP:__ZN5physx14PxLightCpuTask15removeReferenceEv
hmg:_SPKey_Equals_m1112627532
D6:__ZN13RuntimeStaticI13ModuleManagerLb0EE13StaticDestroyEPv
v_d:_SecurityPermission_IsSubsetOf_m1087302418
tij:_ArgInfo__ctor_m3787931268
Wsj:_X509Chain_Build_m175470596
cca:__ZN9ShaderLab6TexEnvC2ERKNS_25SerializedTexturePropertyE
GZb:__Z28IntersectLineSegmentWithLineRK8Vector2fS1_S1_S1_RS_
sfa:__ZN19ShaderPropertySheet38CopyTextureWithAuxiliaryPropertiesFromERKN9ShaderLab16FastPropertyNameERKS_
fMc:__ZN20TextRenderingPrivate19NativeTextGeneratorD2Ev
Aid:__ZN6il2cpp2vm19SocketPollingThread14DequeueRequestEv
zJd:__ZL10RevealLinkPv
_1a:__ZNK6Camera26CalculateCullingParametersER17CullingParameters
Ji:___cxa_end_catch
Csh:_MethodBuilder_MakeGenericMethod_m303913412
Pmh:_AssemblyName_InternalGetPublicKeyToken_m3706025887
sUj:dynCall_viffffii
NAe:_ExecuteEvents_Execute_m4235029535
elg:_HttpWebRequest_GetObjectData_m1200570677
b3c:__Z43Register_UnityEngine_Canvas_set_scaleFactorv
pPh:_GUIStyle_set_onHover_m3908151335
GPc:_raccess_guess_linux_cap
Wxj:_Vector2_GetHashCode_m2353429373
Vfg:_ReceiveRecordAsyncResult_get_AsyncWaitHandle_m1602093076
xQb:__Z19TransferField_ArrayI18StreamedBinaryReadILb0EE27Converter_UnityEngineObjectEvRK23StaticTransferFieldInfoR31RuntimeSerializationCommandInfoRT0_
W0:__Z33InitializeBuiltinShaderParamNamesv
m4f:_ActivationContext_System_Runtime_Serialization_ISerializable_GetObjectData_m775951299
pYh:_RectTransform_INTERNAL_get_sizeDelta_m3975625099
Hda:__ZNK16TypeTreeIterator4TypeEv
rij:_LeaseManager__ctor_m2166901364
lJa:__ZN10FileSystem25MountDataFolderFileSystemERKN4core12basic_stringIcNS0_20StringStorageDefaultIcEEEES6_
L8g:__ZL67Selectable_t1490392188_CustomAttributesCacheGenerator_m_SpriteStateP21CustomAttributesCache
qj:_glGetUniformLocation
zva:__ZN13GfxDeviceGLES32CreateColorRenderSurfacePlatformEP17RenderSurfaceBase19RenderTextureFormat
UG:__ZN12AudioManager24CreateFMODSoundFromMovieEP9AudioClip
qwc:__ZN9rapidjson6WriterI16TempBufferWriterNS_4UTF8IcEES3_13JSONAllocatorE8WriteIntEi
Sgd:__ZN6il2cpp2vm13MetadataCache24GetGenericInstanceMethodEPK10MethodInfoPK20Il2CppGenericContext
cXf:_MSCompatUnicodeTable_get_IsReady_m562849792
mNd:_GC_hblk_fl_from_blocks
nNb:__Z18Transfer_BlittableI18StreamedBinaryReadILb1EELb0E8Vector2fEvRK29SerializationCommandArgumentsR31RuntimeSerializationCommandInfo
OJf:_Int32_System_IConvertible_ToUInt64_m2888588559_AdjustorThunk
GX:__Z24ConvertSeparatorsToUnityPc
Fxb:__ZNSt3__213__vector_baseI9InputAxisNS_9allocatorIS1_EEED2Ev
wxd:__ZN6il2cpp2vm6Thread20FreeThreadStaticDataEP12Il2CppThread
Hwe:_Exception_get_ClassName_m2189012117
obe:_Byte_System_IConvertible_ToUInt16_m2275325191
Fej:_MarshalDirectiveException__ctor_m3894820706
bCc:__ZN10Collider2D16RecreateColliderEP11Rigidbody2D
uFc:__ZN16Physics2DManager12BatchOverlapER13dynamic_arrayI15BatchedOverlapsLj4EEPP10Collider2Dj
OVc:_cf2_glyphpath_finalize
Eje:_Stack__ctor_m521896492
uUa:__Z20LookRotationToMatrixRK8Vector3fS1_P10Matrix3x3f
kaj:_AnimatorControllerPlayable_INTERNAL_CALL_GetBoolID_m3610941922
IUj:dynCall_viififi
Szb:__ZNSt3__26vectorIN15ResourceManager10DependencyE13stl_allocatorIS2_L18MemLabelIdentifier51ELi16EEE6assignINS_11__wrap_iterIPS2_EEEENS_9enable_ifIXaasr21__is_forward_iteratorIT_EE5valuesr16is_constructibleIS2_NS_15iterator_traitsISC_E9referenceEEE5valueEvE4typeESC_SC_
LPc:_UNITY_FT_Stream_Free
QEh:_Type_GetTypeFromHandle_m432505302
rAi:__Z111RuntimeInvoker_Void_t1841601450_Il2CppObject_Int32_t2071877448_Il2CppObject_Int32_t2071877448_Int32_t2071877448PK10MethodInfoPvPS2_
jxd:__ZN15dense_hashtableINSt3__24pairIK10KeyWrapperINS1_IP11Il2CppClassjEEES4_EES6_N6il2cpp8metadata14ArrayClassHashEN14dense_hash_mapIS6_S4_SB_NS6_14EqualsComparerINSA_17ArrayClassCompareEEENS0_9allocatorIS8_EEE9SelectKeyESF_SH_E12maybe_shrinkEv
qej:_GCHandle_FreeHandle_m2466807271
LKe:_GraphicRegistry_get_instance_m2112667631
PQ:__ZN11UnityEngine15CloudWebService14DataDispatcher25OnDataBlockConsumedStaticEPv
SAe:_ExecuteEvents_Execute_m2476343313
nDg:__ZL54_MethodInfo_t3642518830_CustomAttributesCacheGeneratorP21CustomAttributesCache
GAi:__Z46RuntimeInvoker_Il2CppObject_Decimal_t724701077PK10MethodInfoPvPS2_
YFe:_CanvasUpdateRegistry_CleanInvalidItems_m1402635291
Naj:_AnimatorControllerPlayable_ResetTrigger_m2216540396
gZe:_Array_InternalArray__ICollection_Add_TisSByte_t454417549_m46595441_gshared
lBe:_ExecuteEvents_get_endDragHandler_m56074740
_Pe:_InputField_IsValidChar_m3929866302
tde:_ArrayList__cctor_m2090802806
uRj:__ZNSt3__212basic_stringIcNS_11char_traitsIcEENS_9allocatorIcEEE6insertEjPKcj
irc:__Z44InitializeTransferFunctionScriptingTraitsForI8JSONReadEvR31TransferFunctionScriptingTraits
Q7a:__ZNSt3__26vectorINS_4pairIN4core12basic_stringIcNS2_20StringStorageDefaultIcEEEES6_EE13stl_allocatorIS7_L18MemLabelIdentifier37ELi16EEE6insertENS_11__wrap_iterIPKS7_EERSD_
Ksa:__ZNSt3__27__sort4IRNS_4lessIN22BuiltinResourceManager8ResourceEEEPS3_EEjT0_S7_S7_S7_T_
WAe:_ExecuteEvents_Execute_m171612015
vca:__ZN15dense_hashtableINSt3__24pairIKPK17RenderSurfaceBaseP13RenderTextureEES4_19PointerHashFunctionIS4_EN14dense_hash_mapIS4_S7_SA_NS0_8equal_toIS4_EE13stl_allocatorIS8_L18MemLabelIdentifier65ELi16EEE9SelectKeyESD_SG_E12resize_deltaEjj
sBa:__ZN4crnd12crn_unpacker11unpack_dxt5EPPhjjjjjj
DHh:_UInt32_System_IConvertible_ToUInt64_m4083788326_AdjustorThunk
b0g:__ZL99GUIStyle_t1799908754_CustomAttributesCacheGenerator_GUIStyle_t1799908754____clipOffset_PropertyInfoP21CustomAttributesCache
DYc:_UNITY_tt_face_get_location
Fkh:_DESTransform_Permutation_m4174035780
PMf:_Path_IsDsc_m1314465747
TNf:_MonoIO_Seek_m3461199288
bRb:__Z29Transfer_Blittable_ArrayFieldI18StreamedBinaryReadILb0EE4AABBEvRT_R9ArrayInfoRK23StaticTransferFieldInfo
q4a:__ZN10GameObject34AddFirstTransformComponentInternalEP9Transform
kec:__Z31Cursor_Get_Custom_PropLockStatev
l1:__ZNSt3__26__treeINS_12__value_typeINS_4pairIPcS3_EENS_3setIS3_15compare_tstringIPKcENS_9allocatorIS3_EEEEEENS_19__map_value_compareIS4_SD_20smaller_tstring_pairIS8_ELb1EEENSA_ISD_EEE7destroyEPNS_11__tree_nodeISD_PvEE
c$c:__ZNK2UI14CanvasRenderer26GetTypeInfoVirtualInternalEv
Pnj:_CaptureAssertion_get_Alternate_m2729005740
lfc:__Z52Register_UnityEngine_GameObject_GetComponentInParentv
yyb:__ZN15SerializeTraitsINSt3__24pairIPKN5Unity4TypeE7Hash128EEE8TransferI14SafeBinaryReadEEvRS7_RT_
Zqc:__ZN9rapidjson13GenericReaderINS_4UTF8IcEES2_13JSONAllocatorE10ParseArrayILj1ENS_25GenericInsituStringStreamIS2_EENS_15GenericDocumentIS2_S3_S3_EEEEvRT0_RT1_
W0a:__Z37GenerateCombinedDynamicVisibleListJobP11CullResults
cEc:__ZN10ClipperLib7Clipper11BuildResultERNSt3__26vectorINS2_INS_8IntPointENS1_9allocatorIS3_EEEENS4_IS6_EEEE
nW:__ZNK13ScreenManager21GetCursorInsideWindowEv
YId:__ZN6il2cpp2vmL22RaiseOverflowExceptionEv
nKf:_Int64_System_IConvertible_ToByte_m3027162116_AdjustorThunk
pkj:_Match_get_Empty_m3581361913
VZa:__Z20IntersectAABBFrustumRK4AABBPK5Planej
t3d:_String_Concat_m626692867
T3b:__ZN13RenderManager15InitializeClassEv
EHb:__ZN15SerializeTraitsI12PropertyNameE8TransferI14SafeBinaryReadEEvRS0_RT_
$T:__ZNSt3__23mapIN19CloudServiceHandler11ServiceTypeEPS1_NS_4lessIS2_EE13stl_allocatorINS_4pairIKS2_S3_EEL18MemLabelIdentifier85ELi16EEEixERS8_
svj:_TextGenerationSettings_CompareVector2_m592645251_AdjustorThunk
KT:__ZN11UnityEngine15CloudWebService17WebFileDownloaderINS0_13WWWRestClientENS0_16WWWRestHeaderMapEED0Ev
$sc:__ZN9JSONWrite8TransferI11ColorRGBA32EEvRT_PKc17TransferMetaFlags
ivc:__Z22TransferField_NonArrayI8JSONRead27Converter_SimpleNativeClassI8GradientEEvRK23StaticTransferFieldInfoR31RuntimeSerializationCommandInfoRT0_
g8a:__ZNSt3__26__treeIN4core12basic_stringIcNS1_20StringStorageDefaultIcEEEENS_4lessIS5_EE13stl_allocatorIS5_L18MemLabelIdentifier37ELi16EEE7destroyEPNS_11__tree_nodeIS5_PvEE
$Ca:__ZNSt3__26vectorI15ComputeShaderCBNS_9allocatorIS1_EEE21__push_back_slow_pathIKS1_EEvRT_
uCb:__ZN10MonoScript13AwakeFromLoadE17AwakeFromLoadMode
n$b:__ZN13ProduceHelperI11MonoManagerLb0EE7ProduceE18MemLabelIdentifier18ObjectCreationMode
hFa:__ZNK18GfxFramebufferGLES15DiscardContentsER12ObjectHandleI17RenderSurface_TagP17RenderSurfaceBaseE
Thd:__ZN6il2cpp2vm13MetadataCache27GetEventDefinitionFromIndexEi
M$f:_KeyPairPersistence_IsUserProtected_m37342608
fsc:__Z18Transfer_BlittableI9JSONWriteLb1EdEvRK29SerializationCommandArgumentsR31RuntimeSerializationCommandInfo
RYj:_glGetIntegerv__wrapper
sEf:_NumberFormatter_ResetCharBuf_m3823516989
H:Math_pow
A4a:__ZN10GameObject28FinalizeAddComponentInternalEPN5Unity9ComponentE
zee:_ArrayListWrapper_CopyTo_m735618473
PE:__Z64AnimatorControllerPlayable_CUSTOM_INTERNAL_CALL_SetTriggerStringR9HPlayableP12Il2CppString
QPh:_GUIStyle_Internal_Draw_m3610093213
Ruj:_StackTraceUtility_IsSystemStacktraceType_m506502194
Job:__ZN9Texture2DD2Ev
JY:__GLOBAL__sub_I_runtime_geometry_lump_cpp
Ode:_ArrayList_Remove_m3941780739
srj:_X509CertificateEnumerator_MoveNext_m4060814498
Mid:__ZN6il2cpp2vm21ThreadPoolCompartment12DetachThreadEP12Il2CppThread
Boh:_ConstructorBuilder_not_created_m2150488017
x5i:_Color_op_Multiply_m325555950
wlh:_HashAlgorithm_TransformBlock_m4190258810
ZD:__ZNSt3__26vectorIiNS_9allocatorIiEEE6insertENS_11__wrap_iterIPKiEERS5_
Zpj:_Uri_AppendQueryAndFragment_m2358658590
LTh:_Mesh_GetIndicesImpl_m2398977086
Hq:__ZN13dynamic_arrayIhLj1EE18resize_initializedEjRKh12ResizePolicy
w8i:_InvokableCallList_AddListener_m786891050
cra:__ZN17PersistentManager27GetLoadErrorMessageFromPathERKN4core12basic_stringIcNS0_20StringStorageDefaultIcEEEE
l5d:_DecoderReplacementFallbackBuffer_Fallback_m1790184670
bm:_glGenRenderbuffers
OAd:__ZN6il2cpp6icalls8mscorlib6System2IO6MonoIO19GetCurrentDirectoryEPi
A3d:_String_GetHashCode_m931956593
Nyb:__ZN14PlayerSettings23VirtualRedirectTransferER17RemapPPtrTransfer
Oeb:__ZN14CachingManager7DisposeEv
YM:__ZN12AudioManager31GetCurrentSpatializerDefinitionEv
svb:__ZN12MeshRenderer16UpdateCachedMeshEv
kHb:__Z19TransferField_ArrayI14SafeBinaryRead27Converter_SimpleNativeClassI8GradientEEvRK23StaticTransferFieldInfoR31RuntimeSerializationCommandInfoRT0_
fv:__ZNK27StateMachineBehaviourPlayer25FireStateMachineBehaviourEiiN7mecanim12statemachine19StateMachineMessageE
eei:_ScrollRectEvent__ctor_m2283981448
Y8e:_Enumerator_VerifyState_m3913376581_AdjustorThunk
Ejg:_NameObjectCollectionBase_System_Collections_ICollection_CopyTo_m810189168
P3a:__ZN6Camera15SetOrthographicEb
HCc:__ZN6b2Body13ResetMassDataEv
sRc:_UNITY_FT_Stream_GetUShort
vua:__ZN13GfxDeviceGLES14DisableScissorEv
xCg:__ZL71ReliabilityContractAttribute_t1625655220_CustomAttributesCacheGeneratorP21CustomAttributesCache
noe:_Decimal_op_Explicit_m1986696267
w4h:_Dictionary_2_System_Collections_ICollection_CopyTo_m3578539931_gshared
TEf:_NumberFormatter_AppendDecimalString_m3532330813
Jc:_glVertexAttrib4f
Uoh:_ILGenerator__ctor_m3365621387
rwe:_Environment_GetFolderPath_m1849163024
hna:__ZN13LoadOperationC2Ev
o_f:_ASN1_Add_m2540239672
IBc:__ZN12b2BroadPhase13QueryCallbackEi
TTe:_Array_InternalArray__ICollection_Remove_TisInt16_t4041245914_m3380378727_gshared
Q3c:__ZN21UnityAnalyticsManagerD0Ev
_fj:_SinkProviderData__ctor_m1828480392
jDe:_RaycastResult_ToString_m2233441736_AdjustorThunk
TSh:_Mathf_Sin_m831310046
lOd:_GC_set_hdr_marks
JRa:__Z17SetupObjectMatrixRK10Matrix4x4fi
A0d:_SecurityFrame_ToString_m1282306399
dYf:_SimpleCollator_MatchesBackwardCore_m1884994267
YDh:_TimeSpan_From_m1249538749
zXf:_SimpleCollator_GetSortKey_m1317491197
Ckc:__Z43Object_CUSTOM_DoesObjectWithInstanceIDExisti
i1:__ZN13RuntimeStaticINSt3__23mapINS0_4pairIPcS3_EEPFbPvR14SafeBinaryReadE20smaller_tstring_pairIPKcENS0_9allocatorINS2_IKS4_S9_EEEEEELb0EE13StaticDestroyES5_
Jvh:_MonoEvent_GetCustomAttributes_m3899596098
C9c:__GLOBAL__sub_I_VRGfxHelpers_cpp
Nne:_Convert_ToSByte_m3295168715
sx:__ZN7mecanim9animation16CreateClipMemoryEPKNS0_4ClipEiRNS_6memory9AllocatorE
iNc:_open_face
C2b:__ZZL31RegisterOtherRendererPropertiesR22GenericPropertyBindingEN30Wrapper_RendererReceiveShadows13SetFloatValueEPvf
y1c:__Z17RegisterModule_UIv
QOi:__Z116RuntimeInvoker_Void_t1841601450_PlayableHandleU26_t3483893774_Int32_t2071877448_Single_t2076509932_Int32_t2071877448PK10MethodInfoPvPS2_
B3i:_Camera_FireOnPreRender_m24116662
dGh:_TypeLoadException_GetObjectData_m2885802706
fva:__ZN9GfxDevice24CreateRenderDepthSurfaceE9TextureIDiiii16TextureDimension17DepthBufferFormat18SurfaceCreateFlags
dhh:_ObjectManager_DoFixups_m835924385
Aeh:_RemotingServices_CreateWellKnownServerIdentity_m3390048085
MG:__ZN4FMOD5Sound11setUserDataEPv
ZRb:__ZN14SafeBinaryRead21TransferSTLStyleArrayINSt3__26vectorIN9ShaderLab19SerializedSubShaderENS1_9allocatorIS4_EEEEEEvRT_17TransferMetaFlags
p7f:_ARC4Managed_KeySetup_m73384687
ZKa:__ZNK25SingleBlockMemoryFileData4SizeEv
mhb:__ZNK23ArchiveStorageConverter26GetUncompressedArchiveSizeEv
zqe:_DateTime_Equals_m2562884703
jt:__ZN9BlobWrite8TransferIN7mecanim12statemachine18StateMachineMemoryEEEvRT_PKc17TransferMetaFlags
PQa:_UNITY_png_zfree
zK:__ZL50UnityAudioEffect_InternalSetFloatParameterCallbackP14FMOD_DSP_STATEif
EDd:__ZNK15dense_hashtableINSt3__24pairIK10KeyWrapperIP12Il2CppObjectEN6il2cpp2gc9CachedCCWEEES5_NS7_5utils11PointerHashIS3_EEN14dense_hash_mapIS5_S9_SD_NS5_14EqualsComparerINS0_8equal_toIS4_EEEENS0_9allocatorISA_EEE9SelectKeyESI_SK_E3endEv
fcb:__ZN17LowLevelAllocator4FreeEPvj
uie:_KeyMarker__cctor_m2057880225
uad:__ZN15dense_hashtableINSt3__24pairIK10KeyWrapperIPK22Il2CppGenericParameterEP11Il2CppClassEES6_N6il2cpp5utils11PointerHashIS4_EEN14dense_hash_mapIS6_S9_SE_NS6_14EqualsComparerINS0_8equal_toIS5_EEEENS0_9allocatorISA_EEE9SelectKeyESJ_SL_E9copy_fromERKSO_j
bHf:_TextInfo_get_ListSeparator_m3426465394
Z$a:__ZN14qsort_internal5QSortIP16RenderObjectDatai25RenderPrePassObjectSorterEEvT_S4_T0_T1_
qdg:_Context_set_RecordProtocol_m1968834768
wZ:__ZL19StaticCleanupPlayerPv
Dpg:_X509Certificate2Enumerator_MoveNext_m1861665712
q5b:__ZN13PlayableGraph4StopEv
G9:__ZN15dense_hashtableINSt3__24pairIKN4core12basic_stringIcNS2_20StringStorageDefaultIcEEEEP11AssetBundleEES6_20StringHash32FunctionIS6_EN14dense_hash_mapIS6_S9_SC_NS0_8equal_toIS6_EENS0_9allocatorISA_EEE9SelectKeyESF_SH_ED2Ev
LBh:_Monitor_Monitor_wait_m3813798368
Z4d:_DecoderExceptionFallbackBuffer_Fallback_m3457210607
RSe:_Array_InternalArray__ICollection_Contains_TisDouble_t4078015681_m2262383923_gshared
PY:__GLOBAL__sub_I_runtime_graphics_billboard_lump_cpp
i7i:_Display_get_renderingWidth_m2127568366
Nsf:_Collection_1_System_Collections_IList_get_Item_m2836259259_gshared
Y6i:_Debug_LogWarning_m2503577968
Rpa:__ZN13StreamingInfo8TransferI14SafeBinaryReadEEvRT_
wSb:__ZN15dense_hashtableINSt3__24pairIKiN4core17string_with_labelILi1EEEEEi18SInt32HashFunctionN14dense_hash_mapIiS5_S7_NS0_8equal_toIiEE13stl_allocatorIS6_L18MemLabelIdentifier1ELi16EEE9SelectKeyESA_SD_E15insert_noresizeERKS6_
pAb:__ZN14SafeBinaryRead21TransferSTLStyleArrayINSt3__26vectorIN4core12basic_stringIcNS3_20StringStorageDefaultIcEEEE13stl_allocatorIS7_L18MemLabelIdentifier12ELi16EEEEEEvRT_17TransferMetaFlags
MEi:__Z87RuntimeInvoker_Boolean_t3825574718_IntPtr_t_Int64_t909078037_MonoIOErrorU26_t1029615899PK10MethodInfoPvPS2_
cKc:__GLOBAL__sub_I_runtime_dynamics_lump_cpp
pD:__Z23CalculateGlobalRotation23TransformAccessReadOnly
Hpg:_X509Store_Close_m2412711366
h5e:_AttributeHelperEngine_GetCustomAttributeOfType_TisIl2CppObject_m581732473_gshared
aNh:_GUILayoutGroup_ResetCursor_m3160916532
z2b:__Z43InitializeRendererAnimationBindingInterfacev
A5:__ZL26DestroyGameObjectRecursiveR10GameObjectR11BatchDelete
Uai:_CullStateChangedEvent__ctor_m4025397477
COd:_GC_allochblk_nth
QBh:_Mutex_ReleaseMutex_m2143813124
uHh:_UInt32_System_IConvertible_ToSByte_m604037412_AdjustorThunk
O1b:__Z7HaloTexP9Texture2DPhiiii
vVj:dynCall_i
LZe:_Array_InternalArray__ICollection_CopyTo_TisKeyValuePair_2_t3749587448_m2750720485_gshared
pO:__ZN17AudioCustomFilter4InitEv
Wrj:_X509Certificate__cctor_m2984068893
UHb:__ZN14SafeBinaryRead21TransferSTLStyleArrayI13dynamic_arrayIxLj8EEEEvRT_17TransferMetaFlags
FUj:dynCall_f
XTj:dynCall_v
bQf:_Path__cctor_m3685888661
ese:_Decimal_System_IConvertible_ToDateTime_m4247760250_AdjustorThunk
K_f:_BitConverterLE_ULongFromBytes_m2583105400
Oab:__ZNSt3__26__treeINS_12__value_typeIN4core12basic_stringIcNS2_20StringStorageDefaultIcEEEEPN16MemoryFileSystem4NodeEEENS_19__map_value_compareIS6_SA_NS_4lessIS6_EELb1EEE13stl_allocatorISA_L18MemLabelIdentifier54ELi16EEE7destroyEPNS_11__tree_nodeISA_PvEE
Oxd:__ZN6il2cpp2vm6Thread8SetStateEP12Il2CppThreadNS0_11ThreadStateE
ajb:__ZN6Camera23VirtualRedirectTransferER14SafeBinaryRead
oef:_List_1_System_Collections_IList_Insert_m2838947798_gshared
_Sd:__ZNSt3__26vectorINS_12basic_stringIDsNS_11char_traitsIDsEENS_9allocatorIDsEEEENS4_IS6_EEE8__appendEj
XDh:_TimeSpan_FromDays_m2859053398
R6c:__ZN11UnityEngine7Connect13ConnectConfig11ConfigValueD2Ev
oya:__ZNSt3__26__treeINS_12__value_typeIjP14DataBufferGLESEENS_19__map_value_compareIjS4_NS_4lessIjEELb1EEENS_9allocatorIS4_EEE7destroyEPNS_11__tree_nodeIS4_PvEE
v5b:__ZN13PlayableGraph15SetPrepareStageE13DirectorStage
Bb:invoke_viiiiiiii
Jte:_Delegate_Remove_m2626518725
fTf:_MissingMemberException__ctor_m2869542203
jJi:__Z61RuntimeInvoker_Boolean_t3825574718_DateTimeOffset_t1362988906PK10MethodInfoPvPS2_
nCj:_CachedInvokableCall_1__ctor_m3238306320_gshared
t1a:__ZNK6Camera16GetCullingMatrixEv
cXe:_Array_IndexOf_TisIl2CppObject_m1815604637_gshared
qkf:_List_1_Find_m160737912_gshared
wpj:_Uri_EnsureAbsoluteUri_m1892758054
cpb:__ZN16LightmapSettings5ResetEv
WJa:__ZN12FileAccessor4ReadEyPvPy
unc:__Z42Register_UnityEngine_Event_get_commandNamev
IOa:__Z12IsFirstFramev
rde:_ArrayList_ThrowNewArgumentOutOfRangeException_m3795973535
Qlj:_Regex_Init_m1873144192
O_f:_BitConverterLE_ToDouble_m516016818
JX:__ZNK15FileSystemEntry6ExistsEv
Wvb:__ZNK9Transform21GetLocalToWorldMatrixER10Matrix4x4f
C8f:_EncryptedPrivateKeyInfo__ctor_m3398795484
FH:__ZN13AudioListener23VirtualRedirectTransferER19StreamedBinaryWriteILb0EE
Sva:__ZN13GfxDeviceGLES11CopyTextureE9TextureIDS0_
Ccc:__Z72Register_UnityEngine_AssetBundleCreateRequest_DisableCompatibilityChecksv
$Xj:_emscripten_glViewport__wrapper
wFc:__ZN16Physics2DManager20IsRigidBodyKinematicERK11Rigidbody2D
Pgj:_Context__cctor_m3895126354
DXc:_tt_size_select
LEc:__ZN19CollisionListener2D10EndContactEP9b2Contact
fR:__ZN11UnityEngine15CloudWebService17SessionEventQueue15RestoreFromFileER12FileAccessorPvy
fzd:__ZN6il2cpp2vm9Exception25RaiseOutOfMemoryExceptionEv
Eyb:__ZN14PlayerSettingsD2Ev
_Nf:_FileStream_get_Length_m2265080501
lFh:_Type_type_is_assignable_from_m1620694099
qNd:_GC_reclaim_all
FDc:__ZN10ClipperLib15FirstIsBottomPtEPKNS_5OutPtES2_
SZ:__ZN13PlayableGraph14DestroyOutputsEv
Ohj:_ContextAttribute_GetPropertiesForNewContext_m4007241045
rf:___syscall122
e6f:_Kernel_Subtract_m2224959291
hjd:__ZN6il2cpp2vm10ThreadPool5QueueEP14Il2CppDelegatePPvS3_P12Il2CppObject
pdj:_ResourceSet__ctor_m2566914412
ECc:__ZN19CompositeCollider2D22AddColliderToCompositeEP10Collider2DRK13dynamic_arrayIP7b2ShapeLj4EE
i7f:_ASN1Convert_ToDateTime_m2305963290
VYd:_SymmetricAlgorithm_Finalize_m1665128997
eO:__ZN9AudioClip16EnableLegacyModeEv
q7d:_Array_SetValue_m1489959987
Odc:__Z52Register_UnityEngine_Camera_INTERNAL_CALL_RaycastTryv
O7a:__ZN13sorted_vectorINSt3__24pairIN4core12basic_stringIcNS2_20StringStorageDefaultIcEEEES6_EEN10vector_mapIS6_S6_27compare_tstring_insensitiveIS6_E13stl_allocatorIS7_L18MemLabelIdentifier37ELi16EEE13value_compareESD_E10insert_oneERKS7_
jQj:_mkdir
Ske:_Convert_ToByte_m791636053
JRd:__GLOBAL__sub_I_MemoryMappedFile_cpp
Jui:_InternalEnumerator_1_get_Current_m2986222582_AdjustorThunk
gAf:_ReadOnlyCollection_1_System_Collections_IList_RemoveAt_m2372993063_gshared
ZUj:dynCall_iifi
jbc:__ZN18ScriptingArguments13CopyFromOtherERKS_
ZSh:_Mathf_Ceil_m3621406599
LTc:_ps_hints_close
b4b:__Z16CreateRenderLoopR6Camera
FV:_tlsf_create
Nvi:_DefaultComparer_Compare_m4039941311_gshared
w0h:_Enumerator_MoveNext_m2534596951_AdjustorThunk
YCc:__ZN10ClipperLib7ClipperC1Ei
gDb:__ZN13MonoBehaviour23VirtualRedirectTransferER18StreamedBinaryReadILb0EE
BTb:__ZN9ShaderLab20SerializedSubProgramC2ERKS0_
D0j:_emscripten_glCompileShader__wrapper
fYd:_SHA256Managed_ProcessBlock_m1064908669
TT:__ZN11UnityEngine15CloudWebService17WebFileDownloaderINS0_13WWWRestClientENS0_16WWWRestHeaderMapEE24ExtractResponseEtagValueEv
mSj:__ZNK10__cxxabiv121__vmi_class_type_info27has_unambiguous_public_baseEPNS_19__dynamic_cast_infoEPvi
Noe:_Convert_ToUInt64_m2215781574
psj:_X509Certificate_VerifySignature_m4020723406
aGh:_TypeInitializationException_GetObjectData_m2244451030
Txe:_CompareInfo_LastIndexOf_m2978196696
i$f:_DSAManaged_Generate_m3166917081
$xi:_Enumerator_VerifyCurrent_m3330382363_AdjustorThunk
ffi:_ScrollRect_StopMovement_m1824352159
sl:_emscripten_glGetActiveUniform
BXa:__Z20RenderFullScreenQuadR9GfxDeviceRK6Camera17ShaderChannelMaskRK5RectTIfEf21MonoOrStereoscopicEye
Gvf:_ReadOnlyCollection_1_System_Collections_IList_Contains_m2320811592_gshared
Jea:__ZN16RenderTextureMap5QueryEPK17RenderSurfaceBase
nSf:_UnexceptionalStreamWriter_Write_m186237617
Uei:_ScrollRect_UpdateScrollbars_m3921404746
G$j:_emscripten_glUniform4iv__wrapper
uae:_Boolean_CompareTo_m1086129598_AdjustorThunk
N2b:__ZN8Material8GetFloatEN9ShaderLab16FastPropertyNameE
hPc:_psnames_module_class_pic_free
wlc:__Z11GetGUIStatev
qg:_pthread_key_create
Gde:_ArrayList_Clear_m3834604134
xg:_emscripten_glGetObjectParameterivARB
gha:__ZN15SerializeTraitsI10ColorRGBAfE8TransferI14SafeBinaryReadEEvRS0_RT_
J6:__ZN22BuiltinResourceManager13StaticDestroyEPv
n1e:_Array_Resize_TisCustomAttributeTypedArgument_t1498197914_m3055365808_gshared
Hxc:__ZNK14b2CapsuleShape11ComputeMassEP10b2MassDataf
t5:__ZN10GameObject17GetComponentIndexEPN5Unity9ComponentE
asb:__ZN14SafeBinaryRead21TransferSTLStyleArrayI13dynamic_arrayI7SubMeshLj4EEEEvRT_17TransferMetaFlags
n1d:_Single_IsNegativeInfinity_m2615809279
jKf:_Int32_GetTypeCode_m3811463295_AdjustorThunk
kbg:_CipherSuiteFactory_GetSsl3SupportedCiphers_m2476597368
olg:_IPv6Address_Fill_m1824197512
pOc:__ZNK13TextRendering4Font11GetMaterialEv
zwb:__Z24ExtractSpriteMeshBuffersP19SpriteRenderingData17ShaderChannelMaskR11MeshBuffers
gZc:_UNITY_tt_face_vary_cvt
VHi:__Z52RuntimeInvoker_Double_t4078015681_Double_t4078015681PK10MethodInfoPvPS2_
Ilc:__Z28DidLoadAllAssembliesCallbackv
s7a:__ZN35RegisterRuntimeInitializeAndCleanup22ExecuteInitializationsEv
DFc:__Z14b2TimeOfImpactP11b2TOIOutputPK10b2TOIInput
kma:__ZN23PreloadManagerOperation14SetFinalTimingEffff
i:DYNAMICTOP_PTR
cJe:_Dropdown_SetupTemplate_m1416189897
dSa:__Z11CopyTextureP7TextureiiS0_ii
Ayb:__ZN13BuildSettings8TransferI18StreamedBinaryReadILb0EEEEvRT_
_bi:_PositionAsUV1__ctor_m412270210
m_b:__ZN10GameObject15InitializeClassEv
Vhh:_SerializationInfo_GetInt16_m3549836657
Cfc:__Z38Renderer_Get_Custom_PropSortingLayerIDP12Il2CppObject
j9g:__ZL90StencilMaterial_t1630303189_CustomAttributesCacheGenerator_StencilMaterial_Add_m1745413071P21CustomAttributesCache
bve:_Double_Equals_m920556135_AdjustorThunk
uza:__Z29TextureIdMapGLES_QueryOrAlloc9TextureID
Sje:_Stack_Push_m284336154
vOe:_InputField_set_caretBlinkRate_m3521089516
kqe:_DateTime_Add_m4237489122
V9c:__ZL11decimalLog2P19il2cpp_decimal_repr
Mzb:__ZN15ResourceManager10Dependency8TransferI14SafeBinaryReadEEvRT_
JU:__ZN3WWWD2Ev
UMd:_GC_extend_size_map
Swi:_Comparer_1_System_Collections_IComparer_Compare_m637596782_gshared
RK:__ZN4FMOD6System9setDriverEi
nYb:__Z24tessMeshMergeConvexFacesP8TESSmeshi
bDd:__ZN6il2cpp8metadataL24RecursiveGenericDepthForEPK17Il2CppGenericInst
h4b:__ZNK9Transform11GetRotationEv
uog:_X509Certificate2_Find_m833446211
BO:__ZN12AudioManager15DidReloadDomainEv
iUc:_pshinter_get_globals_funcs
EKb:__Z18Transfer_BlittableI24GenerateTypeTreeTransferLb0EyEvRK29SerializationCommandArgumentsR31RuntimeSerializationCommandInfo
Cba:__ZN8Material14CreateMaterialER6ShaderN6Object9HideFlagsEb
V$f:_KeyPairPersistence_FromXml_m2310151202
Rcc:__Z60Register_UnityEngine_AsyncOperation_get_allowSceneActivationv
Jre:_DBNull_System_IConvertible_ToUInt64_m2919804476
tQj:_fread
Htd:__ZN15dense_hashtableINSt3__24pairIK10KeyWrapperIPK14Il2CppAssemblyEPK16MonoAssemblyNameEES6_N6il2cpp5utils11PointerHashIS4_EEN14dense_hash_mapIS6_SA_SF_NS6_14EqualsComparerINS0_8equal_toIS5_EEEENS0_9allocatorISB_EEE9SelectKeyESK_SM_E15set_deleted_keyERKSB_
qoc:__Z31GUIStyle_CUSTOM_GetFontInternalP12Il2CppObject
VSc:_tt_cmap12_char_map_binary
iFe:_Button_OnPointerClick_m2524861687
Fba:__Z25GetBuiltinResourceManagerv
xri:_InternalEnumerator_1_System_Collections_IEnumerator_get_Current_m439366097_AdjustorThunk
mDd:__ZN6il2cpp2gc8GCHandle15GetTargetHandleEP12Il2CppObjectii
Oh:_llvm_trap
$0:__ZNSt3__27__sort5IRNS_6__lessIN12_GLOBAL__N_114ParamNameIndexES3_EEPS3_EEjT0_S7_S7_S7_S7_T_
zMf:_Directory_CreateDirectory_m3561886598
pNd:_get_index
mFc:__ZN16Physics2DManagerD0Ev
OM:__ZN11AudioSource7SetMuteEb
bpd:__ZN15dense_hashtableINSt3__24pairIK10KeyWrapperINS1_IPK14Il2CppAssemblyP11Il2CppClassEEEjEES9_17ReflectionMapHashIS8_EN14dense_hash_mapIS9_jSD_NS9_14EqualsComparerINS0_8equal_toIS8_EEEENS0_9allocatorISB_EEE9SelectKeyESI_SK_EC2ERKSN_j
ltd:__ZN6il2cpp2vm10Reflection7IsFieldEP12Il2CppObject
d8b:__ZN17CollisionMeshData20VertexDataHasChangedEv
vva:__ZN13GfxDeviceGLES30SetBackBufferColorDepthSurfaceEP17RenderSurfaceBaseS1_
q6d:_Latin1Encoding_GetBytes_m1067304501
aqc:__Z52Register_UnityEngine_GUIUtility_get_systemCopyBufferv
Q5b:__ZN16StreamedResource8TransferI18StreamedBinaryReadILb0EEEEvRT_
lgc:__Z49Register_UnityEngine_Input_get_imeCompositionModev
vSb:__ZN15dense_hashtableINSt3__24pairIKiN4core17string_with_labelILi1EEEEEi18SInt32HashFunctionN14dense_hash_mapIiS5_S7_NS0_8equal_toIiEE13stl_allocatorIS6_L18MemLabelIdentifier1ELi16EEE9SelectKeyESA_SD_E12resize_deltaEjj
tAf:_ReadOnlyCollection_1__ctor_m2387481411_gshared
g2a:__ZNK20OcclusionCullingData22GetStaticRendererCountEv
fRc:_UNITY_tt_face_free_ps_names
UXa:__ZNK6Camera17GetSkyboxMaterialEv
P0j:_emscripten_glDisableVertexAttribArray__wrapper
joi:_InternalEnumerator_1_get_Current_m3259181373_AdjustorThunk
wOc:__ZZ29InitializeTextRenderingModulevEN16cleanupAfterLoad7ForwardEv
lOc:__ZNSt3__26vectorIN20TextRenderingPrivate8FontImpl13CharacterInfoE13stl_allocatorIS3_L18MemLabelIdentifier34ELi16EEE6insertENS_11__wrap_iterIPKS3_EERS9_
c5e:_Array_InternalArray__get_Item_TisUILineInfo_t3621277874_m1432166059_gshared
uvb:__ZN12MeshRenderer18CalculateLocalAABBER4AABBRKS_RK4Mesh
prj:_X509CertificateCollection_GetEnumerator_m3994741635
WHf:_Guid_ToString_m3927110175
$bb:__ZN21UnityDefaultAllocatorI17LowLevelAllocatorE8AllocateEji
aui:_InternalEnumerator_1_get_Current_m889125315_gshared
KNe:_Image_get_preferredHeight_m1045199335
_Mi:__Z88RuntimeInvoker_Void_t1841601450_Single_t2076509932_Single_t2076509932_Single_t2076509932PK10MethodInfoPvPS2_
E0c:__ZL28InitializeUIScriptingClassesv
Acc:__Z43AssetBundleRequest_Get_Custom_PropAllAssetsP12Il2CppObject
Sla:__ZN10UnityScene10ClearRootsEv
KLa:__ZN12HandlerChain10AtomicMoveER13FileEntryDataS1_
JUe:_SetPropertyUtility_SetStruct_TisBoolean_t3825574718_m752301298_gshared
tsh:_MethodBuilder_GetCustomAttributes_m923430117
q0:__ZN20SpeedTreeWindManager6UpdateEf
_Ha:__ZN9GfxDevice19CreateSparseTextureE9TextureIDii13TextureFormati17TextureColorSpace
yoj:_Literal_GetWidth_m1285678191
ime:_Decimal_ThrowAtPos_m3318712794
u1f:_RSAManaged_GetPaddedValue_m4394397
zA:__ZN7mecanim9animation20CreateAvatarConstantEPNS_8skeleton8SkeletonEPNS1_13SkeletonPoseTIN4math4trsXEEES8_PNS_5human5HumanES3_iRKS6_RNS_6memory9AllocatorE
lSf:_UnexceptionalStreamWriter__ctor_m2209699189
Cgf:_List_1_Find_m970100220_gshared
axj:_Transform_INTERNAL_get_rotation_m2427701365
AUe:_Array_InternalArray__ICollection_Remove_TisVector2_t2243707579_m3881494282_gshared
Pub:__ZN14CompressedMesh8TransferI19StreamedBinaryWriteILb0EEEEvRT_
Imh:_AssemblyFileVersionAttribute__ctor_m2026149866
ycc:__Z58AssetBundleCreateRequest_CUSTOM_DisableCompatibilityChecksP12Il2CppObject
A_e:_Array_InternalArray__ICollection_CopyTo_TisUILineInfo_t3621277874_m2142954044_gshared
Qsh:_TypeBuilder_SetParent_m387557893
WEi:__Z101RuntimeInvoker_Void_t1841601450_Il2CppObject_Il2CppObject_Int32_t2071877448_Il2CppObject_Il2CppObjectPK10MethodInfoPvPS2_
Xag:_CipherSuiteCollection_cultureAwareCompare_m1825407448
kEf:_DateTimeFormatInfo_GetEraName_m1437894363
c$e:_Array_InternalArray__Insert_TisLabelFixup_t4090909514_m3927736182_gshared
Tqg:_X509KeyUsageExtension_Encode_m3100824560
s5h:_DefaultComparer_GetHashCode_m1728348656_gshared
NPe:_InputField_MouseDragOutsideRect_m3758282095
Tbi:_Outline_ModifyMesh_m3796381413
YKc:__ZN13TextRendering4Font23VirtualRedirectTransferER24GenerateTypeTreeTransfer
Efd:__ZN15dense_hashtableINSt3__24pairIK10KeyWrapperI13dynamic_arrayIPK10Il2CppTypeLj4EEEPFvvEEES8_N6il2cpp8metadata19Il2CppSignatureHashEN14dense_hash_mapIS8_SB_SF_NS8_14EqualsComparerINSE_22Il2CppSignatureCompareEEENS0_9allocatorISC_EEE9SelectKeyESJ_SL_E15destroy_bucketsEjj
rEc:__ZN19CollisionListener2D20SendContactCallbacksER13dynamic_arrayI11Collision2DLj4EE
Zrg:_Interpreter_PopulateGroup_m4098755954
O8f:_PrivateKeyInfo_DecodeRSA_m919734506
tgc:__ZNSt3__27__sort4IRNS_6__lessI11KeyframeTplIfES3_EEPS3_EEjT0_S7_S7_S7_T_
pLf:_IntPtr__ctor_m3803259710
Lse:_Decimal_Multiply_m1884379383
Vuj:_StateMachineBehaviour__ctor_m153194
Mlf:_Enumerator_System_Collections_IEnumerator_get_Current_m1270503615_gshared
nNh:_GUILayoutGroup_CalcHeight_m1454440153
Bni:_InternalEnumerator_1_System_Collections_IEnumerator_get_Current_m3315293493_gshared
CUa:__ZN11HaloManager17RenderGeometryJobEP25DynamicVBOGeometryJobDataj
pqi:_InternalEnumerator_1_System_Collections_IEnumerator_get_Current_m4023948615_gshared
zC:__ZNSt3__227__insertion_sort_incompleteIRPFbN7mecanim9animation13MuscleIndexIdES3_EPS3_EEbT0_S8_T_
_ye:_BaseInput_get_mousePresent_m3571192771
$0j:_emscripten_glBlendEquation__wrapper
Ewd:__ZN15dense_hashtableINSt3__24pairIK10KeyWrapperIP11Il2CppClassES4_EES5_N6il2cpp8metadata16SZArrayClassHashEN14dense_hash_mapIS5_S4_SA_NS5_14EqualsComparerINS9_19SZArrayClassCompareEEENS0_9allocatorIS7_EEE9SelectKeyESE_SG_E13set_empty_keyERKS7_
fRj:__ZNSt3__212basic_stringIcNS_11char_traitsIcEENS_9allocatorIcEEE6__initEPKcj
Rj:_emscripten_set_fullscreenchange_callback
F0f:_KeyPairPersistence__IsUserProtected_m3417764903
urg:_CategoryUtils_CategoryFromName_m226887453
hte:_Decimal_op_Division_m1099836590
uT:__ZN11UnityEngine15CloudWebService14DataDispatcher22ResetNetworkRetryIndexEv
lTh:_Matrix4x4_get_Item_m3317262185
Wj:_emscripten_glDrawArrays
US:__ZN11UnityEngine15CloudWebService19SessionEventManagerC2Ev
sNf:_File_Open_m1543461971
GSa:__ZNK22RenderingCommandBuffer10FindTempRTERKN9ShaderLab16FastPropertyNameE
wjj:_LogicalCallContext_GetObjectData_m104142736
aie:_Hashtable_KeyEquals_m1433874944
Hzh:_UnicodeEncoding_Equals_m4105324537
Llj:_QuickSearch_GetShiftDistance_m2364008966
Cwj:_TouchScreenKeyboard_get_text_m538529702
A9c:__ZN13RuntimeStaticI14dynamic_bitsetLb0EE16StaticInitializeEPv
Ddc:__Z41Register_UnityEngine_Camera_get_eventMaskv
TVh:_Physics2D_Internal_RaycastNonAlloc_m1874107548
xP:__ZL19CleanupModule_Audiov
AGj:_GenericComparer_1_Compare_m2516380588_gshared
hnd:__ZN6il2cpp2os4File10DeleteFileERKNSt3__212basic_stringIcNS2_11char_traitsIcEENS2_9allocatorIcEEEEPi
AMf:_File_Exists_m1685968367
oIb:__Z29Transfer_Blittable_ArrayFieldI14SafeBinaryReadiEvRT_R9ArrayInfoRK23StaticTransferFieldInfo
fkd:__ZN6il2cpp6icalls8mscorlib6System8MonoType8GetFieldEP20Il2CppReflectionTypeP12Il2CppStringi
vZj:_emscripten_glVertexAttrib3fv__wrapper
TCf:_Comparison_1_BeginInvoke_m1549337842_gshared
gZj:_emscripten_glGetIntegerv__wrapper
ptj:_X509Crl_VerifySignature_m25189948
Nbc:__ZN8Material10GetTextureEN9ShaderLab16FastPropertyNameE
y$b:__ZNK28MonoBehaviourPropertyBinding13GetFloatValueERKN11UnityEngine9Animation10BoundCurveE
nih:_RuntimeFieldHandle_Equals_m1202966418_AdjustorThunk
Nzb:__ZN14SafeBinaryRead21TransferSTLStyleArrayINSt3__26vectorI4PPtrI6ObjectE13stl_allocatorIS5_L18MemLabelIdentifier51ELi16EEEEEEvRT_17TransferMetaFlags
fPd:_GC_generic_malloc
PXh:_Rect_op_Equality_m2793663577
pZb:__ZNSt3__26vectorI16MessageForwarder13stl_allocatorIS1_L18MemLabelIdentifier6ELi8EEE6resizeEj
Ava:__ZN13GfxDeviceGLES32CreateDepthRenderSurfacePlatformEP17RenderSurfaceBase17DepthBufferFormat
lof:_Collection_1_System_Collections_ICollection_CopyTo_m3896480607_gshared
aq:__ZN14SafeBinaryRead21TransferSTLStyleArrayI13dynamic_arrayIiLj4EEEEvRT_17TransferMetaFlags
yma:__ZL30RegisterFilteredObjectCallbackPP12Il2CppObjectiPv
ykj:_MatchCollection_TryToGet_m2938913145
q1j:_emscripten_glIsTexture__wrapper
IWh:_Ray_ToString_m2019179238_AdjustorThunk
EUd:_KeyedHashAlgorithm_get_Key_m3672929432
$ua:__ZN9GfxDevice25ReleaseAsyncCommandHeaderEPN21GfxDeviceAsyncCommand3ArgE
XCb:__ZN9TextAsset8TransferI24GenerateTypeTreeTransferEEvRT_
OQi:__Z66RuntimeInvoker_Boolean_t3825574718_Il2CppObject_Double_t4078015681PK10MethodInfoPvPS2_
Q7f:_MD2Managed_HashCore_m248147901
tJc:__ZN17Physics2DSettings15InitializeClassEv
MFa:__ZN21UniformBufferTFMethod20IsBoneCountSupportedEi
Ndi:_Selectable_FindSelectableOnLeft_m3706572906
hPf:_MemoryStream__ctor_m4073175573
Wfa:__ZN6Shader27MarkShaderStateNotSupportedEPKS_
x2e:_Array_Sort_TisVector4_t2243707581_TisVector4_t2243707581_m917148421_gshared
fGh:_UInt16_System_IConvertible_ToBoolean_m887616848_AdjustorThunk
z5g:__ZL81AnimationTriggers_t3244928895_CustomAttributesCacheGenerator_m_HighlightedTriggerP21CustomAttributesCache
E5a:__ZN10GameObject21EnsureUniqueTransformEbb
kFa:__ZN25TransformFeedbackSkinning8SkinMeshERK18VertexStreamSourceP9GfxBufferP17GPUSkinPoseBufferS4_ii17ShaderChannelMaskb
MBd:__ZN15dense_hashtableINSt3__24pairIK10KeyWrapperIP14Il2CppIUnknownEjEES5_N6il2cpp5utils11PointerHashIS3_EEN14dense_hash_mapIS5_jSB_NS5_14EqualsComparerINS0_8equal_toIS4_EEEENS0_9allocatorIS7_EEE9SelectKeyESG_SI_E12resize_deltaEjj
yzh:_UnicodeEncoding_GetCharCount_m3719064538
qae:_Boolean_CompareTo_m3691698947
t5h:_DefaultComparer_Equals_m3262686272_gshared
oYb:__Z18tessMeshDeleteMeshP9TESSallocP8TESSmesh
fud:__ZN15dense_hashtableINSt3__24pairIK10KeyWrapperIPK22Il2CppGenericParameterEPK24MonoGenericParameterInfoEES6_N6il2cpp5utils11PointerHashIS4_EEN14dense_hash_mapIS6_SA_SF_NS6_14EqualsComparerINS0_8equal_toIS5_EEEENS0_9allocatorISB_EEE9SelectKeyESK_SM_E14squash_deletedEv
gPc:_pshinter_module_class_pic_free
bgi:_Selectable_set_interactable_m63718297
SIc:__ZZN10Collider2D15InitializeClassEvEN28FunctorImpl_100kLayerChanged4CallEPviR11MessageData
z_e:_Array_InternalArray__ICollection_CopyTo_TisUICharInfo_t3056636800_m2132994790_gshared
qD:__Z17CalculateGlobalSM23TransformAccessReadOnlyRKN4math7_float4E
Uyd:__ZNSt3__214__split_bufferIN6il2cpp2vm22EmbeddedResourceRecordERNS_9allocatorIS3_EEEC2EjjS6_
Ul:_emscripten_glLoadIdentity
G7a:__ZNSt3__26vectorINS_4pairIN4core12basic_stringIcNS2_20StringStorageDefaultIcEEEEPK17MessageIdentifierEENS_9allocatorISA_EEE26__swap_out_circular_bufferERNS_14__split_bufferISA_RSC_EEPSA_
zhg:_InternalAsyncResult_get_CompletedWithError_m3993955322
Bke:_Decimal_op_GreaterThan_m1625379433
J0a:__Z29CullShadowCastersWithoutUmbraR9IndexListRK17CullingParametersPK4AABBjj
Nyj:_Vector3_get_down_m2372302126
yjd:__ZN6il2cpp5utils9PathUtils7CombineIcEENSt3__212basic_stringIT_NS3_11char_traitsIS5_EENS3_9allocatorIS5_EEEERKSA_RKNS0_10StringViewIS5_EE
GQa:_UNITY_png_destroy_info_struct
SUh:_PlayerConnection_ConnectedCallbackInternal_m2685675347
nIf:_Int16_System_IConvertible_ToDecimal_m2010889121_AdjustorThunk
Dvb:__ZN12MeshRenderer23VirtualRedirectTransferER19StreamedBinaryWriteILb0EE
Rpb:__ZN18StreamedBinaryReadILb0EE21TransferSTLStyleArrayI13dynamic_arrayI12LightmapDataLj4EEEEvRT_17TransferMetaFlags
Ehc:__Z49Register_UnityEngine_MonoBehaviour_StartCoroutinev
O9a:__Z11MD5ToStringPh
Z7e:_Enumerator_MoveNext_m2625246500_AdjustorThunk
Zfc:__Z38Input_Get_Custom_PropCompositionStringv
oDc:__ZN10ClipperLib7Clipper15ExecuteInternalEv
Nbj:_AnimatorControllerPlayable_INTERNAL_CALL_GetParameterCountInternal_m3593070209
XAh:_UTF8Encoding_GetPreamble_m4179999478
lGi:__Z117RuntimeInvoker_Void_t1841601450_Int64_t909078037_Il2CppObject_Il2CppObject_Int64_t909078037_Il2CppObject_Il2CppObjectPK10MethodInfoPvPS2_
LUh:_ConnectionChangeEvent__ctor_m616483304
faj:_AnimatorControllerPlayable_SetFloatID_m2632606700
iHd:__ZN6il2cpp5utils11StringUtils12Utf16ToLowerEDs
jcd:__ZN6il2cpp2vm5Class19GetArrayElementSizeEPK11Il2CppClass
GJh:_ValueType_InternalEquals_m4068150072
BR:__ZN9JSONWrite8TransferIN4core12basic_stringIcNS1_20StringStorageDefaultIcEEEEEEvRT_PKc17TransferMetaFlags
iAh:_UTF7Encoding_GetByteCount_m253528135
ECe:_PointerInputModule_CopyFromTo_m2185451090
vBc:__ZN24b2ChainAndPolygonContact6CreateEP9b2FixtureiS1_iP16b2BlockAllocator
ONf:_FileNotFoundException_GetObjectData_m3405690481
oRj:__ZNSt3__212basic_stringIcNS_11char_traitsIcEENS_9allocatorIcEEE6resizeEjc
Hyb:__ZN14PlayerSettings16CheckConsistencyEv
$O:__ZN11AudioModule30GetOrCreateDSPFromCustomFilterEP17AudioCustomFilter
DRa:__ZN19AtomicPageAllocatorD2Ev
zn:FUNCTION_TABLE_viiiiiiiiiiiiii
mCd:__ZN6il2cpp6icalls8mscorlib6System13GlobalizationL20culture_lcid_locatorEPKvS5_
oxa:__ZN13GfxDeviceGLES20DestroyComputeBufferE15ComputeBufferID
tu:__Z30AnimationPlayableEvaluateBeginP35AnimationPlayableEvaluationConstantP32AnimationPlayableEvaluationInputP33AnimationPlayableEvaluationOutput
Ypf:_Collection_1_Add_m3182287887_gshared
AGb:__Z33TransferPPtrToMonoObjectUnCheckedi24TransferInstructionFlags
wnb:__ZNK12CubemapArray16ExtractImageImplEP14ImageReferenceNS0_8BlitModeEbi
Dhc:__Z63Register_UnityEngine_MonoBehaviour_StartCoroutine_Auto_Internalv
Y9b:__ZN10systeminfo24GetSystemLanguageCultureEi
azh:_StringBuilder_Append_m3618697540
rfi:_ScrollRect_get_normalizedPosition_m1640825682
C_d:_SecurityElement_IsValidAttributeName_m2201790420
Tyb:__ZN10VRSettings8TransferI14SafeBinaryReadEEvRT_
nGh:_UInt16_System_IConvertible_ToDecimal_m984067306_AdjustorThunk
_eb:__Z22GetFolderSizeRecursiveRKN4core12basic_stringIcNS_20StringStorageDefaultIcEEEE
kwj:_Texture2D_INTERNAL_CALL_GetPixelBilinear_m570286059
ZPc:_UNITY_FT_Outline_Get_CBox
lZe:_Array_InternalArray__ICollection_Add_TisUInt16_t986882611_m2791161149_gshared
ka:invoke_viifiiii
Jxi:_Enumerator_Reset_m3115320746_gshared
DEf:_NumberFormatter_FormatDecimal_m1435371940
rXf:_SimpleCollator_GetTailContraction_m1037943844
HVd:_RC2CryptoServiceProvider_CreateEncryptor_m252199767
uFj:_U3CStartU3Ec__Iterator0_MoveNext_m2339115502_gshared
vF:__Z93Register_UnityEngine_Experimental_Director_AnimatorControllerPlayable_INTERNAL_CALL_SetBoolIDv
MRa:__ZN22PerThreadPageAllocator14AcquireNewPageEj
CO:__ZN24AudioScriptBufferManager15DidReloadDomainEv
raj:_AnimatorControllerPlayable_SetBoolID_m1141253014
HYa:__ZN6Camera13ClearNoSkyboxEb
BKf:_Int64_System_IConvertible_ToInt64_m989981560_AdjustorThunk
Lff:_List_1_CheckIndex_m2576265846_gshared
QXh:_Rect_GetHashCode_m559954498
r1i:_Application_CallLowMemory_m626389230
Yed:__ZNK15dense_hashtableI10KeyWrapperIPK17Il2CppGenericInstES4_N6il2cpp8metadata21Il2CppGenericInstHashEN14dense_hash_setIS4_S7_NS4_14EqualsComparerINS6_24Il2CppGenericInstCompareEEENSt3__29allocatorIS4_EEE8IdentityESB_SE_E12test_deletedEj
g8d:_Array_combsort_m2486643569
_7:__ZNSt3__27__sort5IR17CompareInstanceIDPP6ObjectEEjT0_S6_S6_S6_S6_T_
gib:__ZNSt3__26vectorI17SortingLayerEntryNS_9allocatorIS1_EEE12__move_rangeEPS1_S5_S5_
I5h:_DefaultComparer_Equals_m145577182_gshared
cya:__ZN18GfxFramebufferGLES10InvalidateEv
a4f:_SmallXmlParser_SkipWhitespaces_m2923234398
rse:_Decimal_System_IConvertible_ToSingle_m1736019752_AdjustorThunk
pBa:__ZN4crnd11crnd_deleteINS_13prefix_coding14decoder_tablesEEEvPT_
zwj:_TouchScreenKeyboard_Open_m2760130151
FEj:_UnityEvent_1_FindMethod_Impl_m1178377679_gshared
_$:__ZN10MemoryPoolD2Ev
jej:_GCHandle__ctor_m2952050298_AdjustorThunk
nmc:__ZNSt3__26__treeINS_12__value_typeIN4core12basic_stringIcNS2_20StringStorageDefaultIcEEEEN5IMGUI12NamedControlEEENS_19__map_value_compareIS6_S9_NS_4lessIS6_EELb1EEENS_9allocatorIS9_EEE7destroyEPNS_11__tree_nodeIS9_PvEE
Egg:_SslClientStream_get_SelectedClientCertificate_m1580018944
ule:_DateTime_FromTicks_m75527956
l$f:_KeyGeneratedEventHandler_Invoke_m4220935979
l7b:__ZN19SpriteMeshGenerator4path3decEi
Bdb:__ZN15dense_hashtableINSt3__24pairIKiPKN11AssetBundle9AssetInfoEEEi21InstanceIDHashFunctorN14dense_hash_mapIiS6_S8_NS0_8equal_toIiEE13stl_allocatorIS7_L18MemLabelIdentifier65ELi16EEE9SelectKeyESB_SE_E12resize_deltaEjj
Vte:_DebuggerTypeProxyAttribute__ctor_m3082078467
BUe:_Array_InternalArray__ICollection_Remove_TisVector3_t2243707580_m3881497481_gshared
YPj:___mmap
qbc:__ZN9Scripting26RaiseArgumentNullExceptionEPKc
NV:__ZL18InternalLogConsolePKcz
SOj:_lseek
tff:_List_1_System_Collections_IList_set_Item_m2267202349_gshared
q9e:_Enumerator_System_Collections_IEnumerator_get_Current_m3866069145_AdjustorThunk
B3e:_Component_GetComponentsInChildren_TisIl2CppObject_m1992201622_gshared
oqf:_Collection_1_ConvertItem_m2972284337_gshared
A3:__Z37scripting_method_get_nth_argumenttype18ScriptingMethodPtri
aN:__ZN11AudioSource16UpdatePauseStateEv
D7:__ZL52StaticUnregisterSceneLoadedCallback_LightmapSettingsPv
Lu:__ZN7mecanim5human25HumanPoseAddAdditiveLayerERNS0_9HumanPoseERKS1_fRKNS_6bitsetILj70EEE
Fhc:__Z48Register_UnityEngine_MonoBehaviour_StopCoroutinev
Nkg:_RemoteCertificateValidationCallback_Invoke_m2237177542
FMe:_HorizontalOrVerticalLayoutGroup_set_childForceExpandWidth_m1140293254
Mjg:_NameObjectCollectionBase_BaseAdd_m964300824
JSe:_Array_InternalArray__ICollection_Contains_TisKeyValuePair_2_t1174980068_m650645929_gshared
RXa:__ZN27DeviceViewProjMatricesStateD2Ev
gHi:__Z189RuntimeInvoker_Int32_t2071877448_Il2CppObject_Int32_t2071877448_Int32_t2071877448_Il2CppObject_Int32_t2071877448_SByte_t454417549_Int32U26_t455636984_BooleanU26_t3168250738_SByte_t454417549PK10MethodInfoPvPS2_
MWd:_RNGCryptoServiceProvider_RngOpen_m2238023214
Gnh:_CustomAttributeData_GetCustomAttributes_m4124612360
UJb:__Z18Transfer_BlittableI24GenerateTypeTreeTransferLb0E8Vector3fEvRK29SerializationCommandArgumentsR31RuntimeSerializationCommandInfo
$jj:_MethodDictionary_CopyTo_m1721788774
Exd:__ZN6il2cpp2vm6Thread16RequestInterruptEP12Il2CppThread
tig:_TlsStream_get_Position_m3551173234
Jgj:_LeaseManager_SetPollTime_m3137304074
pU:__ZNK3WWW6IsDoneEv
jhe:_Hashtable_CalcPrime_m1835281409
tLc:__ZNSt3__26vectorINS_4pairINS1_IttEEfEENS_9allocatorIS3_EEE8__appendEj
_5a:__ZN6prcoreL10inner_flipILj2EEEvPhS1_j
Ssh:_TypeBuilder_has_ctor_method_m3449702467
gQa:_UNITY_png_text_compress
Bsc:__ZN9JSONWrite8TransferIbEEvRT_PKc17TransferMetaFlags
C7d:_Array_CreateInstance_m679102425
wbb:__ZN12TLSAllocatorI14StackAllocatorED0Ev
mej:_GCHandle_GetTarget_m2056570211
Rxb:__ZN11TimeManager16CheckConsistencyEv
VNi:__Z67RuntimeInvoker_Void_t1841601450_Scene_t1684909666_Scene_t1684909666PK10MethodInfoPvPS2_
$Ua:__ZN21GfxDeviceAsyncCommand10ArgScratch15ThreadedCleanupEv
YDc:__ZN10ClipperLib14IntersectPointERNS_5TEdgeES1_RNS_8IntPointE
b5b:__Z14DoubleToStringd
w5f:_BigInteger_GenerateRandom_m1878468830
wJb:__ZN12NativeBufferI27Converter_UnityEngineObjectE15SetupForWritingER9ArrayInfo
FYb:__ZL19CheckForRightSpliceP14TESStesselatorP12ActiveRegion
dLe:_Graphic_UpdateGeometry_m2431537946
kWf:_ObsoleteAttribute__ctor_m834417715
we:_glTexImage3D
uP:__Z20RegisterModule_Audiov
ebg:_TlsCipherSuite__ctor_m2983563913
Tga:__ZNSt3__26vectorINS_4pairI11ShaderTagIDS2_EENS_9allocatorIS3_EEE6insertENS_11__wrap_iterIPKS3_EERS8_
Pya:__ZNK13TranslateGLES13BlendEquationE7BlendOp
sVi:__Z55RuntimeInvoker_Boolean_t3825574718_UIVertex_t1204258818PK10MethodInfoPvPS2_
iGd:__ZN6il2cpp2vm6Object13UnboxNullableEP12Il2CppObjectP11Il2CppClassPv
Fe:_JS_SystemInfo_GetCurrentCanvasWidth
Vxf:_ReadOnlyCollection_1_System_Collections_IList_Remove_m2668898250_gshared
Mac:__ZL34GetComponentsImplementationRecurseILb1ELi0ELi1EEbR10GameObjectbRK17CompareParametersRK39GetComponentsImplementation_ReturnValue
fUh:_Mesh_SetColors_m3438776703
Tzd:__ZN6il2cpp2vm14PlatformInvoke30MarshalCSharpStringToCppStringEP12Il2CppString
kFh:_Type_GetTypeHandle_m2405042843
kzb:__ZN10VRSettings8TransferI18StreamedBinaryReadILb0EEEEvRT_
bpi:_InternalEnumerator_1_System_Collections_IEnumerator_get_Current_m1322273508_AdjustorThunk
e5d:_DecoderFallbackException__ctor_m3081822699
aLf:_Int64_TryParse_m3093198325
NMb:__Z19TransferField_ArrayI19StreamedBinaryWriteILb0EE27Converter_SimpleNativeClassI8GradientEEvRK23StaticTransferFieldInfoR31RuntimeSerializationCommandInfoRT0_
JNf:_FileLoadException_ToString_m319701103
yUb:__ZN24GenerateTypeTreeTransfer8TransferINSt3__26vectorIN9ShaderLab20SerializedSubProgram15VectorParameterENS1_9allocatorIS5_EEEEEEvRT_PKc17TransferMetaFlags
NAc:__ZNK12b2WheelJoint16GetReactionForceEf
Q7b:__Z13GetImagePixelI10ColorRGBAfET_PKhii13TextureFormat15TextureWrapModeii
mte:_Delegate_SetMulticastInvoke_m361277268
M5d:_EncoderReplacementFallbackBuffer_get_Remaining_m2777488845
Dsb:__ZN7SubMesh8TransferI18StreamedBinaryReadILb0EEEEvRT_
bgb:__ZN21AssetBundleFileSystem4NameEv
PAh:_UTF8Encoding_GetCharCount_m3557355060
tfg:_RecordProtocol_SendRecord_m2977889250
mTh:_Matrix4x4_get_Item_m312280350_AdjustorThunk
kf:_emscripten_glIsEnabled
uOb:__ZN18StreamedBinaryReadILb1EE21TransferSTLStyleArrayI13dynamic_arrayIdLj8EEEEvRT_17TransferMetaFlags
nfc:__Z45Register_UnityEngine_GameObject_get_transformv
H2:__Z29scripting_class_instance_size17ScriptingClassPtr
bBc:__ZN7b2World12DestroyJointEP7b2Joint
ehg:_SslHandshakeHash_initializePad_m4132246594
Spg:_X509CertificateCollection_get_Item_m848456018
xT:__ZN11UnityEngine15CloudWebService19SessionEventManager26ProcessEventQueueJobStaticEPv
nnj:_AnchorInfo_get_IsUnknownWidth_m3747592836
K3e:_GameObject_GetComponents_TisIl2CppObject_m374334104_gshared
ST:__ZN11UnityEngine15CloudWebService19SessionEventManager37OnTimerExpiredPerformArchiveJobStaticEPv
N9f:_CertificateValidationCallback2_Invoke_m436894540
FLi:__Z101RuntimeInvoker_OpFlags_t378191910_SByte_t454417549_SByte_t454417549_SByte_t454417549_SByte_t454417549PK10MethodInfoPvPS2_
lA:__ZN23AnimationPlayableOutputC2EjP13PlayableGraph
jwj:_Texture2D_GetPixelBilinear_m3063031185
dUd:__ZN6il2cpp6icalls8mscorlib6System10Reflection4Emit11DerivedType21create_unmanaged_typeEP20Il2CppReflectionType
iD:__ZN7mecanim12statemachine13GetStateIndexEPKNS0_20StateMachineConstantEj
Sfh:_FormatterConverter_ToInt32_m1004171952
X8:__Z29GetOcclusionPortalManagerListv
H6d:_Array_System_Collections_IList_set_Item_m4290470392
weh:_RemotingConfiguration_RegisterActivatedServiceType_m4003543022
Vic:__Z39Register_UnityEngine_Sprite_get_texturev
Cgj:_ConfigHandler_GetNotNull_m2454680251
K9c:__ZL10rescale128PyS_Piiiii
mH:__ZN9AudioClip7WWWSeekEPvjS0_
kTe:_Array_InternalArray__ICollection_Contains_TisUInt32_t2149682021_m672455245_gshared
WIh:_UIntPtr_System_Runtime_Serialization_ISerializable_GetObjectData_m3481735378
m6:__ZL32StaticInitializeIUnityInterfacesPv
zUa:__Z13CameraProjectRK8Vector3fRK10Matrix4x4fS4_RK5RectTIiERS_b
YAb:__ZN30RuntimeInitializeOnLoadManager15ClassMethodInfo8TransferI19StreamedBinaryWriteILb0EEEEvRT_
n$:__Z22CreateMutexLockedStackv
Kpe:_DateTime_System_IConvertible_ToType_m3821835592
mtg:_IntervalCollection_get_Item_m1667788970
Lsa:__ZNSt3__27__sort5IRNS_4lessIN22BuiltinResourceManager8ResourceEEEPS3_EEjT0_S7_S7_S7_S7_T_
vI:__Z27GetAudioScriptingClassesPtrv
m6d:_Latin1Encoding_GetByteCount_m2812921286
vOa:__ZN9ShaderLab11ShaderStateD2Ev
$re:_Decimal_System_IConvertible_ToByte_m3432160840
uEb:__Z23TransferScriptingObjectI24GenerateTypeTreeTransferEvRT_18ScriptingObjectPtr17ScriptingClassPtrPK15MonoScriptCache
Vfh:_BinaryCommon__cctor_m3619690968
eZj:_emscripten_longjmp__wrapper
Ysj:_X509Chain_FindCertificateRoot_m589250107
cQa:_UNITY_png_write_iTXt
BSf:_UnmanagedMemoryStream_Flush_m3305300000
tMb:__ZL17Transfer_GUIStyleI19StreamedBinaryWriteILb0EELb0EEvRK29SerializationCommandArgumentsR31RuntimeSerializationCommandInfo
qHi:__Z248RuntimeInvoker_Int32_t2071877448_Il2CppObject_Int32_t2071877448_Int32_t2071877448_Il2CppObject_Int32_t2071877448_UInt32U26_t2197289955_UInt32U26_t2197289955_Il2CppObject_DecoderFallbackBufferU26_t3597875002_ByteU5BU5DU26_t790777611_SByte_t454417549PK10MethodInfoPvPS2_
Mxj:_UnityString_Format_m2949645127
Sge:_Comparer_GetObjectData_m3370677985
YEj:_UnityEvent_4_GetDelegate_m2704961864_gshared
xOf:_FileStream_WriteInternal_m115274124
U3d:_Encoding__ctor_m3985582722
Pgh:_ObjectManager_RaiseOnDeserializingEvent_m1841526046
D3d:_String_CreateString_m560359261
LQc:_UNITY_FT_Init_Class_tt_service_get_cmap_info
Okh:_DSA_ToXmlString_m1014346120
cOj:___shlim
dYd:_SHA256Managed__ctor_m1410575277
HBc:__ZN16b2BlockAllocator4FreeEPvi
Oxe:_CompareInfo_internal_index_managed_m859405335
M9d:_Boolean_System_IConvertible_ToDateTime_m2613818037_AdjustorThunk
kid:__ZNSt3__211__tree_nextIPNS_16__tree_node_baseIPvEEEET_S5_
zzf:_ReadOnlyCollection_1_System_Collections_IList_Clear_m2240307498_gshared
yCd:__ZN15dense_hashtableI10KeyWrapperIP18Il2CppGenericClassES3_N6il2cpp8metadata22Il2CppGenericClassHashEN14dense_hash_setIS3_S6_NS3_14EqualsComparerINS5_25Il2CppGenericClassCompareEEENSt3__29allocatorIS3_EEE8IdentityESA_SD_E14squash_deletedEv
ila:__ZN6prcoreL17RemapGenericFloatI17TexFormatRGBAHalf17TexFormatRGBFloatEEvPKNS_9InnerInfoE
fgh:_BinaryFormatter_NoCheckDeserialize_m1968202401
vLe:_Graphic_CrossFadeAlpha_m4067047552
Jic:__Z35Sprite_Get_Custom_PropPixelsPerUnitP12Il2CppObject
B_j:_pthread_cond_wait__wrapper
pwc:__ZN9rapidjson12PrettyWriterI16TempBufferWriterNS_4UTF8IcEES3_13JSONAllocatorE10StartArrayEv
_ed:__ZNSt3__26__sortIRN6il2cpp5utils11collections13ArrayValueMapIPK10Il2CppType17Il2CppInteropData26InteropDataToTypeConverterNS1_8metadata14Il2CppTypeLessENSA_26Il2CppTypeEqualityComparerEE12SortComparerEPS8_EEvT0_SH_T_
EEb:__ZN11PreloadDataD2Ev
WIc:__ZZN10Collider2D15InitializeClassEvEN38FunctorImpl_104kCompositeColliderAdded4CallEPviR11MessageData
bc:invoke_iifi
TIc:__ZZN10Collider2D15InitializeClassEvEN31FunctorImpl_101kDidAddComponent4CallEPviR11MessageData
Pyg:__ZL79Hashtable_t909839986_CustomAttributesCacheGenerator_Hashtable__ctor_m3742489710P21CustomAttributesCache
Rzc:__ZNK16b2PrismaticJoint16GetReactionForceEf
yTh:_Mesh__ctor_m2975981674
xji:_VertexHelper_AddUIVertexStream_m3599763288
WSh:_Mathf_Abs_m1942863256
g7h:_EqualityComparer_1_System_Collections_IEqualityComparer_Equals_m1565968086_gshared
S$e:_Array_InternalArray__set_Item_TisSlot_t2022531261_m3811041838_gshared
bWd:_RijndaelTransform__cctor_m1393306207
SKe:_Graphic_get_defaultMaterial_m1022773737
oUc:_UNITY_FT_Init_Class_pscmaps_interface
khi:_Slider_OnDidApplyAnimationProperties_m3202463395
iF:__Z109Register_UnityEngine_Experimental_Director_AnimatorControllerPlayable_INTERNAL_CALL_GetParameterCountInternalv
rMe:_GridLayoutGroup_SetLayoutVertical_m3233681648
Uec:__Z44Register_UnityEngine_RectOffset_get_verticalv
PFh:_Type_MakeGenericType_m973683242
NSd:__ZN6il2cpp2vm9LastError31InitializeLastErrorThreadStaticEv
q1b:__ZN13ProduceHelperI13RenderTextureLb0EE7ProduceE18MemLabelIdentifier18ObjectCreationMode
zcb:__ZN5Unity9Component8TransferI14SafeBinaryReadEEvRT_
IK:__ZN4FMOD6System17setSoftwareFormatEi17FMOD_SOUND_FORMATii18FMOD_DSP_RESAMPLER
kI:__ZN11AudioSource31UpdateEffectVirtualizationStateEb
hwh:_MonoGenericCMethod__ctor_m2520666358
lh:_JS_SystemInfo_GetCurrentCanvasHeight
Ach:_ReturnMessage_get_OutArgs_m299904174
foc:__Z34GUIStyle_Get_Custom_PropFixedWidthP12Il2CppObject
s1f:_RSAManaged_get_PublicOnly_m2603845138
pse:_Decimal_System_IConvertible_ToSByte_m3745141000_AdjustorThunk
yJd:__ZN6il2cpp2gc16GarbageCollector11GetWeakLinkEPPv
wUf:_MonoType_GetMethods_m353342170
wU:__ZN13EmscriptenWWW23HasDownloadedOrMayBlockEv
GHd:__GLOBAL__sub_I_Console_cpp
_ka:__ZN6prcoreL17RemapGenericFloatI14TexFormatRHalf17TexFormatRGBAHalfEEvPKNS_9InnerInfoE
Hjd:__ZN6il2cpp2vm7Runtime11InvokeArrayEPK10MethodInfoPvP11Il2CppArrayPP15Il2CppException
H4b:__ZNK10GameObject23QueryComponentTransformEv
AE:__Z71AnimatorControllerPlayable_CUSTOM_INTERNAL_CALL_PlayInFixedTimeInternalR9HPlayableiif
cGf:_GregorianCalendar_get_Eras_m4010603022
Nve:_Enum_System_IConvertible_ToUInt16_m1001858842
$2h:_Dictionary_2_make_pair_m394533803_gshared
uYc:_Dual_Project
eZ:__GLOBAL__sub_I_runtime_utilities3_lump_cpp
kG:__ZN9AudioClip23VirtualRedirectTransferER14SafeBinaryRead
nEa:__ZN4gles20EnsureTextureCreatedEP7ApiGLESP17RenderSurfaceGLES
jSe:_LayoutRebuilder_U3CRebuildU3Em__2_m3239837417
rVa:__ZN15ReplacementPass13PrepareSubsetEjRK10RenderNodeifRK17ShaderReplaceData
qse:_Decimal_System_IConvertible_ToSingle_m1736019752
nL:__Z32AudioMeasurement_GetTimeConstantff
rPa:_UNITY_png_compress_IDAT
cKd:__ZN6il2cpp8metadata11FieldLayout12LayoutFieldsEjjjRKNSt3__26vectorIPK10Il2CppTypeNS2_9allocatorIS6_EEEERNS1_15FieldLayoutDataE
X0g:__ZL54ContextMenu_t2283362202_CustomAttributesCacheGeneratorP21CustomAttributesCache
i1a:__ZL27PrepareSceneNodesJobCombineP25ScheduleSceneNodesJobData
TGb:__Z22TransferField_NonArrayI14SafeBinaryRead27Converter_SimpleNativeClassI8GUIStyleEEvRK23StaticTransferFieldInfoR31RuntimeSerializationCommandInfoRT0_
zud:__ZN14dense_hash_mapI10KeyWrapperIPK10Il2CppTypeEjN6il2cpp8metadata14Il2CppTypeHashENS4_14EqualsComparerINS6_26Il2CppTypeEqualityComparerEEENSt3__29allocatorINSB_4pairIKS4_jEEEEEC2EjRKS7_RKSA_
Gta:__ZN13GfxDeviceGLESD2Ev
v8:__ZN18AsyncUploadManager13StaticDestroyEPv
gqh:_EnumBuilder_GetConstructorImpl_m331611313
rFc:__ZN16Physics2DManager26GetGameObjectForRaycastHitERK12RaycastHit2D
KRb:__ZN6Shader7SetNameEPKc
_He:_DefaultControls_SetParentAndAlign_m3048898502
Fs:__ZN11UnityEngine9Animation35SetTransformPropertyApplyMainThreadER9TransformRKNS0_30AnimatorGenericBindingConstantERKNS0_21AvatarBindingConstantEb
M6a:__ZN19CustomRenderTexture22HandleBoundaryWrappingERKNS_14UpdateZoneInfoEj
gid:__ZN6il2cpp2vm13MetadataCache32GenerateCustomAttributeTypeCacheEi
fqg:_X509Chain__cctor_m826131835
Ysf:_Collection_1_InsertItem_m1073626529_gshared
F8d:_ArrayTypeMismatchException__ctor_m1923871345
jkh:_CspParameters__ctor_m3051314030
zYc:_Direct_Move_Y
xYc:_Direct_Move_X
opg:_X509ChainElement_Set_m2634474339
Q7i:_Event_get_isKey_m1145918225
I9d:_Boolean_System_IConvertible_ToByte_m1443044213_AdjustorThunk
Fi:_glClearDepthf
c1b:__ZN19SkinnedMeshRenderer7GetMeshEv
SXb:__ZN19RuntimeSceneManager14GetActiveSceneEv
kJi:__Z81RuntimeInvoker_Int32_t2071877448_Il2CppObject_Int32_t2071877448_Int16_t4041245914PK10MethodInfoPvPS2_
gld:__ZN6il2cpp6icalls8mscorlib6SystemL8IsStaticEPK9EventInfo
Dec:__Z29RectOffset_Set_Custom_PropTopP12Il2CppObjecti
Vjc:__Z57Register_UnityEngine_Transform_INTERNAL_get_localPositionv
F$a:__ZNSt3__27__sort4IR15ReflProbeSorterPP15ReflectionProbeEEjT0_S6_S6_S6_T_
bZf:_BigInteger_op_Equality_m366854173
Sjb:__ZN16GraphicsSettings10SmartResetEv
O4c:__Z55Register_UnityEngine_Analytics_CustomEventData_AddInt16v
_ai:_MaskableGraphic_Cull_m3130802047
H4i:_CanvasRenderer_Clear_m2419751129
Pfg:_RecordProtocol_MapV2CipherCode_m4064211604
NDi:__Z63RuntimeInvoker_Int16_t4041245914_Il2CppObject_Int32_t2071877448PK10MethodInfoPvPS2_
u4d:_ASCIIEncoding_GetByteCount_m2696039881
Cfg:_ReceiveRecordAsyncResult_SetComplete_m2441107665
Elb:__ZN20SphericalHarmonicsL28TransferI19StreamedBinaryWriteILb0EEEEvRT_
kGe:_CanvasUpdateRegistry_InternalUnRegisterCanvasElementForLayoutRebuild_m3740187734
R$b:__ZNK28RectTransformPropertyBinding9BindValueER6ObjectRKN11UnityEngine9Animation14GenericBindingERNS3_10BoundCurveE
Cph:_DerivedType_get_AssemblyQualifiedName_m2010127631
sz:__ZN26AnimatorControllerPlayable11DerivesFromE17ScriptingClassPtr
fOh:_GUISkin_set_button_m412653849
$ub:__ZN4Mesh14UploadMeshDataEb
rqi:_InternalEnumerator_1_System_Collections_IEnumerator_get_Current_m4023948615_AdjustorThunk
W4f:_ArgIterator_Equals_m2415994310
u1b:__ZN14RenderSettings12CleanupClassEv
Ric:__Z43DataUtility_CUSTOM_INTERNAL_CALL_GetPaddingP12Il2CppObjectR8Vector4f
nwa:__ZN9GfxDevice15ImmediateNormalEfff
Q5d:_EncoderReplacementFallbackBuffer_GetNextChar_m1811006007
Nxj:_Vector2__ctor_m3067419446
s5a:__ZN15SerializeTraitsI13dynamic_arrayIN10GameObject13ComponentPairELj4EEE19ResizeSTLStyleArrayERS3_i18MemLabelIdentifier
WKb:__ZN13GUIStyleState8TransferI24GenerateTypeTreeTransferEEvRT_
A4:__ZN20dynamic_block_vectorI14FileIdentifierE22push_back_no_constructEv
$oa:__ZN9Texture3D23VirtualRedirectTransferER14SafeBinaryRead
czh:_StringBuilder_Append_m1462406979
mTb:__ZNSt3__26vectorIN9ShaderLab20SerializedSubProgram16TextureParameterENS_9allocatorIS3_EEE8__appendEj
Uob:__ZN9Texture2D13UploadTextureEi
fFh:_Type_GetType_m773255995
dXc:_cff_get_cid_from_glyph_index
dci:_RawImage__ctor_m527845386
JK:__ZN4FMOD6System19setSoftwareChannelsEi
g0e:_Array_InternalArray__set_Item_TisResourceCacheItem_t333236149_m2074358118_gshared
n_h:_Enumerator_MoveNext_m3349738440_gshared
Sng:_X500DistinguishedName_DecodeRawData_m3640767187
nae:_Boolean_System_IConvertible_ToUInt64_m3594533761
pgc:__Z60Register_UnityEngine_Input_INTERNAL_set_compositionCursorPosv
NM:__ZN11AudioSource7SetLoopEb
BVg:__ZL51Collider_t3497673348_CustomAttributesCacheGeneratorP21CustomAttributesCache
FNh:_GUISettings_Internal_GetCursorFlashSpeed_m3799968572
HYf:_BigInteger_get_Rng_m1268152318
Byj:_Vector3_op_Division_m3315615850
wcb:__ZN9Behaviour10DeactivateE19DeactivateOperation
Hvh:_MonoEvent_IsDefined_m3151861274
vTc:_Cubic_To
Jbg:_TlsStream_WriteInt24_m1660453494
Adc:__Z44Register_UnityEngine_Camera_get_farClipPlanev
_aj:_AnimatorControllerPlayable_INTERNAL_CALL_GetLayerNameInternal_m2049776925
eBb:__ZNK17IAnimationBinding30CurveAttributeToSerializedPathERKN11UnityEngine9Animation10BoundCurveE
ZDd:__ZN6il2cpp2gc16GarbageCollector14GetOrCreateCCWEP12Il2CppObjectRK10Il2CppGuid
FFd:__ZN6il2cpp2vm5Image21FromTypeNameParseInfoEPK11Il2CppImageRKNS0_17TypeNameParseInfoEb
Eza:__ZN17BufferManagerGLES13AcquireBufferEjN14DataBufferGLES11BufferUsageEb
Zje:_Console_OpenStandardError_m3676373108
ASf:_UnmanagedMemoryStream_SetLength_m1805321486
lkd:__ZNK6il2cpp5utils10functional6FilterINSt3__212basic_stringIcNS3_11char_traitsIcEENS3_9allocatorIcEEEENS0_11StringUtils23CaseInsensitiveComparerEEclIPKcEEbRKT_
Ncg:_Context_get_ProtocolNegotiated_m624488778
qdf:_List_1_System_Collections_IList_IndexOf_m1671340024_gshared
z8d:_SimpleEnumerator_MoveNext_m1696906961
o8c:__ZN16UnityAdsSettingsD0Ev
Adg:_Context_StartSwitchingSecurityParameters_m373522596
zAa:__ZNK7ApiGLES10DebugLabelEN2gl10ObjectTypeEjPKc
HXe:_Array_InternalArray__IndexOf_TisInt16_t4041245914_m1619355230_gshared
lSj:__ZNK10__cxxabiv121__vmi_class_type_info16search_below_dstEPNS_19__dynamic_cast_infoEPKvib
qKf:_Int64_System_IConvertible_ToDateTime_m1002280174
Tke:_Convert_ToByte_m9159597
Sic:__Z38DataUtility_CUSTOM_Internal_GetMinSizeP12Il2CppObjectP13Vector2fIcall
h5b:__ZN8PlayableC2E17ScriptingClassPtr18DirectorPlayerType
eth:_OpCode_Equals_m3738130494
fdj:_ResourceEnumerator_get_Key_m1012797265
Yyc:__ZN15b2DistanceJoint4DumpEv
Xld:_il2cpp_class_has_attribute
CNh:_GUISettings__ctor_m2453724887
UCh:_Scheduler_ShrinkIfNeeded_m2186823111
C9f:_Alert_get_IsCloseNotify_m577852330
e3:__Z27FindOrCreateMonoScriptCache17ScriptingClassPtr22InitScriptingCacheTypeP6Objecti
BPb:__Z18Transfer_BlittableI18StreamedBinaryReadILb0EELb1E8Vector3fEvRK29SerializationCommandArgumentsR31RuntimeSerializationCommandInfo
vRh:_GUIUtility__cctor_m46116445
l0c:__ZN2UI14CanvasRenderer13SyncVertexPtrER8JobFenceNS0_8SyncFlagE
u3:__Z35scripting_method_get_argument_count18ScriptingMethodPtr
Bra:__ZN18AssetBundleManager18SortPreloadObjectsER13dynamic_arrayIiLj4EEb
jGh:_UInt16_System_IConvertible_ToChar_m4055364664_AdjustorThunk
sii:_Text_set_fontStyle_m1766503514
yfc:__Z20Gradient_CUSTOM_InitP12Il2CppObject
ahb:__ZN21ArchiveStorageCreator11StoreStreamEb
Kgh:_ObjectReader_BlockRead_m2374879830
dqc:__Z48Register_UnityEngine_GUIUtility_Internal_ExitGUIv
Yae:_Byte_System_IConvertible_ToDouble_m4224320007
m1a:__ZL21CullDynamicObjectsJobP14CullingJobDataj
I_c:__ZN2UI15ClearCanvasDataER8JobFenceRNS_10CanvasDataE
aFc:__ZN15dense_hashtableINSt3__24pairIKNS1_IPK10Collider2DS4_EE11Collision2DEES5_NS2_23ColliderPairHashFunctorEN14dense_hash_mapIS5_S7_S9_NS0_8equal_toIS5_EE13stl_allocatorIS8_L18MemLabelIdentifier65ELi16EEE9SelectKeyESC_SF_ED2Ev
Alg:_IPAddress_ToString_m1462985652
cle:_Convert_ToDateTime_m261774113
vuh:_MethodBase_GetMethodFromHandleNoGenericCheck_m4274264088
TZh:_Enumerator_get_CurrentKey_m1408186928_AdjustorThunk
x7a:__ZN14ManagerContext17InitializeClassesEv
ubi:_MaskUtilities_GetRectMasksForClip_m1540508301
Ydb:__ZN19StreamedBinaryWriteILb0EE21TransferSTLStyleArrayINSt3__26vectorI14ConstantStringNS2_9allocatorIS4_EEEEEEvRT_17TransferMetaFlags
Ou:__ZN7mecanim5human20MaskHasRightFootGoalERKNS_6bitsetILj70EEE
hOb:__ZN18StreamedBinaryReadILb1EE21TransferSTLStyleArrayI31ArrayOfManagedObjectsTransfererEEvRT_17TransferMetaFlags
Aaf:_List_1_System_Collections_IList_IndexOf_m406088260_gshared
jKh:_WeakReference_get_Target_m1672141897
mZf:_Kernel_DwordDivMod_m4066997639
aUc:_t1_hints_open
SPj:_access
PZd:_X509Certificate_GetCertHash_m2299453268
eVd:_MD5CryptoServiceProvider__ctor_m457716966
$wj:_Transform_get_rotation_m1033555130
Zme:_Decimal_s64_m2965457432
q8b:__Z18TransformPoints3x4RK10Matrix4x4fPK8Vector3fjPS2_ji
Soc:__Z38Register_UnityEngine_GUIStyle_InitCopyv
CJ:__ZN4FMOD7Channel11getUserDataEPPv
aRc:_UNITY_tt_face_load_gasp
QNc:_ft_ansi_stream_close
gm:_JS_Sound_SetPitch
c7g:__ZL69InputField_t1631627530_CustomAttributesCacheGenerator_m_TextComponentP21CustomAttributesCache
Kmd:_il2cpp_runtime_invoke_convert_args
dvc:__Z19TransferField_ArrayI8JSONRead27Converter_SimpleNativeClassI10RectOffsetEEvRK23StaticTransferFieldInfoR31RuntimeSerializationCommandInfoRT0_
vxi:_Enumerator_get_CurrentKey_m447338908_AdjustorThunk
Kbg:_Context_get_SecurityProtocol_m1600902905
QAd:__ZN6il2cpp6icalls8mscorlib6System2IO6MonoIO11GetFileStatEP12Il2CppStringPNS3_8FileStatEPi
tVa:__ZNK9ShaderLab9IntShader6GetTagE11ShaderTagIDb
M_a:__Z25CalculateShadowCasterCullbPK5PlaneRK10Matrix4x4fRK8Vector3fff9LightTypeS7_R16ShadowCasterCullPKb
dog:_X509BasicConstraintsExtension_CopyFrom_m1321548708
Hlh:_HMAC_HashCore_m1869699062
jmh:_Assembly_GetTypes_m1317253146
BIf:_Int16_System_IConvertible_ToType_m2901377575_AdjustorThunk
DKf:_Int64_System_IConvertible_ToSByte_m253213816_AdjustorThunk
f1c:__ZN2UI14CanvasRenderer11SetMaterialEP8Materiali
JCe:_MouseState_SetButtonState_m2329922363
uNf:_FileStream__ctor_m3815606687
gNd:_GC_freehblk
mEf:_NumberFormatter_NumberToString_m668979517
rCf:_ReadOnlyCollection_1_System_Collections_IList_Remove_m2507730234_gshared
D0h:_Enumerator_System_Collections_IEnumerator_Reset_m2482663638_gshared
Xac:__ZN9Scripting35DestroyObjectFromScriptingImmediateEP6Objectb
OKi:__Z93RuntimeInvoker_Il2CppObject_Byte_t3683104436_Il2CppObject_Int32_t2071877448_Int32_t2071877448PK10MethodInfoPvPS2_
ZVg:__ZL53Rigidbody2D_t502193897_CustomAttributesCacheGeneratorP21CustomAttributesCache
Mdh:_RemotingServices_GetRemoteObject_m3663391550
vZc:__ZN20TextRenderingPrivate22ScriptingTextGenerator9InitVertsEi
CUb:__ZN24GenerateTypeTreeTransfer8TransferINSt3__26vectorIN9ShaderLab20SerializedSubProgram12UAVParameterENS1_9allocatorIS5_EEEEEEvRT_PKc17TransferMetaFlags
xc:invoke_iiiiiiiiiiiiiii
gId:__ZN6il2cpp2os6Thread33UnregisterCurrentThreadForCleanupEv
s1j:_emscripten_glIsRenderbuffer__wrapper
Kue:_Double_System_IConvertible_ToInt32_m549769450_AdjustorThunk
Y_c:__ZN2UI11CanvasGroup8TransferI19StreamedBinaryWriteILb0EEEEvRT_
dlb:__ZNK20IntermediateRenderer8GetLayerEv
trb:__ZN15QualitySettings8TransferI14SafeBinaryReadEEvRT_
Kcd:__ZN14dense_hash_mapI10KeyWrapperIPK11Il2CppClassEPKcN6il2cpp5utils11PointerHashIS1_EENS4_14EqualsComparerINSt3__28equal_toIS3_EEEENSC_9allocatorINSC_4pairIKS4_S6_EEEEE13set_empty_keyERSI_
GT:__ZN11UnityEngine15CloudWebService17WebFileDownloaderINS0_13WWWRestClientENS0_16WWWRestHeaderMapEE10InitializeERKN4core12basic_stringIcNS5_20StringStorageDefaultIcEEEESB_SB_
Usj:_X509Store_LoadCertificate_m1082475046
lRf:_StringReader_CheckObjectDisposedException_m3099453260
cjg:_ListDictionary_System_Collections_IEnumerable_GetEnumerator_m2244736244
QFd:__ZNSt3__26vectorIN6il2cpp2vm5Image20EmbeddedResourceDataENS_9allocatorIS4_EEE21__push_back_slow_pathIS4_EEvOT_
A8e:_Enumerator_System_Collections_IEnumerator_get_Current_m3228580602_AdjustorThunk
fXe:_Array_IndexOf_TisCustomAttributeTypedArgument_t1498197914_m3666284377_gshared
OZf:_Kernel_AddSameSign_m2332657679
q2:__ZN14SerializedFile10ReadObjectEx18ObjectCreationModebPPK8TypeTreePbR6Object
Umf:_Collection_1_System_Collections_IList_IndexOf_m3460849589_gshared
o8b:__ZN4Mesh12SetIndexDataEiiPKv16GfxPrimitiveTypei
Psa:__ZN14dynamic_bitset6resizeEjb
uze:_BaseInputModule_FindCommonRoot_m2696088443
st:__ZN7mecanim8skeleton16SkeletonPoseCopyIN4math4trsXES3_EEvPKNS0_13SkeletonPoseTIT_EEPNS4_IT0_EE
Lcd:__ZN14dense_hash_mapI10KeyWrapperIPK11Il2CppClassEPKcN6il2cpp5utils11PointerHashIS1_EENS4_14EqualsComparerINSt3__28equal_toIS3_EEEENSC_9allocatorINSC_4pairIKS4_S6_EEEEE15set_deleted_keyERSI_
$ta:__ZN9GfxDevice34SetStencilRefWhenStencilWasSkippedEi
K6c:__ZN11UnityEngine7Connect13ConnectConfig20RestoreTimeoutConfigERK13dynamic_arrayIiLj4EEjRS3_
wc:invoke_fi
v4e:_Array_InternalArray__get_Item_TisDecimal_t724701077_m4156246600_gshared
MV:__ZL21InternalAssertConsolePKcz
uc:invoke_ff
Gd:_emscripten_glVertexAttrib3f
Ird:__ZN30dense_hashtable_const_iteratorINSt3__24pairIK10KeyWrapperINS1_IPK11Il2CppImageP11Il2CppClassEEEjEES9_17ReflectionMapHashIS8_EN14dense_hash_mapIS9_jSD_NS9_14EqualsComparerINS0_8equal_toIS8_EEEENS0_9allocatorISB_EEE9SelectKeyESI_SK_EppEv
Cce:_Char_CompareTo_m3044885427
hgf:_List_1_System_Collections_IList_IndexOf_m2887559165_gshared
Y0h:_ValueCollection__ctor_m1825701219_gshared
YLc:__ZN20TextRenderingPrivate8TextMesh11ApplyToMeshEv
eig:_SslStreamBase_get_CanRead_m3061866682
IWj:_emscripten_glDrawRangeElements__wrapper
VDb:__Z28scripting_class_is_valuetype17ScriptingClassPtr
_ab:__ZNSt3__25dequeI10InputEventNS_9allocatorIS1_EEE19__add_back_capacityEv
c8e:_Enumerator_System_Collections_IEnumerator_Reset_m336811426_AdjustorThunk
VRa:__ZN13ComputeShader13SetValueParamERKN9ShaderLab16FastPropertyNameEiPKv
gvb:__ZN14BlendShapeDataD2Ev
Jsh:_MethodToken_Equals_m533761838
DCa:__ZL18ProgramUniform3uivPK7ApiGLESjiihPKv
X8d:_Attribute_IsDefined_m1350918959
Q1c:__Z47CanvasRenderer_Set_Custom_PropHasPopInstructionP12Il2CppObjecth
axh:_MonoProperty_get_DeclaringType_m4236036432
hCa:__ZN5Image8SetImageEii13TextureFormatb
EDb:__ZN17MessageIdentifier21GetRegisteredMessagesEv
Qji:_U3CGetEnumeratorU3Ec__Iterator0_System_Collections_IEnumerator_get_Current_m480171694_gshared
rzf:_ReadOnlyCollection_1_System_Collections_Generic_ICollectionU3CTU3E_Remove_m1342418180_gshared
aU:__Z13RegisterClassI23CloudWebServicesManagerEvv
WId:__ZN6il2cpp2vm5Array3NewEP11Il2CppClassi
IEd:__GLOBAL__sub_I_Image_cpp
TSf:_Math_Sin_m2320256962
CBf:_ReadOnlyCollection_1_System_Collections_Generic_IListU3CTU3E_Insert_m2409570138_gshared
uff:_List_1_Add_m2123823603_gshared
uia:__ZNSt3__27__sort5IRPFbRKNS_4pairIN9ShaderLab16FastPropertyNameEfEES6_EPS4_EEjT0_SB_SB_SB_SB_T_
hIc:__ZNK11Rigidbody2D26GetTypeInfoVirtualInternalEv
kp:establishStackSpace
TEe:_CanvasUpdateRegistry__ctor_m4037208045
Obc:__ZN8Material25DidModifyShaderKeywordSetEv
mKd:__ZN14dense_hash_mapI10KeyWrapperIPK19Il2CppGenericMethodEP10MethodInfoN6il2cpp8metadata23Il2CppGenericMethodHashENS4_14EqualsComparerINS8_26Il2CppGenericMethodCompareEEENSt3__29allocatorINSD_4pairIKS4_S6_EEEEE15set_deleted_keyERSG_
ZHb:__Z29Transfer_Blittable_ArrayFieldI14SafeBinaryRead4AABBEvRT_R9ArrayInfoRK23StaticTransferFieldInfo
azf:_ReadOnlyCollection_1_System_Collections_IList_RemoveAt_m2396335261_gshared
zQh:_GUIStyle_CalcHeight_m1685124037
JIe:_Dropdown_set_captionImage_m1952025570
g3g:__ZL56g_UnityEngine_UI_Assembly_CustomAttributesCacheGeneratorP21CustomAttributesCache
n1f:_RSAManaged_remove_KeyGenerated_m452989252
Tec:__Z46Register_UnityEngine_RectOffset_get_horizontalv
_mb:__ZN18DelayedCallManager8ClearAllEv
oTf:_MissingMethodException__ctor_m2480587339
f0a:__ZNK25RenderPrePassObjectSorterclERK16RenderObjectDataS2_
sOb:__Z22TransferField_NonArrayI18StreamedBinaryReadILb1EE27Converter_SimpleNativeClassI8GUIStyleEEvRK23StaticTransferFieldInfoR31RuntimeSerializationCommandInfoRT0_
te:_Mix_LoadWAV_RW
g5b:__ZN15DirectorManager14ConnectionPool8AllocateEi
Axj:_Enumerator__ctor_m147705785
br:__ZNSt3__27__sort4IRNS_6__lessIN11UnityEngine9Animation13CachedBindingES4_EEPS4_EEjT0_S8_S8_S8_T_
hDd:__ZN6il2cpp2gcL12alloc_handleEPNS0_10HandleDataEP12Il2CppObjectb
E_j:_emscripten_glGetAttribLocation__wrapper
WFe:_CanvasScaler_HandleConstantPhysicalSize_m687057631
_$j:b98
sPa:_UNITY_png_write_flush
h3f:_PKCS12_Encrypt_m1401341763
I4:__ZL16ReadTypeTreeImplILb1EEbR8TypeTreeRK16TypeTreeIteratorRPKhS6_i
mEc:__ZN19CollisionListener2D15DestroyContactsEP10Collider2D
W$j:b96
Le:_glBlendEquationSeparate
lYd:_SHA384_Create_m1970724783
qm:_emscripten_glDeleteVertexArrays
pxa:__ZN13GfxDeviceGLES17SetComputeUniformE12ObjectHandleI18ComputeProgram_TagPvER18ComputeShaderParamjPKv
HAd:__ZN6il2cpp6icalls8mscorlib6System2IO6MonoIO5CloseE12Il2CppIntPtrPi
H0j:_emscripten_glValidateProgram__wrapper
l0f:_SmallXmlParser_ReadComment_m1117342068
Se:_emscripten_glUniform3fv
_Bb:__ZN20ArchiveStorageHeader41GetSizeRequiredToParseHeaderAndBlocksInfoERKNS_6HeaderE
Peb:__Z39GetDefaultApplicationIdentifierForCachev
jhc:__Z35MonoBehaviour_CUSTOM_StartCoroutineP12Il2CppObjectP12Il2CppStringS0_
gga:__ZN9ShaderLab7Program14RemoveVariantsERK13dynamic_arrayI16ShaderKeywordSetLj4EE
yzd:__ZN6il2cpp2vm9Exception20GetArgumentExceptionEPKcS3_
pTe:_Array_InternalArray__ICollection_Contains_TisContactPoint2D_t3659330976_m474619266_gshared
dwc:__Z29Transfer_Blittable_ArrayFieldI8JSONReadiEvRT_R9ArrayInfoRK23StaticTransferFieldInfo
iSi:__Z114RuntimeInvoker_Boolean_t3825574718_Il2CppObject_Il2CppObject_Single_t2076509932_SByte_t454417549_Int32_t2071877448PK10MethodInfoPvPS2_
R_j:_glDrawArrays__wrapper
jO:__ZN9AudioClip27IsFormatSupportedByPlatformERKN4core12basic_stringIcNS0_20StringStorageDefaultIcEEEE
qUb:__ZN9ShaderLab26SerializedShaderDependency8TransferI24GenerateTypeTreeTransferEEvRT_
uRc:_UNITY_FT_Match_Size
LGe:_ColorBlock_Equals_m738243050
Qv:__ZN7mecanim20CreateValueArrayMaskEPKNS_18ValueArrayConstantERNS_6memory9AllocatorE
MQj:_free
Hjg:_NameObjectCollectionBase_GetEnumerator_m646294968
F5c:__ZN11UnityEngine7Connect14AppUpdateEventC2Ev
f5a:__ZNK10GameObject26GetTypeInfoVirtualInternalEv
ujb:__ZN12ImageFilters17RemoveImageFilterERK11ImageFilter
nfd:__ZN15dense_hashtableINSt3__24pairIK10KeyWrapperI13dynamic_arrayIPK10Il2CppTypeLj4EEEPFvvEEES8_N6il2cpp8metadata19Il2CppSignatureHashEN14dense_hash_mapIS8_SB_SF_NS8_14EqualsComparerINSE_22Il2CppSignatureCompareEEENS0_9allocatorISC_EEE9SelectKeyESJ_SL_E4findERS9_
jJa:__Z32AddPathRemapsForBuiltinResourcesRKN4core12basic_stringIcNS_20StringStorageDefaultIcEEEE
DRh:_IL2CPPStructAlignmentAttribute__ctor_m2555798229
Gvj:_TextGenerator_GetCharacters_m2554471692
fBb:__ZN3WWW6CreateEPKcS1_iRKNSt3__23mapIN4core12basic_stringIcNS4_20StringStorageDefaultIcEEEES8_NS2_4lessIS8_EENS2_9allocatorINS2_4pairIKS8_S8_EEEEEEb7Hash128j
Vlb:__ZN14RenderSettings23VirtualRedirectTransferER24GenerateTypeTreeTransfer
g$:__ZZN15DirectorManager15InitializeClassEvEN39PostLateUpdateDirectorRenderImagestruct7ForwardEv
_Ib:__ZL26Transfer_SimpleNativeClassI17RemapPPtrTransfer17AnimationCurveTplIfELb0EEvRK29SerializationCommandArgumentsR31RuntimeSerializationCommandInfo
Eqj:_KeyUsageExtension_Decode_m4115739726
sm:_glDeleteTransformFeedbacks
xf:_JS_WebRequest_Send
kMd:__ZN6il2cpp2os4Time31GetTicks100NanosecondsMonotonicEv
RCa:__ZL23ProgramUniformMatrix3fvPK7ApiGLESjiihPKv
Lje:_Stack_Clear_m771767447
IKf:_Int64_System_IConvertible_ToUInt16_m2638682734
BDg:__ZL102ChannelServices_t2007814595_CustomAttributesCacheGenerator_ChannelServices_RegisterChannel_m3832858065P21CustomAttributesCache
oZj:_emscripten_glGenRenderbuffers__wrapper
ORj:__ZNK10__cxxabiv117__class_type_info24process_found_base_classEPNS_19__dynamic_cast_infoEPvi
YAj:_Nullable_1_Equals_m1889119397_AdjustorThunk
TPh:_GUIStyle_Draw_m3134455812
iid:__ZN6il2cpp2vm13MetadataCache21GetFieldInfoFromIndexEj
WTi:__Z98RuntimeInvoker_Void_t1841601450_Int32_t2071877448_Int32_t2071877448_Int32_t2071877448_Il2CppObjectPK10MethodInfoPvPS2_
Ici:_Raycast2DCallback_BeginInvoke_m4219004388
rGi:__Z57RuntimeInvoker_Il2CppObject_Int64_t909078037_Il2CppObjectPK10MethodInfoPvPS2_
kQa:_UNITY_png_write_PLTE
Dfh:_BaseFixupRecord_DoFixup_m1821597450
IP:__ZN5physx14PxLightCpuTaskD2Ev
Dq:__ZNSt3__26vectorIN4core12basic_stringIcNS1_20StringStorageDefaultIcEEEENS_9allocatorIS5_EEE6assignINS_11__wrap_iterIPS5_EEEENS_9enable_ifIXaasr21__is_forward_iteratorIT_EE5valuesr16is_constructibleIS5_NS_15iterator_traitsISE_E9referenceEEE5valueEvE4typeESE_SE_
s2i:_AudioSettings_InvokeOnAudioConfigurationChanged_m3225073778
nld:_il2cpp_init
m_c:__ZNSt3__26__treeIPN2UI14CanvasRendererENS_4lessIS3_EENS_9allocatorIS3_EEE7destroyEPNS_11__tree_nodeIS3_PvEE
yxc:__Z20b2TestSegmentSegmentRK6b2Vec2S1_S1_S1_RS_Rf
UHc:__ZN10ClipperLib13CleanPolygonsERNSt3__26vectorINS1_INS_8IntPointENS0_9allocatorIS2_EEEENS3_IS5_EEEEd
K3:__ZNK15dense_hashtableINSt3__24pairIKPKcPK4RTTIEES3_N11TypeManager23ConstCharPtrHashFunctorEN14dense_hash_mapIS3_S7_SA_NS9_19ConstCharPtrEqualToE13stl_allocatorIS8_L18MemLabelIdentifier6ELi16EEE9SelectKeyESC_SF_E23find_position_with_hashERS4_j
Lfc:__Z35Register_UnityEngine_Screen_get_dpiv
XTh:_Mesh_get_normals_m1837187359
Iuc:__ZN8JSONRead8TransferIxEEvRT_PKc17TransferMetaFlagsb
t0:__ZN13SpeedTreeWind7AdvanceEbd
mza:__ZN18GlslGpuProgramGLES19ApplyGpuProgramGLESERK20GpuProgramParametersPKh
Ybc:__ZN9Transform16SetLocalPositionERK8Vector3f
PMe:_LayoutGroup_GetTotalMinSize_m2600700952
yPb:__Z15Transfer_StringI18StreamedBinaryReadILb0EELb0EEvRK29SerializationCommandArgumentsR31RuntimeSerializationCommandInfo
qK:__ZN12SoundManagerC2Ev
_Qc:_UNITY_tt_face_free_name
a2j:_emscripten_glSampleCoverage__wrapper
k2e:_Array_Sort_TisUICharInfo_t3056636800_m37864585_gshared
F9i:_AnimationOffsetPlayable_get_position_m1047192220
x$j:_emscripten_glGetUniformfv__wrapper
wDa:__ZN14DataBufferGLES3MapEjjj
Zri:_InternalEnumerator_1_System_Collections_IEnumerator_get_Current_m771161214_gshared
Mo:FUNCTION_TABLE_fidi
fwb:__ZN14SpriteRenderer23VirtualRedirectTransferER19StreamedBinaryWriteILb0EE
S_b:__Z13RegisterClassI9TransformEvv
uTi:__Z132RuntimeInvoker_Il2CppObject_Ray_t2469606224_RaycastHitU26_t1969197280_Single_t2076509932_Int32_t2071877448_Il2CppObject_Il2CppObjectPK10MethodInfoPvPS2_
e4c:__ZN14UnityAnalytics22HandleCustomEventCountEj
fia:__ZN18UnityPropertySheet11UnityTexEnv8TransferI19StreamedBinaryWriteILb0EEEEvRT_
ldj:_ResourceInfo_t3933049236_marshal_pinvoke_back
zPd:_GC_make_descriptor
Grd:__ZNK15dense_hashtableINSt3__24pairIK10KeyWrapperINS1_IPK11Il2CppImageP11Il2CppClassEEEjEES9_17ReflectionMapHashIS8_EN14dense_hash_mapIS9_jSD_NS9_14EqualsComparerINS0_8equal_toIS8_EEEENS0_9allocatorISB_EEE9SelectKeyESI_SK_E5beginEv
wld:_il2cpp_array_new
IYe:_Array_InternalArray__ICollection_Add_TisDictionaryEntry_t3048875398_m279246399_gshared
zfj:_ChannelServices_GetCurrentChannelInfo_m4080942430
HI:__ZN4FMOD3DSP8getInputEiPPS0_PPNS_13DSPConnectionE
g4:__ZN20dynamic_block_vectorI14FileIdentifierE5clearEv
r4f:_Activator_CreateInstance_m4123570586
XPc:_ft_outline_glyph_bbox
rFj:_IndexedSet_1_RemoveAll_m2736534958_gshared
ROc:_UNITY_FT_Done_Library
nlh:_HashAlgorithm__ctor_m3777008390
yji:_VertexHelper__cctor_m1150948588
B0c:__ZN2UI13CanvasManager17EmitDataForCameraEP6Camera
Gyc:__Z16b2CollideCirclesP10b2ManifoldPK13b2CircleShapeRK11b2TransformS3_S6_
oTi:__Z70RuntimeInvoker_Single_t2076509932_Int32_t2071877448_Single_t2076509932PK10MethodInfoPvPS2_
q2i:_PCMSetPositionCallback_BeginInvoke_m2507142524
rZe:_Array_InternalArray__ICollection_Add_TisContactPoint2D_t3659330976_m1781705858_gshared
Aic:__Z44Register_UnityEngine_Material_GetTextureImplv
SLc:__ZN13sorted_vectorIN20TextRenderingPrivate8FontImpl13CharacterInfoENSt3__24lessIS2_EE13stl_allocatorIS2_L18MemLabelIdentifier34ELi16EEE10insert_oneERKS2_
Zwj:_Transform_INTERNAL_set_localPosition_m432504087
f$j:_glUniform3uiv__wrapper
Caa:__ZL8MainLoopv
fnh:_Binder_ConvertArgs_m2999223281
Nqh:_TypeBuilder_IsDefined_m3186251655
m2c:__Z47Register_UnityEngine_CanvasRenderer_SetMaterialv
jgj:_ConfigHandler_ValidatePath_m3188987489
kxc:__ZN11UnityEngine9Analytics16StartupTimeEvent23SetAssembliesTimingInfoEyy
DCc:__ZN19CompositeCollider2D22QueryCompositeColliderEPK10Collider2DPK11Rigidbody2D
HOc:__Z26CleanupTextRenderingModulev
FVf:_NumberFormatter_get_IntegerDigits_m3972411141
Lvb:__ZThn32_N12MeshRendererD1Ev
Zca:__ZN13RenderTexture23VirtualRedirectTransferER19StreamedBinaryWriteILb0EE
L_h:_ShimEnumerator_MoveNext_m2728191736_gshared
jIh:_UInt64_System_IConvertible_ToInt32_m930227577_AdjustorThunk
sLd:__ZN6il2cpp2vm13ComObjectBase17GetMarshalSizeMaxERK10Il2CppGuidPvjS5_jPj
x2b:__ZN9TransformC2E18MemLabelIdentifier18ObjectCreationMode
KQj:_truncate
aVb:__ZN9ShaderLab27SerializedShaderVectorValue8TransferI18StreamedBinaryReadILb0EEEEvRT_
mqb:__ZN8Renderer21RendererBecameVisibleEv
vAf:_ReadOnlyCollection_1_System_Collections_Generic_ICollectionU3CTU3E_Clear_m2503787861_gshared
eQj:___stpncpy
Lpf:_Collection_1_System_Collections_IList_Add_m669232520_gshared
Hif:_List_1_RemoveAt_m1843849279_gshared
T$:__ZN10MemoryPool16StaticInitializeEPv
o9:__ZN11TypeManager21CleanupGlobalInstanceEv
_Fh:_TypedReference_GetHashCode_m3498861551_AdjustorThunk
B3c:__ZN11UnityEngine9Analytics15UserCustomEvent3AddEPKcRKN4core12basic_stringIcNS4_20StringStorageDefaultIcEEEE
N:Math_atan
za:invoke_iifii
oH:__ZNK10SampleClip11GetResourceEv
cKa:__ZN4core12basic_stringIcNS_20StringStorageDefaultIcEEE6resizeEj
Hoi:_InternalEnumerator_1_System_Collections_IEnumerator_get_Current_m127456009_gshared
xnc:__Z43Register_UnityEngine_Event_set_displayIndexv
lui:_InternalEnumerator_1_System_Collections_IEnumerator_get_Current_m2821735692_AdjustorThunk
bKc:__GLOBAL__sub_I_CmEventProfiler_cpp
L6f:_PrimalityTests_GetSPPRounds_m873706010
eCf:_ReadOnlyCollection_1_System_Collections_Generic_IListU3CTU3E_Insert_m584948331_gshared
j0h:_Enumerator_Dispose_m1323464986_AdjustorThunk
Phb:__ZN17GlobalGameManager23VirtualRedirectTransferER24GenerateTypeTreeTransfer
zPf:_MemoryStream_ToArray_m547789004
z7c:__ZN19UnityConnectServiceD0Ev
MOf:_MonoIO_SetLength_m1019790894
cJh:_UIntPtr_ToString_m387842486
Ojb:__ZNSt3__26vectorIfNS_9allocatorIfEEE8__appendEjRKf
o6c:__ZN11UnityEngine15PlatformWrapper21GetCopyTextureSupportEv
QKe:_Graphic_get_depth_m3526566553
_O:__ZN11AudioModule27IsFormatSupportedByPlatformEPKc
nge:_CollectionBase_get_InnerList_m44314156
Ove:_Enum_System_IConvertible_ToUInt32_m3575456858
Y6g:__ZL61Image_t2042527209_CustomAttributesCacheGenerator_m_FillAmountP21CustomAttributesCache
ZLh:_WindowFunction_BeginInvoke_m322627481
lib:__ZNSt3__26vectorI17SortingLayerEntryNS_9allocatorIS1_EEE6assignINS_11__wrap_iterIPS1_EEEENS_9enable_ifIXaasr21__is_forward_iteratorIT_EE5valuesr16is_constructibleIS1_NS_15iterator_traitsISA_E9referenceEEE5valueEvE4typeESA_SA_
eBc:__Z14b2PairLessThanRK6b2PairS1_
Qcc:__Z48Register_UnityEngine_AsyncOperation_set_priorityv
Yvc:__Z19TransferField_ArrayI8JSONRead16Converter_StringEvRK23StaticTransferFieldInfoR31RuntimeSerializationCommandInfoRT0_
QCc:__ZN15b2WheelJointDef10InitializeEP6b2BodyS1_RK6b2Vec2S4_
Vbb:__ZNK25ThreadsafeLinearAllocator22GetAllocatedMemorySizeEv
KUc:_cff_size_request
Imb:__ZN15DirectorManager14ConnectionPool12SwitchBucketEP14ConnectionList
cFh:_Type_EqualsInternal_m266086934
A_c:__ZN2UI11CompareFuncEPNS_6CanvasES1_
vJ:__ZN4FMOD7Channel11set3DSpreadEf
ISd:__ZN6il2cpp2os6Memory14AlignedReAllocEPvjj
W:Math_fround
jUc:_pshinter_get_t1_funcs
Upa:__ZN24GenerateTypeTreeTransfer16TransferTypelessEPjPKc17TransferMetaFlags
HDh:_TimeSpan_get_TotalMinutes_m1645177229
S1f:_SymmetricTransform_InternalTransformBlock_m55428483
ECa:__ZL18ProgramUniform4uivPK7ApiGLESjiihPKv
aUf:_LongComparer_Compare_m398047722
A7h:_EqualityComparer_1_System_Collections_IEqualityComparer_Equals_m2170611288_gshared
Q8d:_Attribute_CheckParameters_m1754681684
rzh:_UnicodeEncoding_GetByteCount_m2761661599
LYa:__ZN10builtintex21GetAttenuationTextureEv
kn:FUNCTION_TABLE_viiiiiiiiiiiiiii
tgi:_Selectable_TriggerAnimation_m3096883407
eSd:__ZN6il2cpp6icalls8mscorlib6System9Threading5Mutex21ReleaseMutex_internalE12Il2CppIntPtr
I8b:__ZNK4Mesh19CanAccessFromScriptEv
J8:__Z15GetGraphicsCapsv
dya:__ZN7ApiGLES15BindVertexArrayEN2gl6HandleILNS0_10ObjectTypeE3EEE
ay:__ZN17AnimationPlayable17GetAnimationClipsER13dynamic_arrayIP13AnimationClipLj4EE
XIi:__Z153RuntimeInvoker_Int32_t2071877448_Il2CppObject_Int32_t2071877448_Int32_t2071877448_Int32_t2071877448_SByte_t454417549_SByte_t454417549_Int32U26_t455636984PK10MethodInfoPvPS2_
uZa:__Z20IntersectionAABBAABBRK10MinMaxAABBS1_PS_
Usd:__ZN30dense_hashtable_const_iteratorINSt3__24pairIK10KeyWrapperINS1_IPK9EventInfoP11Il2CppClassEEEjEES9_17ReflectionMapHashIS8_EN14dense_hash_mapIS9_jSD_NS9_14EqualsComparerINS0_8equal_toIS8_EEEENS0_9allocatorISB_EEE9SelectKeyESI_SK_EppEv
lEh:_TimeSpan_op_GreaterThan_m2202243191
NZb:__ZN18BackgroundJobQueue29ScheduleMainThreadJobInternalEPFvPvES0_
Sog:_X509Chain_IsSelfIssued_m2009755967
R_c:__ZN2UI11CanvasGroup23VirtualRedirectTransferER24GenerateTypeTreeTransfer
rFb:__Z18Transfer_BlittableI14SafeBinaryReadLb1EhEvRK29SerializationCommandArgumentsR31RuntimeSerializationCommandInfo
dqe:_DateTime_GetTimeMonotonic_m4135038456
Yyh:_StringBuilder_Append_m3636508479
U7f:_MD4_Create_m3565183915
hc:invoke_viifff
L1:__Z22DestroyObjectHighLevelP6Objectb
Gzc:__ZNK12b2MouseJoint10GetAnchorBEv
HWa:__Z26BeginRenderQueueExtractionR15RenderNodeQueuePK16RendererCullDataRK13CullingOutputPK12LODDataArray15ExtractionFlagsP18JobBatchDispatcher
Pbj:_AnimatorControllerPlayable_GetParametersArrayInternal_m851504719
RLc:__ZNK13TextRendering4Font10GetTextureEv
BVd:_SymmetricAlgorithm_set_KeySize_m270664177
pj:_emscripten_glVertexAttrib3fv
ebh:__ZL49Shadow_t4269599528_CustomAttributesCacheGeneratorP21CustomAttributesCache
oyd:__ZN6il2cpp6icalls8mscorlib6System9Threading6Thread16SetName_internalEP12Il2CppThreadP12Il2CppString
tj:_glBeginTransformFeedback
sdg:_Context_ClearKeyInfo_m205678623
Kqa:__ZN18JobBatchDispatcherC2E11JobPriorityi
mwb:__ZThn32_N14SpriteRendererD0Ev
RHc:__ZN23ColliderTilingExtension10IsTilingOnEv
qlc:__ZN8GUIStyle14GetBuiltinFontEv
Dwa:__ZN9GfxDevice13EndFrameStatsEv
V1b:__Z7Empty2DP9Texture2DPhiiii
ILf:_IntPtr_ToString_m1500137303_AdjustorThunk
aDe:_RaycasterManager__cctor_m3713028899
Qef:_List_1_CheckCollection_m1228076404_gshared
M4i:_CanvasRenderer_CreateUIVertexStreamInternal_m2886336395
dAj:_SymmetricTransform_ThrowBadPaddingException_m2553969731
TL:__ZL34StaticDestroyAudioCustomFilterRootPv
DSa:__ZN19ComputeShaderKernelD2Ev
nZb:__ZN10systeminfo21GetTemporaryCachePathEv
y2b:__ZZN8Renderer15InitializeClassEvEN28FunctorImpl_138kLayerChanged4CallEPviR11MessageData
usf:_Collection_1_IsValidItem_m2164075061_gshared
Cfe:_SynchronizedArrayListWrapper_Sort_m494386848
jwc:__ZN9rapidjson12PrettyWriterI16TempBufferWriterNS_4UTF8IcEES3_13JSONAllocatorE12PrettyPrefixENS_4TypeE
tdg:_Context_DecodeProtocolCode_m4051353560
IJi:__Z81RuntimeInvoker_Void_t1841601450_Il2CppObject_Double_t4078015681_Int32_t2071877448PK10MethodInfoPvPS2_
PWb:__ZN12ScriptMapper8TransferI14SafeBinaryReadEEvRT_
ldg:_Context_set_ClientWriteKey_m1137238126
nKb:__Z18Transfer_BlittableI24GenerateTypeTreeTransferLb1E10Matrix4x4fEvRK29SerializationCommandArgumentsR31RuntimeSerializationCommandInfo
Snj:_Expression_GetFixedWidth_m2900825908
tD:__Z10SetLocalTR15TransformAccessRKN4math7_float3ERKNS0_7_float4E
hHj:_GenericEqualityComparer_1_Equals_m1663005117_gshared
r5i:_Color_ToString_m4028093047_AdjustorThunk
aph:_ILGenerator_Mono_GetCurrentOffset_m3553856682
ctc:__ZN9JSONWrite8TransferI10Matrix4x4fEEvRT_PKc17TransferMetaFlags
Rug:__ZL58Decimal_t724701077_CustomAttributesCacheGenerator_MinValueP21CustomAttributesCache
cWc:_cf2_hintmap_map
h9e:_Enumerator_VerifyState_m3639069574_AdjustorThunk
oDg:__ZL50_Module_t2144668161_CustomAttributesCacheGeneratorP21CustomAttributesCache
PHb:__ZN15SerializeTraitsI5RectTIfEE8TransferI14SafeBinaryReadEEvRS1_RT_
aTh:_Mathf_CeilToInt_m2672598779
Lra:__ZNK14SerializedFile15GetTypeIfExistsEx
mjc:__Z41Register_UnityEngine_Texture_get_wrapModev
DNc:_UNITY_FT_Raccess_Get_DataOffsets
Kqg:_X509Extension_CopyFrom_m2644634650
x5b:__ZN14PlayableOutputC2EjP13PlayableGraph
yqb:__ZThn32_NK8Renderer11GetMaterialEi
lVb:__ZN9ShaderLab20SerializedSubProgram8TransferI19StreamedBinaryWriteILb0EEEEvRT_
l4c:__Z13RegisterClassI21UnityAnalyticsManagerEvv
rHg:__ZL118SecurityManager_t3191249573_CustomAttributesCacheGenerator_SecurityManager_t3191249573____SecurityEnabled_PropertyInfoP21CustomAttributesCache
ucf:_List_1_System_Collections_IList_Insert_m813883425_gshared
oMd:__ZN6il2cpp6icalls8mscorlib6System7Runtime15InteropServices8GCHandle15GetTargetHandleEP12Il2CppObjectii
Qej:_SafeHandle_Dispose_m3871883741
mk:_unsetenv
Sta:__ZN9GfxDevice29GetMinimumNodesPerGraphicsJobEv
xub:__ZN17BlendShapeChannel8TransferI24GenerateTypeTreeTransferEEvRT_
aLh:_GameObject_SendMessage_m71956653
BXh:_Rect_set_yMin_m734445288_AdjustorThunk
gDi:__Z131RuntimeInvoker_Void_t1841601450_Int32_t2071877448_Il2CppObject_Il2CppObject_Il2CppObject_Il2CppObject_Il2CppObject_SByte_t454417549PK10MethodInfoPvPS2_
C$:__ZN15DirectorManager17OnSampleFixedTimeEv
xCd:__ZNK10KeyWrapperIP18Il2CppGenericClassE14EqualsComparerIN6il2cpp8metadata25Il2CppGenericClassCompareEEclERKS2_S9_
Rkd:__ZN6il2cpp6icalls8mscorlib6SystemL8IsPublicEPK12PropertyInfo
NMd:_GC_is_black_listed
hPe:_InputField_set_caretSelectPositionInternal_m2063243072
RKb:__ZN24GenerateTypeTreeTransfer32TransferSTLStyleArrayWithElementI23ManagedObjectTransfererEEvRT_17TransferMetaFlags
pti:_InternalEnumerator_1_System_Collections_IEnumerator_get_Current_m3043347404_AdjustorThunk
EOf:_WriteDelegate_BeginInvoke_m2985235908
qre:_DateTimeOffset_get_Offset_m2335492074_AdjustorThunk
qaj:_AnimatorControllerPlayable_INTERNAL_CALL_SetBoolID_m2987425503
ZXh:_RectOffset_Cleanup_m3198970074
dpc:__Z42Register_UnityEngine_GUIStyle_set_wordWrapv
WOc:_UNITY_FT_Destroy_Class_tt_driver_class
oFi:__Z56RuntimeInvoker_Il2CppObject_StreamingContext_t1417235061PK10MethodInfoPvPS2_
rJf:_Int32_System_IConvertible_ToChar_m719315943_AdjustorThunk
USd:__ZN6il2cpp6icalls8mscorlib6System7Runtime8Remoting16RemotingServices16GetVirtualMethodEP20Il2CppReflectionTypeP22Il2CppReflectionMethod
kkj:_Match__ctor_m478172746
edc:__Z42Register_UnityEngine_Behaviour_get_enabledv
WSf:_Math_Pow_m3099781906
MPh:_GUIStyle_set_font_m312124587
und:__ZN6il2cpp2vm14TypeNameParser23ParseNestedTypeOptionalERi
HUf:_MonoType_ReorderParamArrayArguments_m979187413
E5f:_BigInteger_ToString_m1842353154
sSd:__ZN6il2cpp2os13FastMutexImplC2Ev
g5c:__ZN22BaseUnityConnectClient14QueueCoreEventERN11UnityEngine15CloudWebService17CloudServiceEventEb
Gmi:_InternalEnumerator_1_get_Current_m2882946014_gshared
DAb:__ZN30RuntimeInitializeOnLoadManager9ClassInfo8TransferI14SafeBinaryReadEEvRT_
tej:_GCHandle_Equals_m170815541_AdjustorThunk
UZa:__ZL13RenderCastersiRK8Vector3fS1_RK13ShadowJobDataR17ShaderPassContextRKNSt3__26vectorI16ShadowCasterData13stl_allocatorIS9_L18MemLabelIdentifier2ELi16EEEERKNS8_I20ShadowCasterPartDataSA_ISG_LSB_2ELi16EEEERK15RenderNodeQueuebPKj
ll:_emscripten_glGetShaderInfoLog
god:__ZNSt3__26vectorIiNS_9allocatorIiEEE8allocateEj
kIg:__ZL100CompressedStack_t1568001503_CustomAttributesCacheGenerator_CompressedStack_GetObjectData_m2387204186P21CustomAttributesCache
oWd:_RIPEMD160Managed_Compress_m3844168032
Cre:_DBNull_System_IConvertible_ToInt32_m3596596664
eJf:_Int16_ToString_m1247017262_AdjustorThunk
gYh:_RectTransform_get_anchorMax_m3816015142
CRc:_UNITY_ft_glyphslot_set_bitmap
yCc:__ZN14b2PolygonShape3SetEPK6b2Vec2i
I2:__ZN24GenerateTypeTreeTransfer18SetScriptingObjectE18ScriptingObjectPtri
tYh:_RectTransform_INTERNAL_get_pivot_m3003734630
IJf:_Int32_System_IConvertible_ToType_m573330549_AdjustorThunk
Onh:_CustomAttributeTypedArgument_Equals_m1555989603
Oib:__Z29FindReflectionProbeFromAnchorP9TransformRK4AABBRS1_RsS5_
htg:_Interval_Merge_m1170166798
Otb:__ZN14SafeBinaryRead21TransferSTLStyleArrayI13dynamic_arrayI13BoneInfluenceLj16EEEEvRT_17TransferMetaFlags
_Xc:_Read_CVT_Stretched
Gkd:__ZN6il2cpp6icalls8mscorlib6System18CollectTypeMethodsINS_5utils10functional10TrueFilterEEEvP11Il2CppClassPKS7_jRKT_RNSt3__26vectorIPK10MethodInfoNSE_9allocatorISI_EEEERA65535_b
Maa:__Z14SetPlayerPause11PlayerPauseb
Tyj:_Vector3_op_Equality_m305888255
RJe:_FontData_get_defaultFontData_m3296571046
BPe:_InputField_InPlaceEditing_m1040314765
j_:__Z30scripting_stack_trace_info_for21ScriptingExceptionPtrR14StackTraceInfo
FVj:_glCompressedTexSubImage3D__wrapper
LDh:_TimeSpan_Add_m3228293154_AdjustorThunk
esd:__ZN15dense_hashtableINSt3__24pairIK10KeyWrapperINS1_IPK12PropertyInfoP11Il2CppClassEEEjEES9_17ReflectionMapHashIS8_EN14dense_hash_mapIS9_jSD_NS9_14EqualsComparerINS0_8equal_toIS8_EEEENS0_9allocatorISB_EEE9SelectKeyESI_SK_EC2ERKSN_j
QI:__ZN15AudioReverbZone7CleanupEv
zGa:__ZN10BufferGLESD0Ev
dti:_InternalEnumerator_1_System_Collections_IEnumerator_get_Current_m790514740_gshared
J$d:__Z9NullCheckPv
U7c:__ZN22UnityAnalyticsSettings8TransferI14SafeBinaryReadEEvRT_
cyc:__ZNK14b2PolygonShape9TestPointERK11b2TransformRK6b2Vec2
eEb:__ZN9Scripting35ErrorMessageForUnsupportedEnumFieldE17ScriptingFieldPtr
kWc:_cf2_hintmask_isNew
mQa:_UNITY_png_write_bKGD
V3b:__ZN13ProduceHelperI10FlareLayerLb0EE7ProduceE18MemLabelIdentifier18ObjectCreationMode
Ila:__ZN6prcoreL26RemapGenericIntegerToFloatI17TexFormatARGB888818TexFormatARGBFloatEEvPKNS_9InnerInfoE
KOa:__ZN15TextureSettings14GetAnisoLimitsERiS0_
nIj:__ZL24UnresolvedVirtualCall_10P12Il2CppObjectPK10MethodInfo
s_j:_emscripten_glCompressedTexSubImage2D__wrapper
Nkh:_DSA_FromXmlString_m2141326025
vQh:_GUIStyle_CalcSizeWithConstraints_m4117833199
jxj:_Transform_INTERNAL_set_localScale_m3680777866
RGc:__ZN16b2ContactManager7CollideEv
ijd:__ZN6il2cpp2vmL29SocketPollingThreadEntryPointEPv
eqe:_DateTime_GetNow_m1004310079
Bub:__ZN10Matrix4x4f8TransferI18StreamedBinaryReadILb0EEEEvRT_
hig:_SslStreamBase_get_Length_m763159069
_Cf:_Comparison_1_Invoke_m4190993814_gshared
DM:__ZN4FMOD7Channel19getReverbPropertiesEP29FMOD_REVERB_CHANNELPROPERTIES
$te:_StackFrame_GetSecureFileName_m389986943
Rfh:_FormatterConverter_ToInt16_m2774942580
UFe:_CanvasScaler_HandleConstantPixelSize_m229625308
ZFe:_CanvasUpdateRegistry_PerformUpdate_m2200492017
$Gi:__Z88RuntimeInvoker_Boolean_t3825574718_Int16_t4041245914_Int16_t4041245914_Int32_t2071877448PK10MethodInfoPvPS2_
hGh:_UInt16_System_IConvertible_ToByte_m806893944_AdjustorThunk
Pzh:_UTF32Encoding_GetCharCount_m3319809517
vac:__Z12CancelInvokeR13MonoBehaviourR11ICallString
ALh:_GUILayout_Height_m607115982
wkd:__ZN6il2cpp6icalls8mscorlib6System8MonoType13GetInterfacesEP20Il2CppReflectionType
nhb:__ZN5Cache32GetCachingDiskSpaceFreeAndUsableEv
o5f:_BigInteger__ctor_m2991182310
sAb:__ZN14SafeBinaryRead21TransferSTLStyleArrayINSt3__26vectorIi13stl_allocatorIiL18MemLabelIdentifier12ELi16EEEEEEvRT_17TransferMetaFlags
L6e:_KeyValuePair_2_ToString_m2613351884_AdjustorThunk
p8e:_Enumerator_System_Collections_IEnumerator_get_Current_m3461301268_AdjustorThunk
Waj:_AnimatorControllerPlayable_get_layerCount_m3541790599
eId:__ZN6il2cpp2os6Thread22SetNativeThreadCleanupEPFvPvE
tcc:__Z35Application_Get_Custom_PropPlatformv
Bld:_il2cpp_class_from_system_type
nS:__ZN11UnityEngine15CloudWebService13WWWRestClient6IsDoneEv
DPa:_unity_z_crc32
Hka:__ZN6prcoreL17RemapGenericFloatI18TexFormatRGBAFloat16TexFormatRGFloatEEvPKNS_9InnerInfoE
eXf:_MSCompatUnicodeTable_FillCJKCore_m1100372933
Xjd:__ZN6il2cpp6icalls8mscorlib6System8MonoType8get_NameEP20Il2CppReflectionType
iHb:__ZNSt3__26vectorI10RectOffset13stl_allocatorIS1_L18MemLabelIdentifier1ELi16EEE8__appendEj
zle:_DateTime_op_Inequality_m1607380213
fx:__ZN21AnimationClipPlayable22PrepareAnimationEventsEfR13dynamic_arrayI22AnimationClipEventInfoLj4EE
K2b:__ZN9ShaderLab33GenerateFastPropertyName28BitHashEPKc
bTe:_Array_InternalArray__ICollection_Contains_TisResourceCacheItem_t333236149_m1769941464_gshared
u6i:_ContextMenu__ctor_m3931483141
_o:FUNCTION_TABLE_ff
ap:FUNCTION_TABLE_fi
Pye:_BaseEventData_set_selectedObject_m2198139983
Fw:__ZNSt3__227__insertion_sort_incompleteIRN11UnityEngine9Animation11BindingSortEPNS_4pairINS2_14GenericBindingEPNS2_10BoundIndexEEEEEbT0_SB_T_
vTd:__ZN6il2cpp2vm16GenericContainer19GetGenericParameterEPK22Il2CppGenericContainert
sce:_Char_System_IConvertible_ToSingle_m2547558725_AdjustorThunk
JMh:_GUILayoutEntry_ApplyOptions_m115321759
bAb:__ZN18StreamedBinaryReadILb0EE21TransferSTLStyleArrayINSt3__26vectorIN15ResourceManager10DependencyE13stl_allocatorIS5_L18MemLabelIdentifier51ELi16EEEEEEvRT_17TransferMetaFlags
zd:_emscripten_glGetAttribLocation
d4:__ZNSt3__26vectorINS_4pairIiiEE13stl_allocatorIS2_L18MemLabelIdentifier37ELi16EEE6insertENS_11__wrap_iterIPKS2_EERS8_
kL:__ZN4FMOD12ChannelGroup14getParentGroupEPPS0_
xgg:_SslClientStream_add_ServerCertValidation_m684653638
Dd:_emscripten_set_blur_callback
Fvj:_TextGenerator_Invalidate_m3217235344
QWj:___cxa_pure_virtual__wrapper
YBa:__ZNK14ImageReference9ClipImageEiiii
H_a:__ZN10Matrix4x4f30SetPositionAndOrthoNormalBasisERK8Vector3fS2_S2_S2_
ijb:__ZN5RectTIfE8TransferI24GenerateTypeTreeTransferEEvRT_
rHd:__ZN6il2cpp6icalls8mscorlib6System4Enum8ToObjectEP20Il2CppReflectionTypeP12Il2CppObject
CWf:_TableRange__ctor_m1944319286_AdjustorThunk
pUa:__ZN12FlareManager6UpdateEv
nXj:_glColorMask__wrapper
fDg:__ZL59_ConstructorInfo_t3269099341_CustomAttributesCacheGeneratorP21CustomAttributesCache
f3h:_Dictionary_2_ContainsKey_m1385349577_gshared
T2f:_X509CertificateEnumerator_MoveNext_m1031936092
Dka:__ZN6prcoreL17RemapGenericFloatI17TexFormatRGBFloat14TexFormatRHalfEEvPKNS_9InnerInfoE
Sra:__ZN13LoadOperation7PerformEv
Mbg:_TlsStream__ctor_m2982031560
nng:_X509EnhancedKeyUsageExtension__ctor_m4050164330
Bqj:_GeneralNames_get_IPAddresses_m1712556836
dPb:__ZN18StreamedBinaryReadILb1EE8TransferI8Vector3fEEvRT_PKc17TransferMetaFlags
Vri:_InternalEnumerator_1_get_Current_m2198364332_AdjustorThunk
_ma:__ZN27GenericSlowGarbageCollector16ProcessReferenceEi
heh:_RealProxy_InternalGetProxyType_m858618403
Rwe:_FieldAccessException__ctor_m1240495912
$pj:_Uri_HexUnescapeMultiByte_m25670899
MFe:_CanvasScaler_set_dynamicPixelsPerUnit_m742632820
zPj:_fopen
mOc:__ZN20TextRenderingPrivate8FontImplD2Ev
VT:__ZN19CloudServiceHandler8SaveFileERKN4core12basic_stringIcNS0_20StringStorageDefaultIcEEEEPKvj
xzd:__ZN6il2cpp2vm9Exception5RaiseEib
Iqg:_X509EnhancedKeyUsageExtension_CopyFrom_m1426370958
Tqc:__ZN9rapidjson13GenericReaderINS_4UTF8IcEES2_13JSONAllocatorE10ParseValueILj1ENS_25GenericInsituStringStreamIS2_EENS_15GenericDocumentIS2_S3_S3_EEEEvRT0_RT1_
hYj:_glFramebufferTexture2D__wrapper
yTd:__ZN6il2cpp6icalls8mscorlib6System7Runtime8Remoting7Proxies9RealProxy27InternalGetTransparentProxyEP12Il2CppObjectP12Il2CppString
pif:_List_1_AddEnumerable_m1000825969_gshared
JId:__ZN6il2cpp2vm6Method10IsInflatedEPK10MethodInfo
kNd:_GC_remove_header
eGd:__ZN6il2cpp2vm6Object6IsInstEP12Il2CppObjectP11Il2CppClass
kib:__ZNSt3__26vectorI17SortingLayerEntryNS_9allocatorIS1_EEE7reserveEj
Icg:_Context_set_MasterSecret_m1422386411
CMb:__Z19TransferField_ArrayI19StreamedBinaryWriteILb0EE27Converter_UnityEngineObjectEvRK23StaticTransferFieldInfoR31RuntimeSerializationCommandInfoRT0_
PDc:__ZN10ClipperLib7Clipper15AddLocalMinPolyEPNS_5TEdgeES2_RKNS_8IntPointE
e9f:_RSAManaged_ToXmlString_m2606223477
hmj:_CharacterClass__ctor_m1318163925
Xmh:_AssemblyName_GetObjectData_m1221677827
IRa:__ZN8Renderer27EnsureTransformInfoUpToDateEv
O9:__ZN15dense_hashtableINSt3__24pairIKN4core12basic_stringIcNS2_20StringStorageDefaultIcEEEEP11AssetBundleEES6_20StringHash32FunctionIS6_EN14dense_hash_mapIS6_S9_SC_NS0_8equal_toIS6_EENS0_9allocatorISA_EEE9SelectKeyESF_SH_E9copy_fromERKSK_j
T0j:_emscripten_glFrontFace__wrapper
j7i:_Display_GetRenderingExtImpl_m3739199112
Na:invoke_fiffi
WRd:__ZN6il2cpp5utils6Memory6CallocEjj
x4:__ZN14SerializedFile14SerializedType8ReadTypeILb1EEEbibRPKhS3_Pi
YIi:__Z126RuntimeInvoker_Int32_t2071877448_Il2CppObject_Int32_t2071877448_Il2CppObject_Il2CppObject_SByte_t454417549_Int32U26_t455636984PK10MethodInfoPvPS2_
cYj:_emscripten_glRenderbufferStorage__wrapper
wmb:__ZN8Playable7SetTimeEd
b1:__ZN13RuntimeStaticI12GraphicsCapsLb0EE16StaticInitializeEPv
ipa:__ZN9Texture3D17UploadToGfxDeviceEv
Ytc:__Z18Transfer_BlittableI8JSONReadLb1E8Vector4fEvRK29SerializationCommandArgumentsR31RuntimeSerializationCommandInfo
aSc:_tt_cmap2_validate
ofg:_HttpsClientStream_U3CHttpsClientStreamU3Em__1_m4293802471
VWc:_cff_cmap_unicode_done
qFf:_NumberFormatter_Init_m1515770916
xoj:_Literal_Compile_m3864266818
ncb:__ZN9Scripting20SendScriptingMessageER10GameObjectPKc18ScriptingObjectPtr
Iaa:__Z26IsSplashScreenFadeCompletev
dvb:__Z17SendMessageDirectR6ObjectRK17MessageIdentifierR11MessageData
Yc:_glGenSamplers
DPe:_InputField_LateUpdate_m1045279070
Gdc:__Z42Register_UnityEngine_Camera_get_clearFlagsv
ykd:__ZNSt3__26__treeIP11Il2CppClassNS_4lessIS2_EENS_9allocatorIS2_EEED2Ev
BNh:_GUIScrollGroup_SetVertical_m3540700730
Tyh:_StringBuilder_set_Chars_m1019094834
b7a:__ZN13RenderManager27UpdatePreviousFrameMatricesEv
h0a:__ZN6Camera10CustomCullERK23CameraCullingParametersR11CullResults
ube:_Byte_System_IConvertible_ToUInt64_m2667486567
l6:__Z22SetManagerPtrInContextiP6Object
Fbj:_AnimatorControllerPlayable_GetNextAnimatorClipInfo_m962214430
mzb:__ZN14PlayerSettings8TransferI19StreamedBinaryWriteILb0EEEEvRT_
Ntc:__Z18Transfer_BlittableI8JSONReadLb0E10ColorRGBAfEvRK29SerializationCommandArgumentsR31RuntimeSerializationCommandInfo
_sf:_Collection_1_Remove_m2017992820_gshared
W_e:_Array_InternalArray__Insert_TisInt16_t4041245914_m371511339_gshared
soh:_ConstructorBuilder_get_next_table_index_m932085784
I1h:_ValueCollection_System_Collections_ICollection_get_SyncRoot_m919209341_gshared
yLi:__Z83RuntimeInvoker_Void_t1841601450_UInt16_t986882611_SByte_t454417549_SByte_t454417549PK10MethodInfoPvPS2_
qhi:_Slider_UpdateDrag_m1963963631
mjh:_SByte_Equals_m755715567
EZ:__ZN15DirectorManagerD2Ev
Yqd:__ZN15dense_hashtableINSt3__24pairIK10KeyWrapperINS1_IPK10MethodInfoP11Il2CppClassEEEjEES9_17ReflectionMapHashIS8_EN14dense_hash_mapIS9_jSD_NS9_14EqualsComparerINS0_8equal_toIS8_EEEENS0_9allocatorISB_EEE9SelectKeyESI_SK_E9copy_fromERKSN_j
_0b:__ZNK30SpriteRendererAnimationBinding15GenerateBindingERKN4core12basic_stringIcNS0_20StringStorageDefaultIcEEEEbRN11UnityEngine9Animation14GenericBindingE
gCd:__ZN6il2cpp6icalls8mscorlib6System13Globalization11CultureInfo45construct_internal_locale_from_current_localeEP17Il2CppCultureInfo
t7g:__ZL70InputField_t1631627530_CustomAttributesCacheGenerator_m_CaretBlinkRateP21CustomAttributesCache
eXe:_Array_IndexOf_TisCustomAttributeNamedArgument_t94157543_m2205974312_gshared
hXe:_Array_IndexOf_TisAnimatorClipInfo_t3905751349_m4033344779_gshared
CFa:__ZN15TextureTFMethod16BindForRenderingEj
wTe:_Array_InternalArray__ICollection_Contains_TisUICharInfo_t3056636800_m2001435744_gshared
v5h:_DefaultComparer_GetHashCode_m3250641461_gshared
Erg:_Key_ToString_m1129871742
m8d:_Array_Sort_m1417611156
QEd:__ZN15dense_hashtableINSt3__24pairIK10KeyWrapperINS1_IPKcS4_EEEiEES6_24NamespaceAndNamePairHashN14dense_hash_mapIS6_iS9_NS6_14EqualsComparerI26NamespaceAndNamePairEqualsEENS0_9allocatorIS8_EEE9SelectKeyESD_SF_E4findERS7_
Hpj:_Uri_Merge_m2181117222
e$i:_UnityAnalyticsHandler__ctor_m113083880
NLc:__ZN20TextRenderingPrivate8FontImpl13CharacterInfo8TransferI19StreamedBinaryWriteILb0EEEEvRT_
ZJi:__Z74RuntimeInvoker_Int32_t2071877448_TimeSpan_t3430258949_TimeSpan_t3430258949PK10MethodInfoPvPS2_
mid:__ZN6il2cpp2os19SocketHandleWrapper7ReleaseEv
iIe:_DefaultControls_CreateRawImage_m2572997170
EDh:_TimeSpan_get_TotalDays_m3496775483_AdjustorThunk
OO:__ZZL31InitializeAudioManagerCallbacksvEN31PostLateUpdateUpdateAudiostruct7ForwardEv
tyb:__ZNSt3__27__sort4IRNS_6__lessINS_4pairIPKN5Unity4TypeE7Hash128EES8_EEPS8_EEjT0_SC_SC_SC_T_
nCh:_Thread_Start_m1419497481
bTj:dynCall_fff
l4e:_Array_InternalArray__get_Item_TisDictionaryEntry_t3048875398_m2371191320_gshared
w6g:__ZL62FontData_t2614388407_CustomAttributesCacheGenerator_m_RichTextP21CustomAttributesCache
G9i:_AnimationOffsetPlayable_GetPosition_m58420556
pPb:__ZN18StreamedBinaryReadILb1EE21TransferSTLStyleArrayI13dynamic_arrayIhLj1EEEEvRT_17TransferMetaFlags
Uli:_InternalEnumerator_1_get_Current_m2351441486_gshared
_mc:__ZN11IMGUIModule21QueryGUIDisplayTargetE17ScriptingClassPtr
occ:__ZN11UTF16StringC2ERKS_18MemLabelIdentifier
bOh:_GUISkin_set_textField_m1154803040
bfd:__ZNSt3__27__sort4IRN6il2cpp5utils11collections13ArrayValueMapIPK10Il2CppType17Il2CppInteropData26InteropDataToTypeConverterNS1_8metadata14Il2CppTypeLessENSA_26Il2CppTypeEqualityComparerEE12SortComparerEPS8_EEjT0_SH_SH_SH_T_
dTj:dynCall_vidi
uMh:_GUIStyle_GetRectOffsetPtr_m4223228888
$yf:_ReadOnlyCollection_1_System_Collections_IList_Remove_m2350545199_gshared
LRh:_Input_get_mouseScrollDelta_m3430638853
PSj:___udivdi3
dZb:__ZN11PlayerPrefs9SetStringERKN4core12basic_stringIcNS0_20StringStorageDefaultIcEEEES6_
oQd:__ZN6il2cpp6icalls8mscorlib6System8Delegate18SetMulticastInvokeEP14Il2CppDelegate
syc:__ZL18b2FindIncidentEdgeP12b2ClipVertexPK14b2PolygonShapeRK11b2TransformiS3_S6_
BRe:_LayoutGroup_get_minHeight_m2270010946
yya:__ZN4gles16CreateBlendStateER15DeviceStateGLESRK13GfxBlendState
t7f:_ARC4Managed_GenerateIV_m2815460576
l0d:_String_Substring_m2032624251
q3b:__ZN8Material12CleanupClassEv
$pe:_DateTime_get_DayOfWeek_m2345429939_AdjustorThunk
jFh:_Type_GetTypeCode_m1044483454
xdj:_ResourceSet_GetObjectInternal_m3556256510
DJb:__Z22TransferField_NonArrayI17RemapPPtrTransfer27Converter_SimpleNativeClassI10RectOffsetEEvRK23StaticTransferFieldInfoR31RuntimeSerializationCommandInfoRT0_
Ble:_DateTimeOffset__ctor_m2870721395
FM:__ZN20SoundChannelInstance11set3DSpreadEf
sw:__ZNSt3__26__sortIRN11UnityEngine9Animation11BindingSortEPNS_4pairINS2_14GenericBindingEPNS2_10BoundIndexEEEEEvT0_SB_T_
f3d:_String_ReplaceFallback_m64616664
Awh:_MonoMethod_GetCustomAttributes_m2493833930
ezb:__ZN24GenerateTypeTreeTransfer32TransferSTLStyleArrayWithElementI16SplashScreenLogoEEvRT_17TransferMetaFlags
zpd:__ZN15dense_hashtableINSt3__24pairIK10KeyWrapperINS1_IPK9FieldInfoP11Il2CppClassEEEjEES9_17ReflectionMapHashIS8_EN14dense_hash_mapIS9_jSD_NS9_14EqualsComparerINS0_8equal_toIS8_EEEENS0_9allocatorISB_EEE9SelectKeyESI_SK_E6insertERKSB_
xJf:_Int32_System_IConvertible_ToDouble_m3322226667_AdjustorThunk
DHj:_Enumerator_CheckState_m1761755727_AdjustorThunk
NSj:_memmove
CMd:_GC_log_printf
tDf:_Comparison_1_BeginInvoke_m4224593217_gshared
Hjh:_CodeAccessPermission_ToString_m3345031296
hGd:__ZN6il2cpp2vm6Object5UnboxEP12Il2CppObject
Hkg:_FtpWebRequest__ctor_m3003551676
$cc:__Z52Register_UnityEngine_ScriptableObject_CreateInstancev
Z0f:_EncryptedPrivateKeyInfo__ctor_m832236482
J$:__ZN23DefaultMeshVertexFormatC2E17ShaderChannelMask
QNb:__ZL26Transfer_SimpleNativeClassI18StreamedBinaryReadILb1EE8GradientLb1EEvRK29SerializationCommandArgumentsR31RuntimeSerializationCommandInfo
u1d:_Single_Equals_m3359827399
ZBh:_Thread_FreeLocalSlotValues_m2948667652
R7a:__ZNSt3__26vectorINS_4pairIN4core12basic_stringIcNS2_20StringStorageDefaultIcEEEES6_EE13stl_allocatorIS7_L18MemLabelIdentifier37ELi16EEE12__move_rangeEPS7_SC_SC_
P4:__ZN14FileCacherReadC2ERKN4core12basic_stringIcNS0_20StringStorageDefaultIcEEEEjj
Aya:__ZN7ApiGLES10InvalidateERK14GfxContextGLES
_Cj:_InvokableCall_2_Invoke_m1071013389_gshared
G_f:_ASN1Convert_ToOid_m2695991795
jZc:_UNITY_FT_Init_Class_tt_service_truetype_glyf
pSd:__ZN6il2cpp2os5Mutex7TryLockEjb
K$:__Z20IsVectorBuiltinParamPKcPi
tEd:__ZN6il2cpp2vm5Field8GetFlagsEP9FieldInfo
hri:_InternalEnumerator_1_get_Current_m727737343_AdjustorThunk
Oyd:__ZN6il2cpp6icalls8mscorlib6System10ReflectionL16LoadResourceFileEP24Il2CppReflectionAssembly
mY:__Z13IsFileCreatedRKN4core12basic_stringIcNS_20StringStorageDefaultIcEEEE
KMj:_BacteriaController_Update_m1018020021
tRd:__ZN6il2cpp6icalls8mscorlib6System21CurrentSystemTimeZone15GetTimeZoneDataEiPP11Il2CppArrayS6_
Pwb:__ZN8Renderer11SetMaterialE4PPtrI8MaterialEi
eEd:__ZN15dense_hashtableINSt3__24pairIK10KeyWrapperIP12Il2CppObjectEN6il2cpp2gc9CachedCCWEEES5_NS7_5utils11PointerHashIS3_EEN14dense_hash_mapIS5_S9_SD_NS5_14EqualsComparerINS0_8equal_toIS4_EEEENS0_9allocatorISA_EEE9SelectKeyESI_SK_E5eraseE30dense_hashtable_const_iteratorISA_S5_SD_SM_SI_SK_E
smh:_Assembly_UnprotectedGetName_m3014607408
L1d:_String__cctor_m710226597
bSi:__Z90RuntimeInvoker_Void_t1841601450_Il2CppObject_Il2CppObject_Vector2_t2243707579_Il2CppObjectPK10MethodInfoPvPS2_
xvi:_DefaultComparer_Compare_m3953592365_gshared
Duf:_Collection_1_IsValidItem_m404831699_gshared
eEh:_TimeSpan_Negate_m4198463235_AdjustorThunk
Mjb:__ZN12FlareManager9AddCameraER6Camera
tN:__ZN11AudioSource8TransferI14SafeBinaryReadEEvRT_
n8b:__ZN4Mesh17SetIndicesComplexEPKvjj16GfxPrimitiveTypei
Xsf:_Collection_1_Insert_m4010554762_gshared
d1b:__ZNK9Transform22GetPositionAndRotationER8Vector3fR11Quaternionf
Zr:__ZN8Animator16TransformChangedEi
tTh:_Matrix4x4_GetColumn_m1367096730_AdjustorThunk
Nhj:_ContextAttribute_GetHashCode_m3646968314
yXf:_SimpleCollator_GetSortKey_m540875593
CVb:__ZN9ShaderLab9IntShader26CreateFromSerializedShaderERKNS_16SerializedShaderERNSt3__26vectorI4PPtrI6ShaderENS4_9allocatorIS8_EEEEbPS7_
kSa:__ZN19ShaderPropertySheet16SetComputeBufferEN9ShaderLab16FastPropertyNameE15ComputeBufferIDNS_8SetFlagsE
wKd:__ZNK15dense_hashtableINSt3__24pairIK10KeyWrapperIPK19Il2CppGenericMethodEP10MethodInfoEES6_N6il2cpp8metadata23Il2CppGenericMethodHashEN14dense_hash_mapIS6_S9_SD_NS6_14EqualsComparerINSC_26Il2CppGenericMethodCompareEEENS0_9allocatorISA_EEE9SelectKeyESH_SJ_E5beginEv
aCh:_Thread_GetCachedCurrentCulture_m450033007
T1a:__ZL12CullGroupJobP20CullingGroupsJobDataj
INd:_GC_remove_dangling_disappearing_links
GS:__ZN11UnityEngine15CloudWebService14RestDownloader9IsAbortedEv
_z:__ZN7mecanim12statemachine28DestroyStateMachineWorkspaceEPNS0_21StateMachineWorkspaceERNS_6memory9AllocatorE
Pk:_emscripten_glNormalPointer
Eoc:__Z30GUIStyle_CUSTOM_SetDefaultFontP12Il2CppObject
Psg:_Interval_t2354235237_marshal_pinvoke_back
no:FUNCTION_TABLE_f
dp:FUNCTION_TABLE_i
_se:_Decimal_ToString_m541380585_AdjustorThunk
t9:__ZN11TypeManager12RegisterTypeERK20TypeRegistrationDesc
En:FUNCTION_TABLE_v
lub:__ZNSt3__26vectorI17BlendShapeChannelNS_9allocatorIS1_EEE8__appendEj
VMe:_Image_get_preserveAspect_m2161836851
lq:__ZN18StreamedBinaryReadILb0EE21TransferSTLStyleArrayI13dynamic_arrayI8Vector3fLj4EEEEvRT_17TransferMetaFlags
joa:__ZN21LightProbeProxyVolume13GetRenderDataER27LightProbeProxyVolumeSample
Njd:__ZN6il2cpp2vm7Runtime30CallUnhandledExceptionDelegateEP12Il2CppDomainP14Il2CppDelegateP15Il2CppException
IBj:_Predicate_1_Invoke_m577088274_gshared
oeh:_RemotingProxy_get_TypeName_m1400928020
_xb:__ZN11TimeManager8TransferI24GenerateTypeTreeTransferEEvRT_
DXf:_SortKeyBuffer_GetResult_m962852575
kXf:_SimpleCollator_Category_m1504096908
Uq:__ZNK11UnityEngine9Animation28GenericAnimationBindingCache10BindCustomERKNS0_14GenericBindingER9TransformRNS0_10BoundCurveE
Snd:__ZN6il2cpp2vm17TypeNameParseInfoC2ERKS1_
w7c:__ZN18UnityConnectClient17InitConnectClientEv
Tki:_ArrayReadOnlyList_1_ReadOnlyError_m2158247090_gshared
mOj:_memcmp
rqe:_DateTime_CompareTo_m3372173896
UXh:_Rect_ToString_m2728794442
Mma:__ZN9Scripting32GetCachedPtrFromScriptingWrapperE18ScriptingObjectPtr
a0c:__ZN2UI29ScheduleUIJobsForInstructionsERNS_7BatchesEjPKNS_13UIInstructionEfjjPNS_13CanvasJobDataE
$K:__ZN5audio5mixer22CreateAudioMixerMemoryERKNS0_18AudioMixerConstantEPN4FMOD6SystemERN7mecanim6memory9AllocatorEib
YB:__ZZN8Animator15InitializeClassEvEN43FunctorImpl_425kDidModifyAnimatorController4CallEPviR11MessageData
ggg:_RSASslSignatureDeformatter_VerifySignature_m3138484348
TZe:_Array_InternalArray__ICollection_CopyTo_TisDecimal_t724701077_m1087621311_gshared
m_h:_Enumerator_System_Collections_IDictionaryEnumerator_get_Value_m2325383168_AdjustorThunk
Fne:_Convert_ToInt64_m4280008532
Lgc:__Z28Mesh_CUSTOM_SetTrianglesImplP12Il2CppObjectiP11Il2CppArrayih
$7g:__ZL61RawImage_t2749640213_CustomAttributesCacheGenerator_m_TextureP21CustomAttributesCache
ysa:__ZL20ShaderWarmupFuncImplP6ShaderiPN9ShaderLab4PassERK16ShaderKeywordSetP10DynamicVBOPvR17ShaderPassContext
KGc:__ZN7b2World4StepEfii
lvj:_Vector2_get_zero_m3966848876
E2b:__ZNK32RendererMaterialAnimationBinding13SetFloatValueERKN11UnityEngine9Animation10BoundCurveEf
Rod:__ZN15dense_hashtableINSt3__24pairIK10KeyWrapperINS1_IPK14Il2CppAssemblyP11Il2CppClassEEEjEES9_17ReflectionMapHashIS8_EN14dense_hash_mapIS9_jSD_NS9_14EqualsComparerINS0_8equal_toIS8_EEEENS0_9allocatorISB_EEE9SelectKeyESI_SK_E3endEv
gdi:_Scrollbar_set_numberOfSteps_m579707524
wOj:_fmt_u
Dza:__ZN14DataBufferGLES12RecordUpdateEv
NEi:__Z92RuntimeInvoker_Void_t1841601450_Il2CppObject_Il2CppObject_SByte_t454417549_Int32_t2071877448PK10MethodInfoPvPS2_
nyh:_ResourceManager__cctor_m2190112652
bNc:__ZN20TextRenderingPrivate15DynamicFontData28GetFaceForFontRefFromOSFontsERKNS_7FontRefE
mhc:__Z34MonoBehaviour_CUSTOM_StopCoroutineP12Il2CppObjectP12Il2CppString
a3a:__ZN10systeminfo19IsPlatformWebPlayerE15RuntimePlatform
jGd:__ZN6il2cpp2vm12GenericClass12SetupMethodsEP11Il2CppClass
oX:__ZNK20LocalFileSystemPosix18GetApplicationPathEv
dme:_Decimal__ctor_m3876694886
SDb:__ZN9Scripting30IsSystemCollectionsGenericListE17ScriptingClassPtr
VSe:_Array_InternalArray__ICollection_Contains_TisIntPtr_t_m3256777387_gshared
BPf:_MemoryStream_WriteByte_m3737173846
s0c:__ZN2UI23InitializeCanvasManagerEv
d5a:__ZN10GameObject16CheckConsistencyEv
s1b:__ZN14RenderSettings15InitializeClassEv
Vmg:_AsnEncodedData_set_Oid_m3568255745
rfc:__Z46Register_UnityEngine_GameObject_get_activeSelfv
TBb:__ZN20ArchiveStorageHeader11WriteHeaderER12FileAccessorRKNS_6HeaderE
Wgg:_SslClientStream_OnRemoteCertificateValidation2_m3416857045
Hih:_RuntimeTypeHandle_Equals_m452760426_AdjustorThunk
i3i:_Camera_get_depth_m1329692468
v2d:_String_TrimStart_m710830036
Pui:_InternalEnumerator_1_System_Collections_IEnumerator_get_Current_m762846484_AdjustorThunk
R0b:__ZN14SpriteRenderer13GetRenderDataEv
rNj:_AnalyticsTracker_OnEnable_m1011291651
D$c:__ZN2UI16GetCanvasManagerEv
Emc:__ZNK8GUIStyle20GetCursorStringIndexERK5RectTIfER10GUIContentRK8Vector2f
N8b:__ZN15GUIEventManager8PopEventER10InputEvent
Aec:__Z31RectOffset_Get_Custom_PropRightP12Il2CppObject
SZc:__Z54Register_UnityEngine_TextGenerator_GetVerticesInternalv
GVd:__Z3BoxP11Il2CppClassPv
iye:_CultureInfo_Clone_m2970753766
isg:_IntStack_Push_m1259764820
GFa:__ZN21UniformBufferTFMethodD2Ev
yNf:_FileStream_InitBuffer_m2153931481
uF:__Z97Register_UnityEngine_Experimental_Director_AnimatorControllerPlayable_INTERNAL_CALL_SetBoolStringv
QFh:_Type_MakeGenericType_m2765875033
Eac:__ZL34GetComponentsImplementationRecurseILb1ELi1ELi2EEbR10GameObjectbRK17CompareParametersRK39GetComponentsImplementation_ReturnValue
Eja:__ZN6prcoreL12RemapGenericI15TexFormatRGB56515TexFormatRGB888EEvPKNS_9InnerInfoE
JQd:__ZN6il2cpp5utils10MemoryPool9AddRegionEj
Dsd:__ZN15dense_hashtableINSt3__24pairIK10KeyWrapperINS1_IPK9EventInfoP11Il2CppClassEEEjEES9_17ReflectionMapHashIS8_EN14dense_hash_mapIS9_jSD_NS9_14EqualsComparerINS0_8equal_toIS8_EEEENS0_9allocatorISB_EEE9SelectKeyESI_SK_E15insert_noresizeERKSB_
F1c:__Z41CanvasGroup_Get_Custom_PropBlocksRaycastsP12Il2CppObject
ARa:__ZN22RenderingCommandBuffer20CleanupCommandBufferEv
dSb:__ZNSt3__26vectorIN9ShaderLab26SerializedShaderDependencyENS_9allocatorIS2_EEE8__appendEj
tTi:__Z113RuntimeInvoker_Boolean_t3825574718_Ray_t2469606224_RaycastHitU26_t1969197280_Single_t2076509932_Int32_t2071877448PK10MethodInfoPvPS2_
tpi:_InternalEnumerator_1_System_Collections_IEnumerator_get_Current_m4242639349_gshared
H5:__ZN32TransformHierarchyChangeDispatch26DispatchSelfAndAllChildrenE15TransformAccessNS_12InterestTypeE
Lzh:_UTF32Encoding__ctor_m3199945978
$6:__ZN13RuntimeStaticI22VirtualJoystickManagerLb0EE13StaticDestroyEPv
OH:__ZN13AudioListener12ApplyFiltersEv
P4i:_CanvasRenderer_set_cull_m1437892490
XGf:_SortKey_GetHashCode_m2534654444
USe:_Array_InternalArray__ICollection_Contains_TisInt64_t909078037_m1425723755_gshared
Idg:_HandshakeMessage_Update_m1733566706
_Uj:dynCall_viiif
lSd:__ZN6il2cpp8metadata27Il2CppGenericContextCompare7CompareEPK20Il2CppGenericContextS4_
fUj:dynCall_viiii
Gee:_ArrayListWrapper_ToArray_m235921330
lFc:__ZN16Physics2DManagerD2Ev
o7f:_ARC4Managed_set_Key_m663161993
suh:_MemberInfoSerializationHolder_Serialize_m4243060728
lbi:_MaskableGraphic_OnDisable_m2605143092
Wnd:__ZNSt3__214__split_bufferIN6il2cpp2vm17TypeNameParseInfoERNS_9allocatorIS3_EEED2Ev
f5i:_Collision2D_get_transform_m314016758
HFh:_Type_GetConstructor_m663514781
vKf:_Int64_System_IConvertible_ToDouble_m638786774_AdjustorThunk
G$:__ZN15DirectorManager14ConnectionPool16GrowEmptyBucketsEv
dJf:_Int16_ToString_m1247017262
U1:__ZN17PersistentManager32CopyToAwakeFromLoadQueueInternalER18AwakeFromLoadQueue
Hte:_Delegate_Combine_m1976351882
mCc:__ZN10Collider2D23VirtualRedirectTransferER24GenerateTypeTreeTransfer
oXa:__ZNK6Camera16SetActiveVRUsageEv
zHh:_UInt32_System_IConvertible_ToUInt16_m2798641702
vYj:_emscripten_glDrawElementsInstanced__wrapper
bwj:_Texture_Internal_GetWidth_m56137242
kuc:__ZL26Transfer_SimpleNativeClassI8JSONRead8GradientLb1EEvRK29SerializationCommandArgumentsR31RuntimeSerializationCommandInfo
QOj:_open
CIc:__ZN6b2Body7SetTypeE10b2BodyType
Pjc:__Z35Transform_Get_Custom_PropChildCountP12Il2CppObject
i7a:__Z30GetPlayerShouldRunInBackgroundv
Eui:_InternalEnumerator_1_get_Current_m2986222582_gshared
wJh:_UnitySerializationHolder__ctor_m2832165173
wzh:_UnicodeEncoding_GetBytes_m4175529985
h$:__ZZN15DirectorManager15InitializeClassEvEN47PreLateUpdateDirectorUpdateAnimationBeginstruct7ForwardEv
rdi:_Selectable_OnDisable_m2660228016
yja:__ZN6prcoreL12RemapGenericI11TexFormatI815TexFormatRGB565EEvPKNS_9InnerInfoE
Cta:__ZNK13TranslateGLES17FramebufferTargetEN2gl17FramebufferTargetE
nJd:__ZL11on_gc_event11GCEventType
Rwd:__ZNSt3__214__split_bufferIN6il2cpp8metadata18GenericArrayMethodERNS_9allocatorIS3_EEED2Ev
O5i:_Component_GetComponentInChildren_m3985003615
K0d:_Single_System_IConvertible_ToBoolean_m2661548087_AdjustorThunk
$Fc:__ZNSt3__27__sort5IR31RayHitsByInverseDepthComparitorP12RaycastHit2DEEjT0_S5_S5_S5_S5_T_
hlh:_DSASignatureDeformatter_VerifySignature_m4078616251
iXj:b62
hXj:b61
gXj:b60
AYj:b67
_Xe:_Array_InternalArray__IndexOf_TisUInt16_t986882611_m390127593_gshared
XNe:_InputField_set_shouldHideMobileInput_m2478534110
r3d:_String_Concat_m3881798623
zYb:__ZL10SweepEventP14TESStesselatorP10TESSvertex
Zqh:_FieldBuilder_IsDefined_m2730324893
oLg:__ZL56FlagsAttribute_t859561169_CustomAttributesCacheGeneratorP21CustomAttributesCache
Mgb:__ZN21ArchiveStorageCreator10BeginBlockEb15CompressionType16CompressionLevelj
qCf:_ReadOnlyCollection_1_System_Collections_IList_Insert_m571902768_gshared
dId:__ZN6il2cpp2os6Thread19DetachCurrentThreadEv
hUj:dynCall_iifffi
c9b:__Z9SetIIMGUIP6IIMGUI
kba:__Z28SetupPixelCorrectCoordinatesv
sSc:_tt_cmap10_get_info
eUh:_Mesh_SetTangents_m282399504
c6b:__ZNSt3__218__insertion_sort_3IRN10vector_mapIiiNS_4lessIiEE13stl_allocatorINS_4pairIiiEEL18MemLabelIdentifier1ELi16EEE13value_compareEPS6_EEvT0_SD_T_
fza:__Z5SplitRKN4core12basic_stringIcNS_20StringStorageDefaultIcEEEEcRNSt3__26vectorIS3_NS6_9allocatorIS3_EEEEi
ZLb:__Z18Transfer_BlittableI19StreamedBinaryWriteILb0EELb0E10Matrix4x4fEvRK29SerializationCommandArgumentsR31RuntimeSerializationCommandInfo
H1a:__ZN15LODGroupManager26CollectAllLODGroupManagersEPK6CameraR13dynamic_arrayIPS_Lj4EEb
$Z:__ZN17ScriptingGCHandle28ResolveBackendNativeGCHandleEj
u5b:__ZN13PlayableGraph16DestroyRecursiveEP8Playable
uue:_Double_System_IConvertible_ToType_m4036266196_AdjustorThunk
VH:__ZN12AudioManagerD0Ev
uOj:___fwritex
CSd:__ZN6il2cpp5utils35RegisterRuntimeInitializeAndCleanupC2EPFvvES3_i
grg:_Capture__ctor_m885749277
uOf:_Stream_EndRead_m2148943753
_Ab:__ZNK22GenericPropertyBinding13SetFloatValueERKN11UnityEngine9Animation10BoundCurveEf
tfb:__ZN17ArchiveFileSystem14UnmountArchiveEP20ArchiveStorageReader
j1b:__ZN6ShaderC2E18MemLabelIdentifier18ObjectCreationMode
Vzi:__Z99RuntimeInvoker_Int32_t2071877448_Int32_t2071877448_Int32_t2071877448_Int32_t2071877448_Il2CppObjectPK10MethodInfoPvPS2_
CPc:_raccess_guess_darwin_ufs_export
fag:_CipherSuite_get_ExpandedKeyMaterialSize_m296573450
jNa:__ZN11TypeManager18InitializeAllTypesEv
bG:__ZN9AudioClipD0Ev
cZh:_Renderer_get_sortingOrder_m1544525007
Gld:_il2cpp_class_from_name
qKh:_RenderPipelineManager_DoRenderLoop_Internal_m2267530247
MTe:_Array_InternalArray__ICollection_Remove_TisKeyValuePair_2_t38854645_m3060436673_gshared
ry:__ZN17AnimationPlayable16AllocateBindingsEPK35AnimationPlayableEvaluationConstant
Ief:_List_1_Find_m3480386930_gshared
$6h:_EqualityComparer_1__cctor_m51007461_gshared
r_b:__Z13RegisterClassI8GUILayerEvv
Mbb:__ZN25ThreadsafeLinearAllocatorC2EiiPKc
YXf:_SimpleCollator_IsSuffix_m740049399
ADa:__ZN14GfxContextGLES11MakeCurrentER7ApiGLESN2gl13ContextHandleE
yrj:_PKCS12__cctor_m3312759338
TXc:_UNITY_tt_glyphzone_new
VOa:__ZN5Image13ReformatImageEii13TextureFormatN14ImageReference8BlitModeE
dUf:_ShortComparer_Compare_m1398180168
FLh:_Screen_get_width_m41137238
eVh:_Object_Internal_InstantiateSingleWithParent_m509082884
BQa:_UNITY_png_check_IHDR
tsa:__ZN16GraphicsSettings22WarmupPreloadedShadersEv
S2c:__Z34Canvas_Set_Custom_PropSortingOrderP12Il2CppObjecti
HPf:_MonoIO_get_ConsoleError_m592181393
RJi:__Z59RuntimeInvoker_Il2CppObject_Single_t2076509932_Il2CppObjectPK10MethodInfoPvPS2_
rgg:_SslCipherSuite_prf_m2084589217
bb:invoke_iiiiiiffiiiiiiiiiffffiii
r_c:__ZN2UI6Canvas8TransferI14SafeBinaryReadEEvRT_
A6i:_Coroutine_Finalize_m3953619693
yVi:__Z83RuntimeInvoker_Int32_t2071877448_Color32_t874517518_Color32_t874517518_Il2CppObjectPK10MethodInfoPvPS2_
eyj:_Vector2_op_Division_m96580069
$pd:__ZN6il2cpp2gc19AppendOnlyGCHashMapIPK10Il2CppTypeP20Il2CppReflectionTypeNS_8metadata14Il2CppTypeHashENS7_26Il2CppTypeEqualityComparerEE3AddERKS4_S6_
lQ:__ZN11UnityEngine15CloudWebService17CloudJobScheduler11ScheduleJobEPFvPvES2_
MHf:_Guid_Equals_m2389236871_AdjustorThunk
uR:__ZN11UnityEngine15CloudWebService17CloudServiceEvent12ToJsonStringER9JSONWrite
x7:__ZNK18VertexChannelsInfoltERKS_
yHg:__ZL93ASCIIEncoding_t3022927988_CustomAttributesCacheGenerator_ASCIIEncoding_GetDecoder_m3693600923P21CustomAttributesCache
Nva:__ZN13GfxDeviceGLES15UploadTexture3DE9TextureIDPKhiiii13TextureFormati18TextureUploadFlags
DJi:__Z71RuntimeInvoker_Single_t2076509932_Single_t2076509932_Single_t2076509932PK10MethodInfoPvPS2_
qqc:__ZN9JSONWrite8TransferIfEEvRT_PKc17TransferMetaFlags
cHe:_ContentSizeFitter_SetLayoutHorizontal_m2830034151
WD:__Z92Register_UnityEngine_Experimental_Director_AnimationOffsetPlayable_INTERNAL_CALL_SetPositionv
I5b:__ZN10MonoScript27InitializeAndRegisterScriptERKN4core12basic_stringIcNS0_20StringStorageDefaultIcEEEES6_S6_S6_b
ukh:_DES_set_Key_m2689203108
OMj:_GameController_SetPoints_m669819558
KQa:_UNITY_png_free_data
Qqj:_SubjectAltNameExtension_ToString_m1300810903
x1f:_RSAManaged_ImportParameters_m2382611442
MGb:__ZN13GUIStyleState8TransferI14SafeBinaryReadEEvRT_
_kj:_PatternCompiler_EmitSet_m866698437
Ud:_glDrawArrays
mxf:_ReadOnlyCollection_1_System_Collections_IList_Add_m527174473_gshared
Joi:_InternalEnumerator_1_System_Collections_IEnumerator_get_Current_m127456009_AdjustorThunk
MHj:_HashSet_1_System_Collections_Generic_ICollectionU3CTU3E_CopyTo_m1933244740_gshared
bIg:__ZL54UTF8Encoding_t111055448_CustomAttributesCacheGeneratorP21CustomAttributesCache
L6b:__Z17InstantiateObjectR6ObjectR9TransformRK8Vector3fRK11Quaternionf
aKf:_Int32_TryParse_m656840904
GTe:_Array_InternalArray__ICollection_Remove_TisChar_t3454481338_m1562002771_gshared
rKf:_Int64_System_IConvertible_ToDateTime_m1002280174_AdjustorThunk
Aub:__ZN14BlendShapeData8TransferI18StreamedBinaryReadILb0EEEEvRT_
LSa:__ZN13sorted_vectorINSt3__24pairIiN17InstancedPropInfo12PropertyTypeEEEN10vector_mapIiS3_NS0_4lessIiEE13stl_allocatorIS4_L18MemLabelIdentifier1ELi16EEE13value_compareESA_E21sort_clear_duplicatesEv
fYc:_Round_To_Grid
jNc:_UNITY_FT_Stream_Close
xDi:__Z66RuntimeInvoker_Il2CppObject_Il2CppObject_DSAParameters_t1872138834PK10MethodInfoPvPS2_
wDi:__Z103RuntimeInvoker_Boolean_t3825574718_Il2CppObject_Il2CppObject_Il2CppObject_Il2CppObject_SByte_t454417549PK10MethodInfoPvPS2_
lwc:__ZN9rapidjson6WriterI16TempBufferWriterNS_4UTF8IcEES3_13JSONAllocatorE9WriteBoolEb
mec:__Z35DebugLogHandler_CUSTOM_Internal_Log7LogTypeP12Il2CppStringP12Il2CppObject
uYj:_emscripten_glShaderBinary__wrapper
HCa:__ZL17ProgramUniform3ivPK7ApiGLESjiihPKv
tva:__ZN9GfxDevice25GetBackBufferColorSurfaceEv
YKa:__ZN25SingleBlockMemoryFileData9SetLengthEy
o6b:__Z29AwakeAndActivateClonedObjectsPP6ObjectRK10vector_mapIiiNSt3__24lessIiEE13stl_allocatorINS3_4pairIiiEEL18MemLabelIdentifier1ELi16EEE
cMi:__Z91RuntimeInvoker_Void_t1841601450_Il2CppObject_Il2CppObject_SByte_t454417549_SByte_t454417549PK10MethodInfoPvPS2_
Lud:__ZN15dense_hashtableINSt3__24pairIK10KeyWrapperINS1_IPK10MethodInfoP11Il2CppClassEEEjEES9_17ReflectionMapHashIS8_EN14dense_hash_mapIS9_jSD_NS9_14EqualsComparerINS0_8equal_toIS8_EEEENS0_9allocatorISB_EEE9SelectKeyESI_SK_E14squash_deletedEv
vGi:__Z117RuntimeInvoker_Void_t1841601450_Il2CppObject_Int64_t909078037_Il2CppObject_Int64_t909078037_Il2CppObject_Il2CppObjectPK10MethodInfoPvPS2_
I_b:__Z13RegisterClassI6ShaderEvv
EIf:_Int16_System_IConvertible_ToUInt32_m883204517
$cj:_ResourceCacheItem_t333236149_marshal_pinvoke_cleanup
Vaf:_List_1_CheckMatch_m1196994270_gshared
Z$:__ZN13RuntimeStaticI11WindManagerLb0EE13StaticDestroyEPv
Moe:_Convert_ToUInt64_m3559662221
$rc:__Z18Transfer_BlittableI9JSONWriteLb1EaEvRK29SerializationCommandArgumentsR31RuntimeSerializationCommandInfo
Gud:__ZN13Il2CppHashMapINSt3__24pairIPK10MethodInfoP11Il2CppClassEEj17ReflectionMapHashIS7_ENS0_8equal_toIS7_EENS0_9allocatorINS1_IK10KeyWrapperIS7_EjEEEEEC2EjRKS9_RKSB_
vde:_ArrayList_set_Item_m1858827078
Xoa:__ZN9Texture3D23VirtualRedirectTransferER19StreamedBinaryWriteILb0EE
C7f:_HMAC__ctor_m2605930831
aO:__Z13RegisterClassI10SampleClipEvv
esj:_X509Certificate_set_RSA_m1038416652
eS:__ZN11UnityEngine15CloudWebService10RestClientINS0_16WWWRestHeaderMapEE17GetResponseHeaderERKN4core12basic_stringIcNS4_20StringStorageDefaultIcEEEE
qyc:__Z23b2CollideRadialPolygonsP10b2ManifoldPK14b2PolygonShapeRK11b2TransformS3_S6_
h_a:__ZNK23ForwardShaderRenderLoop18RenderObjectSorterILb1EEclERK21ForwardRenderPassDataS4_
ugd:__ZN15dense_hashtableI10KeyWrapperIPK19Il2CppGenericMethodES4_N6il2cpp8metadata23Il2CppGenericMethodHashEN14dense_hash_setIS4_S7_NS4_14EqualsComparerINS6_26Il2CppGenericMethodCompareEEENSt3__29allocatorIS4_EEE8IdentityESB_SE_E12maybe_shrinkEv
vGa:__ZN10BufferGLES10BeginWriteEjj
tgd:__ZNK15dense_hashtableI10KeyWrapperIPK19Il2CppGenericMethodES4_N6il2cpp8metadata23Il2CppGenericMethodHashEN14dense_hash_setIS4_S7_NS4_14EqualsComparerINS6_26Il2CppGenericMethodCompareEEENSt3__29allocatorIS4_EEE8IdentityESB_SE_E12test_deletedEj
lt:__ZN7mecanim12statemachine18StateMachineMemory8TransferI9BlobWriteEEvRT_
FTb:__ZN9ShaderLab20SerializedSubProgramaSERKS0_
YHh:_UInt64_System_IConvertible_ToByte_m953298241
uGa:__ZN7ApiGLES11FlushBufferEjN2gl12BufferTargetEll
Voe:_Convert_ToUInt64_m1896191125
GHb:__ZN14SafeBinaryRead21TransferSTLStyleArrayI13dynamic_arrayI8BitFieldLj4EEEEvRT_17TransferMetaFlags
QDa:__ZN12_GLOBAL__N_127PrepareReadback_ResolveMSAAER18GfxFramebufferGLESR7ApiGLESP17RenderSurfaceGLESS5_
yu:__ZN7mecanim15InvertValueMaskEPNS_14ValueArrayMaskE
fqh:_EnumBuilder_GetAttributeFlagsImpl_m4263246832
Qnh:_CustomAttributeData_GetHashCode_m3989739430
xii:_Text_AssignDefaultFont_m1295571657
U2b:__ZNK24RendererAnimationBinding9BindValueER6ObjectRKN11UnityEngine9Animation14GenericBindingERNS3_10BoundCurveE
Te:_glBindBuffer
zQb:__ZN8GUIStyle8TransferI18StreamedBinaryReadILb0EEEEvRT_
e8:__ZNSt3__213__stable_sortIRN10vector_mapIijNS_4lessIiEENS_9allocatorINS_4pairIijEEEEE13value_compareENS_11__wrap_iterIPS6_EEEEvT0_SE_T_NS_15iterator_traitsISE_E15difference_typeEPNSH_10value_typeEi
v1i:_Application_get_platform_m3989224144
ZYe:_Array_InternalArray__ICollection_Add_TisCustomAttributeNamedArgument_t94157543_m1003067274_gshared
dXb:__ZNSt3__218__insertion_sort_3IRNS_6__lessIN4core12basic_stringIcNS2_20StringStorageDefaultIcEEEES6_EEPS6_EEvT0_SA_T_
w8e:_Enumerator_System_Collections_IEnumerator_Reset_m925111644_gshared
Cna:__ZN18LoadSceneOperation13CleanupMemoryEv
$Nj:_isupper
Lmh:_AssemblyName__ctor_m609734316
ty:__ZN7mecanim20ValueArrayBlendBeginERNS_14ValueArrayMaskE
jha:__ZNSt3__26__treeINS_12__value_typeIN9ShaderLab16FastPropertyNameEN18UnityPropertySheet11UnityTexEnvEEENS_19__map_value_compareIS3_S6_NS_4lessIS3_EELb1EEENS_9allocatorIS6_EEE7destroyEPNS_11__tree_nodeIS6_PvEE
xhg:_InternalAsyncResult_get_IsCompleted_m1463732458
ngi:_Selectable_IsInteractable_m3245596965
GQj:_getuid
xMe:_HorizontalLayoutGroup_CalculateLayoutInputVertical_m3516192138
mC:__ZN7mecanim5human8BoneNameEj
Y_b:__Z13RegisterClassI10MonoScriptEvv
y0f:_AttrListImpl__ctor_m3211398293
cu:__ZN13dynamic_arrayIN8Animator11AnimatorJobELj4EE9push_backERKS1_
HLc:__ZN20TextRenderingPrivate8FontImpl8TransferI18StreamedBinaryReadILb0EEEEvRT_
Syh:_StringBuilder_get_Chars_m256627635
sBh:_EventWaitHandle_Set_m2975776670
yGi:__Z86RuntimeInvoker_Void_t1841601450_Il2CppObject_Il2CppObject_StreamingContext_t1417235061PK10MethodInfoPvPS2_
Vjd:__ZN6il2cpp6icalls8mscorlib6System8MonoType22get_IsGenericParameterEP20Il2CppReflectionType
Su:__ZN7mecanim5human14HumanPoseClearERNS0_9HumanPoseE
GMf:_MonoIO_GetException_m957022672
Tha:__ZN18StreamedBinaryReadILb0EE19TransferSTLStyleMapINSt3__23mapIN9ShaderLab16FastPropertyNameE10ColorRGBAfNS2_4lessIS5_EENS2_9allocatorINS2_4pairIKS5_S6_EEEEEEEEvRT_17TransferMetaFlags
vog:_X509Certificate2_GetValueAsString_m1286925493
Aai:_Mask__ctor_m1716732261
Wce:_Char_ToLower_m2719897546
z0e:_Array_InternalArray__set_Item_TisHitInfo_t1761367055_m2693590376_gshared
DUf:_MonoType_IsPointerImpl_m648213545
PFf:_InvalidOperationException__ctor_m2801133788
a7a:__ZN13RenderManager28AreCamerasUsingMotionVectorsEv
geb:__Z24GetAssetBundleFileSystemv
k7:__Z25InitializeLODGroupManagerPv
PFe:_CanvasScaler_SetScaleFactor_m3305903109
oZe:_Array_InternalArray__ICollection_Add_TisUriScheme_t1876590943_m3218110478_gshared
zTa:__ZNK12ImageFilters28ApplyAfterTransparentFiltersEv
hSe:_LayoutRebuilder_U3Cs_RebuildersU3Em__0_m3768099182
r5c:__ZN11UnityEngine7Connect15AppRunningEvent12ToJsonStringER9JSONWrite
d0:__ZN19ShaderPropertySheet5ClearEb
seg:_TlsServerCertificate_ProcessAsTls1_m3083203628
oyf:_ReadOnlyCollection_1_System_Collections_Generic_IListU3CTU3E_set_Item_m1099846173_gshared
XXa:__ZNK6Camera11GetPositionEv
Cv:__ZN8Animator19CreatePlayableGraphEv
a0j:_emscripten_glClearDepth__wrapper
Wne:_Convert_ToSByte_m1880147062
oab:__ZNK16MemoryFileSystem8FilenameERK13FileEntryData
Xf:_glUniform1fv
o5e:_GameObject_GetComponent_TisIl2CppObject_m2812611596_gshared
$f:_JS_FileSystem_Sync
kVd:_MD5CryptoServiceProvider_HashCore_m2367253552
eya:__ZNSt3__26__treeINS_12__value_typeI21GLESRenderTargetSetupN2gl6HandleILNS3_10ObjectTypeE9EEEEENS_19__map_value_compareIS2_S7_NS_4lessIS2_EELb1EEENS_9allocatorIS7_EEE7destroyEPNS_11__tree_nodeIS7_PvEE
Nsj:_X509StoreManager_get_TrustedRootCertificates_m122138510
mDj:_UnityAction_1_BeginInvoke_m530778538_gshared
vYc:_Direct_Move
Zf:__emscripten_sample_gamepad_data
e0b:__Z22DelayedDestroyCallbackP6ObjectPv
IYj:_glBlendEquationSeparate__wrapper
OOh:_GUISkin_GetStyle_m3594137272
TLe:_GraphicRegistry__cctor_m4197769737
WAc:__ZN15b2ContactFilter13ShouldCollideEP9b2FixtureS1_
a_c:__ZNK2UI6Canvas26GetTypeInfoVirtualInternalEv
m7c:__ZN11UnityEngine7Connect20BasePersistentValues13RestoreValuesER8JSONRead
X8f:_KeyGeneratedEventHandler_Invoke_m1298576133
mQe:_InputField_Rebuild_m3481959062
Pxb:__ZN11TimeManagerD0Ev
IS:__ZN11UnityEngine15CloudWebService18RestFileDownloader10InitializeERKN4core12basic_stringIcNS2_20StringStorageDefaultIcEEEE
xob:__ZN9Texture2D16DeleteGfxTextureEv
DW:__ZN20LocalFileSystemPosix4OpenER13FileEntryData14FilePermission16FileAutoBehavior
w7f:_KeyBuilder_get_Rng_m2539978716
gQi:__Z82RuntimeInvoker_Vector2_t2243707579_Rect_t3681755626_Il2CppObject_Int32_t2071877448PK10MethodInfoPvPS2_
g_c:__ZN2UI6Canvas12AddToManagerEv
jRc:_UNITY_tt_face_load_sbit
V5b:__Z37GetTransformFromComponentOrGameObjectP6Object
I_h:_ShimEnumerator_get_Current_m2516732679_gshared
$Vc:_cf2_hint_isTop
W4a:__ZN23ManagedAttributeManager21GetRequiredComponentsE17ScriptingClassPtr
Rta:__ZN9GfxDevice18GetNumGraphicsJobsEj
k8a:__Z23InitializeStdConvertersv
$pf:_Collection_1_Contains_m3292349561_gshared
sNe:_Image_SetNativeSize_m3580044470
ccj:_AnimatorControllerPlayable_CrossFade_m2119841183
Yvj:_TextGenerator_get_lines_m916366224
qUc:_ps_unicodes_init
v2b:__ZL33AllowIdentityTransformDestructionv
VEd:__ZNK10KeyWrapperINSt3__24pairIPKcS3_EEE14EqualsComparerI26NamespaceAndNamePairEqualsEclERKS5_SA_
CDb:__ZN13MonoBehaviour17StopAllCoroutinesEv
b1d:_Single_System_IConvertible_ToSingle_m2540530435
V2f:_X509CertificateEnumerator__ctor_m1500464146
mYb:__Z15tessMeshNewMeshP9TESSalloc
TEh:_Type_get_IsPointer_m3832342327
Ozd:__ZN6il2cpp2vm9Exception27GetExecutionEngineExceptionEPKc
R2h:_Dictionary_2_System_Collections_ICollection_CopyTo_m2784181332_gshared
mh:_JS_WebRequest_GetResponseHeaders
e8a:__ZNSt3__26__treeINS_12__value_typeI26SerializedObjectIdentifieriEENS_19__map_value_compareIS2_S3_NS_4lessIS2_EELb1EEENS_9allocatorIS3_EEE7destroyEPNS_11__tree_nodeIS3_PvEE
JQc:_UNITY_FT_Create_Class_tt_cmap_classes
wcg:_ClientSessionInfo_get_Valid_m3589823308
C9b:__ZN9Scripting18RaiseNullExceptionEPKcz
wyf:_ReadOnlyCollection_1_System_Collections_IList_Insert_m2659121605_gshared
T8:__ZN13RuntimeStaticI13RendererSceneLb0EE16StaticInitializeEPv
Rcj:_PlayableHandle_GetHashCode_m1257452282_AdjustorThunk
jci:_RawImage_SetNativeSize_m672994452
xh:_glCreateProgram
U0f:_PKCS1_Sign_v15_m2137018891
y_e:_Array_InternalArray__ICollection_CopyTo_TisContentType_t1028629049_m330597634_gshared
cfe:_SimpleEnumerator_Reset_m3524591211
byj:_Vector2_op_Addition_m1389598521
PHh:_UInt32_ToString_m554020223_AdjustorThunk
sib:__ZN24GenerateTypeTreeTransfer32TransferSTLStyleArrayWithElementI17SortingLayerEntryEEvRT_17TransferMetaFlags
wLi:__Z70RuntimeInvoker_Boolean_t3825574718_Int32_t2071877448_Int16_t4041245914PK10MethodInfoPvPS2_
AXj:_glUniformMatrix3fv__wrapper
MNb:__Z18Transfer_BlittableI18StreamedBinaryReadILb1EELb1E12PropertyNameEvRK29SerializationCommandArgumentsR31RuntimeSerializationCommandInfo
u0d:_SecurityFrame__ctor_m3738328608_AdjustorThunk
gud:__ZN15dense_hashtableINSt3__24pairIK10KeyWrapperIPK22Il2CppGenericParameterEPK24MonoGenericParameterInfoEES6_N6il2cpp5utils11PointerHashIS4_EEN14dense_hash_mapIS6_SA_SF_NS6_14EqualsComparerINS0_8equal_toIS5_EEEENS0_9allocatorISB_EEE9SelectKeyESK_SM_EC2ERKSP_j
xog:_X509Certificate2_Import_m3813388542
J2c:__Z33Canvas_Get_Custom_PropScaleFactorP12Il2CppObject
Iu:__ZNK26AnimatorControllerPlayable21GetStateMachineMemoryEi
t6:__ZNSt3__26__treeINS_12__value_typeI18UnityInterfaceGUIDP15IUnityInterfaceEENS_19__map_value_compareIS2_S5_NS_4lessIS2_EELb1EEE13stl_allocatorIS5_L18MemLabelIdentifier6ELi16EEE7destroyEPNS_11__tree_nodeIS5_PvEE
f$d:_EvidenceEnumerator_get_Current_m632582639
x0a:__Z15CullLocalLightsR8JobFenceS0_RK22SceneCullingParametersiPK8Vector4fRK13dynamic_arrayIhLj1EER9IndexListSC_PfP5RectTIfEP13TargetEyeMaskPPK5LightRK14ShadowCullData
V3d:_DecoderFallback_get_ReplacementFallback_m2155645318
Gea:__ZNK6Camera16GetTargetTextureEv
Yle:_Convert_ToDateTime_m3528521877
ZGb:__Z35Transfer_Blittable_SingleValueFieldI14SafeBinaryReadyEvRT_R17GeneralMonoObjectRK23StaticTransferFieldInfo
Gmb:__ZN8Playable20ClearInputConnectionEi
DVa:__ZN13BatchRenderer12EndLoopFlushEv
uve:_Enum_System_IConvertible_ToChar_m1838232954
yxe:_CultureInfo_CreateTextInfo_m2269397562
u7d:_Array_SetValue_m2469980129
B8b:__ZNK6Sprite11GetInnerUVsE20SpriteRenderDataMode
RA:__ZN11UnityEngine9Animation28DestroyAvatarBindingConstantEPNS0_21AvatarBindingConstantERN7mecanim6memory9AllocatorE
qZb:__ZN16MessageForwarder23RegisterMessageCallbackEiPFvPviR11MessageDataEPKN5Unity4TypeE
fWc:_cff_get_glyph_data
fi:_gmtime
mi:_emscripten_glUniform3i
uya:__ZNK7ApiGLES10GetContextEv
W0d:_Single_System_IConvertible_ToInt16_m962677079_AdjustorThunk
PFb:__Z18Transfer_BlittableI14SafeBinaryReadLb1E5RectTIfEEvRK29SerializationCommandArgumentsR31RuntimeSerializationCommandInfo
Sxc:__Z7b2Alloci
Zna:__ZN15TextureSettings14SetAnisoLimitsEii
Y$f:_SmallXmlParser_Parse_m1986939549
bLb:__Z19TransferField_ArrayI24GenerateTypeTreeTransfer27Converter_SimpleNativeClassI10RectOffsetEEvRK23StaticTransferFieldInfoR31RuntimeSerializationCommandInfoRT0_
J$c:__ZN2UI6Canvas19GetProjectionMatrixEv
Ska:__ZN6prcoreL17RemapGenericFloatI18TexFormatARGBFloat15TexFormatRGHalfEEvPKNS_9InnerInfoE
_9d:_Boolean_System_IConvertible_ToInt64_m4142756949
hUh:_Mesh_CheckCanAccessSubmeshIndices_m2098382465
r_d:_String_memcpy2_m2338403668
Fli:_InternalEnumerator_1_get_Current_m4154615771_AdjustorThunk
vLh:_GUIUtility_Internal_GetGUIDepth_m1699616910
QY:__GLOBAL__sub_I_runtime_graphics_lod_lump_cpp
U$e:_Array_InternalArray__set_Item_TisDateTime_t693205669_m197118909_gshared
Ysh:_ModuleBuilder_GetToken_m4190668737
v1j:_emscripten_glIsProgram__wrapper
f3b:__ZL22PrepareMeshRenderNodesILb1EEvR35RenderNodeQueuePrepareThreadContext
lX:__ZN20LocalFileSystemPosix5TouchER13FileEntryData
htc:__ZN9JSONWrite8TransferI13dynamic_arrayItLj2EEEEvRT_PKc17TransferMetaFlags
tBh:_NativeEventCalls_SetEvent_internal_m2449488771
Ci:_emscripten_glDrawElements
K3f:_X509CertificateEnumerator_System_Collections_IEnumerator_MoveNext_m1064716431
zXd:_RSAPKCS1SignatureDeformatter_SetHashAlgorithm_m894366837
S2f:_X509Certificate_get_DSA_m3959895595
$Sh:_Mathf_Round_m227387340
R9d:_Boolean_System_IConvertible_ToDouble_m624978277
jte:_Delegate_get_Method_m2968370506
dFe:_Button__ctor_m975719067
Jxj:_UnityException__ctor_m3650417185
BEc:__ZN20SpriteTilingProperty8TransferI14SafeBinaryReadEEvRT_
NDh:_TimeSpan_CompareTo_m2891128664
Js:__ZN9BlobWriteD2Ev
Rrj:_PKCS12_AddCertificate_m3637520737
ZMj:_RestartScript_OnMainMenuClick_m3895437790
XEa:__Z33GetMinimumTextureMipSizeForFormat13TextureFormat
_Fb:__ZL26Transfer_SimpleNativeClassI14SafeBinaryRead8GradientLb0EEvRK29SerializationCommandArgumentsR31RuntimeSerializationCommandInfo
K0j:_emscripten_glClientActiveTexture__wrapper
Rgd:__ZNK15dense_hashtableI10KeyWrapperIPK17Il2CppGenericInstES4_N6il2cpp8metadata21Il2CppGenericInstHashEN14dense_hash_setIS4_S7_NS4_14EqualsComparerINS6_24Il2CppGenericInstCompareEEENSt3__29allocatorIS4_EEE8IdentityESB_SE_E4findERKS4_
EZf:_PrimalityTests_RabinMillerTest_m1376858197
pUd:_HMACSHA1__ctor_m2027292306
jjh:_SByte_System_IConvertible_ToUInt64_m2174352876_AdjustorThunk
qkh:_DES_Create_m2705450713
Esj:_X509CertificateCollection_Remove_m2722259192
XXe:_Array_InternalArray__IndexOf_TisSingle_t2076509932_m2151846718_gshared
_ca:__ZN13RenderTexture23VirtualRedirectTransferER18StreamedBinaryReadILb0EE
MHg:__ZL56StringBuilder_t1221177846_CustomAttributesCacheGeneratorP21CustomAttributesCache
JEf:_NumberFormatter_FormatHexadecimal_m1317851390
JRc:_UNITY_tt_face_lookup_table
ypg:_X509Certificate2Collection_AddRange_m1503879780
CNf:_StreamReader__ctor_m871771009
oZh:_Resources_GetBuiltinResource_m582410469
NVc:_cf2_stack_pushFixed
tBa:__ZN4crnd12crn_unpacker12unpack_dxt5aEPPhjjjjjj
Xvd:__ZNK15dense_hashtableINSt3__24pairIK10KeyWrapperINS1_IP11Il2CppClassjEEES4_EES6_N6il2cpp8metadata14ArrayClassHashEN14dense_hash_mapIS6_S4_SB_NS6_14EqualsComparerINSA_17ArrayClassCompareEEENS0_9allocatorIS8_EEE9SelectKeyESF_SH_E3endEv
mnj:_AnchorInfo_get_Length_m1721106162
wxj:_Transform_get_childCount_m881385315
veh:_RemotingConfiguration_RegisterActivatedClientType_m2207611714
dOa:__ZZ23InitPlayerLoopCallbacksvEN45EarlyUpdateScriptRunDelayedStartupFramestruct7ForwardEv
OKh:_GameObject_GetComponentInChildren_m4263325740
P$h:_Transform_1_Invoke_m1224512163_gshared
hPb:__Z29Transfer_Blittable_ArrayFieldI18StreamedBinaryReadILb1EE8Vector2fEvRT_R9ArrayInfoRK23StaticTransferFieldInfo
wAd:__ZN6il2cpp2vm13LivenessState25FieldCanContainReferencesEP9FieldInfo
lRb:__ZL19RequireCorLibMethodPKcS0_S0_
qUh:_MonoBehaviour_IsInvoking_m1469271462
mub:__ZN15SerializeTraitsI13dynamic_arrayI10BlendShapeLj4EEE19ResizeSTLStyleArrayERS2_i18MemLabelIdentifier
cVd:_MD5_Create_m1572997499
B4f:_AppDomain_LoadAssembly_m1537679648
Gla:__ZN6prcoreL26RemapGenericIntegerToFloatI17TexFormatARGB888817TexFormatRGBFloatEEvPKNS_9InnerInfoE
gqi:_InternalEnumerator_1_get_Current_m789289033_gshared
vnd:__ZN6il2cpp2vm14TypeNameParser26ParseTypeArgumentsOptionalERi
J1a:__ZN15LODGroupManager27GarbageCollectCameraLODDataEv
kfa:__ZN11NamedObjectC2E18MemLabelIdentifier18ObjectCreationMode
e7a:__ZN13ScreenManagerC2Ev
tWf:_OrdinalComparer_GetHashCode_m3400975772
vlc:__ZN12GUIClipState20CalculateMouseValuesER10InputEvent
sKb:__Z18Transfer_BlittableI24GenerateTypeTreeTransferLb0E12PropertyNameEvRK29SerializationCommandArgumentsR31RuntimeSerializationCommandInfo
qya:__ZN7ApiGLES4InitERK14GfxContextGLESR16GfxDeviceLevelGL
z4c:__Z31CustomEventData_CUSTOM_AddSByteP12Il2CppObjectP12Il2CppStringa
Foa:__ZNK11LightProbes14LightProbeData33GetLightProbeInterpolationWeightsERK8Vector3fRiR8Vector4fRf
Wch:_SoapServices_GetAssemblyName_m2037446159
_bb:__ZN21UnityDefaultAllocatorI17LowLevelAllocatorED0Ev
sHh:_UInt32_System_IConvertible_ToInt64_m3091851828_AdjustorThunk
fCa:__Z14DecodeBC7BlockP9HDRColorAPKh
S2b:__ZNK24RendererAnimationBinding12GetPPtrValueERKN11UnityEngine9Animation10BoundCurveE
iPa:_UNITY_png_set_IHDR
ncg:_ClientSessionCache__cctor_m1134810266
ioj:_CharacterClass_GetIntervalCost_m2706255216
xgh:_ObjectReader_ReadGenericArray_m788836286
lyh:_NeutralResourcesLanguageAttribute__ctor_m1145808404
NDj:_UnityAction_2_Invoke_m1528820797_gshared
vPd:_GC_new_proc_inner
pc:invoke_fiiffi
Bca:__ZN19RenderBufferManager13GetTempBufferE17RenderTextureDesc
abj:_AnimatorControllerPlayable_GetLayerIndexInternal_m696260605
OWc:_UNITY_FT_Init_Class_cff_service_glyph_dict
aWd:_RijndaelManagedTransform_TransformFinalBlock_m3663752599
n3d:_String_Format_m4262916296
Gpa:__ZL24stbir__filter_catmullromff
RXf:_SimpleCollator_CompareInternal_m280569710
CRj:__ZNSt3__212basic_stringIcNS_11char_traitsIcEENS_9allocatorIcEEE6__initEPKcjj
IDc:__ZN10ClipperLib7Clipper8AddOutPtEPNS_5TEdgeERKNS_8IntPointE
qMc:__ZN20TextRenderingPrivate15GetFormatStringER11UTF16StringR13dynamic_arrayINS_16TextFormatChangeELj4EE
lF:__Z112Register_UnityEngine_Experimental_Director_AnimatorControllerPlayable_INTERNAL_CALL_CrossFadeInFixedTimeInternalv
Vog:_X509ExtensionEnumerator_get_Current_m3926549773
UEf:_NumberFormatter_IsZeroOnly_m3495795110
tsi:_InternalEnumerator_1_System_Collections_IEnumerator_get_Current_m3732729179_AdjustorThunk
_If:_Int32_ValidDigit_m2682121722
Ox:__ZN7mecanim9animation12GetHumanPoseIfEEvRKNS0_18ClipMuscleConstantEPKT_RNS_5human9HumanPoseE
k:ABORT
Rhh:_SerializationInfo_AddValue_m2342806462
xPc:_UNITY_FT_Init_Class_ft_outline_glyph_class
Llg:_IPv6Address_AsIPv4Int_m3565745471
Xng:_X509BasicConstraintsExtension__ctor_m4017912156
HWj:_glTexStorage3D__wrapper
wUc:_ft_get_adobe_glyph_index
Zya:__ZN7ApiGLES17CreateFramebufferEv
ljc:__Z47Register_UnityEngine_Texture_Internal_GetHeightv
ODb:__Z25scripting_field_get_flags17ScriptingFieldPtr
_1c:__Z50CanvasRenderer_CUSTOM_SplitUIVertexStreamsInternalP12Il2CppObjectS0_S0_S0_S0_S0_S0_
xdi:_Scrollbar_OnBeginDrag_m574021735
fRi:__Z68RuntimeInvoker_Boolean_t3825574718_Rect_t3681755626_SByte_t454417549PK10MethodInfoPvPS2_
Kvh:_MonoEvent_GetObjectData_m4084431065
Yuc:__ZN8JSONRead8TransferIyEEvRT_PKc17TransferMetaFlagsb
KFb:__Z18Transfer_BlittableI14SafeBinaryReadLb0EtEvRK29SerializationCommandArgumentsR31RuntimeSerializationCommandInfo
Lji:_U3CGetEnumeratorU3Ec__Iterator0_MoveNext_m2489948797_gshared
lWe:_Array_BinarySearch_TisIl2CppObject_m2457435347_gshared
$U:__ZNK20DynamicHeapAllocatorI17LowLevelAllocatorE8ContainsEPKv
P5d:_EncoderReplacementFallbackBuffer_Fallback_m4111893059
Vgb:__ZNK13Lz4Compressor14CompressMemoryEPKvjPvPj16CompressionLevel
Vzd:__ZN6il2cpp2vm14PlatformInvoke36MarshalCppStringToCSharpStringResultEPKc
u$a:__ZN8Material23GetStencilWriteMaterialEv
OSf:_Math_Log_m3325929366
Oba:__ZNK9ShaderLab11ShaderState16ApplyShaderStateEjPK19ShaderPropertySheetRK17ShaderPassContextP6ShaderPNS_4PassEPNS_11SubProgramsE
Dmj:_Assertion__ctor_m1169129098
qib:__ZN10TagManager8TransferI24GenerateTypeTreeTransferEEvRT_
Aci:_ReflectionMethodsCache_get_Singleton_m2330935729
Hsg:_InterpreterFactory_get_GroupCount_m1785101782
jde:_CharEnumerator_Clone_m3844021309
R_f:_BlockProcessor_Initialize_m3476609078
W7b:__Z35AllocExtractMeshComponentFromScriptRK4Mesh30InternalScriptingShaderChannel34InternalScriptingVertexChannelTypei
Zhb:__ZN10TagManager23VirtualRedirectTransferER24GenerateTypeTreeTransfer
JAf:_ReadOnlyCollection_1_System_Collections_IList_Remove_m688362945_gshared
Apa:__ZL23stbir__filter_trapezoidff
Crg:_Key_GetHashCode_m345804220
ZDh:_TimeSpan_FromHours_m2521548378
Rue:_Double_System_IConvertible_ToUInt16_m286326038
EH:__ZNK13AudioListener26GetTypeInfoVirtualInternalEv
$Va:__ZN23ScriptableRenderContextD2Ev
vBa:__ZN4crnd12crn_unpacker11unpack_dxt1EPPhjjjjjj
Sbi:_Shadow__ctor_m924057531
o2f:_PKCS12__ctor_m3492967071
Mqd:__ZN15dense_hashtableINSt3__24pairIK10KeyWrapperINS1_IPK10MethodInfoP11Il2CppClassEEEjEES9_17ReflectionMapHashIS8_EN14dense_hash_mapIS9_jSD_NS9_14EqualsComparerINS0_8equal_toIS8_EEEENS0_9allocatorISB_EEE9SelectKeyESI_SK_E15insert_noresizeERKSB_
CZc:__Z32TextGenerator_CUSTOM_Dispose_cppP12Il2CppObject
eYe:_Array_InternalArray__IndexOf_TisContactPoint2D_t3659330976_m3961643896_gshared
iyd:__ZN6il2cpp6icalls8mscorlib6System19ExtractWidenedValueE14Il2CppTypeEnumPv
Qri:_InternalEnumerator_1_get_Current_m2198364332_gshared
bPd:_GC_invoke_finalizers
Kxg:__ZL54InAttribute_t1394050551_CustomAttributesCacheGeneratorP21CustomAttributesCache
oti:_InternalEnumerator_1_get_Current_m1715820327_gshared
FAb:__ZNSt3__26vectorIN30RuntimeInitializeOnLoadManager9ClassInfoE13stl_allocatorIS2_L18MemLabelIdentifier12ELi16EEE6assignINS_11__wrap_iterIPS2_EEEENS_9enable_ifIXaasr21__is_forward_iteratorIT_EE5valuesr16is_constructibleIS2_NS_15iterator_traitsISC_E9referenceEEE5valueEvE4typeESC_SC_
UFb:__Z18Transfer_BlittableI14SafeBinaryReadLb0E8BitFieldEvRK29SerializationCommandArgumentsR31RuntimeSerializationCommandInfo
dth:_OpCode_GetHashCode_m2974727122_AdjustorThunk
Qph:_EnumBuilder_get_BaseType_m63295819
Nbe:_Byte_ToString_m1309661918_AdjustorThunk
Cwi:_Comparer_1_System_Collections_IComparer_Compare_m1153499515_gshared
BMf:_Directory_CreateDirectoriesInternal_m2817848291
BJf:_Int32_System_IConvertible_ToInt64_m3790029067
Pmi:_InternalEnumerator_1_System_Collections_IEnumerator_get_Current_m3546309124_gshared
o4a:__ZNK10GameObject25QueryComponentByExactTypeEPKN5Unity4TypeE
rAh:_UTF7Encoding_GetDecoder_m396865028
Bfa:__ZNK9ShaderLab22ShaderStencilStateDesc17ToGfxStencilStateEPK19ShaderPropertySheetS3_RK14GfxRasterStateR15GfxStencilState
_$f:_SmallXmlParser_ReadContent_m4038164984
ztj:_X509Extension_WriteLine_m364247613
XRc:_tt_cmap0_char_next
Zab:__ZN15GUIEventManager10QueueEventERK10InputEvent
gCa:__Z15DecodeBC6HBlockP9HDRColorAPKh
SJf:_Int32_Equals_m753832628_AdjustorThunk
iPd:_GC_malloc_uncollectable
xge:_CollectionBase_System_Collections_IList_get_IsReadOnly_m2883787483
nab:__ZNK16MemoryFileSystem6ParentERK13FileEntryDataRN4core12basic_stringIcNS3_20StringStorageDefaultIcEEEE
zBb:__ZN20ArchiveStorageHeader13IsArchiveFileER12FileAccessor
m7:__ZN15LODGroupManagerD2Ev
gmh:_Assembly_IsDefined_m2841897391
$Aj:_Nullable_1_ToString_m1238126148_gshared
tKa:__ZN12IFileAdapter9SetLengthER13FileEntryDatay
ZLd:__GLOBAL__sub_I_Assembly_cpp_7343
SOe:_InputField_set_lineType_m3589045448
Fic:__Z39SortingLayer_CUSTOM_GetLayerValueFromIDi
ke:_Mix_PlayMusic
ZWc:_cff_cmap_encoding_init
h9h:_EqualityComparer_1_System_Collections_IEqualityComparer_GetHashCode_m2460068977_gshared
Qla:__ZN19RuntimeSceneManager24PrepareNewBootstrapSceneEv
_6d:_Array_GetLongLength_m3005360186
hqd:__ZNK15dense_hashtableINSt3__24pairIK10KeyWrapperIPK10Il2CppTypeEjEES6_N6il2cpp8metadata14Il2CppTypeHashEN14dense_hash_mapIS6_jSB_NS6_14EqualsComparerINSA_26Il2CppTypeEqualityComparerEEENS0_9allocatorIS8_EEE9SelectKeyESF_SH_E12test_deletedEj
y3a:__ZN10SpookyHash7Hash128EPKvjPyS2_
Z0a:__ZL60CombineDirectionalShadowCasterCullingIndexListsAndDestroyJobP20ShadowCullingJobData
_Hf:_Guid_ToString_m3858592945_AdjustorThunk
Soi:_InternalEnumerator_1_get_Current_m3206960238_gshared
Qdg:_TlsClientCertificate_ProcessAsSsl3_m3634449507
j$d:_Hash_GetData_m3416116641
Elh:_HMAC_get_Block_m1367204253
XE:__Z104Register_UnityEngine_Experimental_Director_AnimatorControllerPlayable_INTERNAL_CALL_GetLayerNameInternalv
jUb:__ZN9ShaderLab18SerializedPropertyC2ERKS0_
yUc:_cff_driver_init
kJe:_Dropdown_AlphaFadeList_m511547679
dwb:__ZN14SpriteRenderer10SmartResetEv
Ayh:_ResourceReader_LoadResourceValues_m1346096618
EXe:_Array_InternalArray__IndexOf_TisDateTime_t693205669_m2327436641_gshared
REf:_NumberFormatter_RoundDecimal_m176606570
dtg:_Interval_Contains_m3209397137_AdjustorThunk
$rb:__ZN16SpriteRenderData8TransferI14SafeBinaryReadEEvRT_
Hme:_Convert_ToDouble_m1714698801
RPa:_init_block
FBi:__Z88RuntimeInvoker_Int32_t2071877448_Il2CppObject_Il2CppObject_Il2CppObject_SByte_t454417549PK10MethodInfoPvPS2_
_ri:_InternalEnumerator_1_get_Current_m35328337_gshared
Pkd:__ZN6il2cpp6icalls8mscorlib6SystemL21CollectTypePropertiesINS_5utils10functional6FilterINSt3__212basic_stringIcNS7_11char_traitsIcEENS7_9allocatorIcEEEENS4_11StringUtils21CaseSensitiveComparerEEEEEvP11Il2CppClassjRKT_SI_RNS7_6vectorINS2_12PropertyPairENSB_ISN_EEEE
a4b:__ZN6CameraC2E18MemLabelIdentifier18ObjectCreationMode
BDj:_UnityAction_1_Invoke_m3061904506_gshared
kLf:_Int64_ToString_m1544341651
l$a:__ZL31SetRenderStateForStencilMarkingR9GfxDeviceR17ShaderPassContextjj
dNa:__ZN20ArchiveStorageReader20FillChunkCachedBlockEPNS_11CachedBlockE
F3c:__ZNSt3__26__treeINS_12__value_typeIN4core12basic_stringIcNS2_20StringStorageDefaultIcEEEEN11UnityEngine9Analytics15UserCustomEvent11CustomValueEEENS_19__map_value_compareIS6_SB_NS_4lessIS6_EELb1EEE13stl_allocatorISB_L18MemLabelIdentifier5ELi16EEE7destroyEPNS_11__tree_nodeISB_PvEE
ZM:__ZN10AudioMixer16ResumeProcessingEv
Ttf:_Collection_1_ConvertItem_m2559468638_gshared
xHb:__ZNSt3__26vectorI17AnimationCurveTplIfE13stl_allocatorIS2_L18MemLabelIdentifier1ELi16EEE7reserveEj
oCe:_PointerEventData_get_dragging_m220490640
MSf:_Math_Ceiling_m614624719
t6f:_BigInteger_op_Inequality_m4286929594
B9g:__ZL80CanvasScaler_t2574720772_CustomAttributesCacheGenerator_m_ReferencePixelsPerUnitP21CustomAttributesCache
a0d:_SecurityException__ctor_m230238597
C0c:__ZN2UI13CanvasManager21EmitGeometryForCameraEP6Camera
Nd:_glClearColor
MEf:_CustomInfo_Parse_m3558073058
n6e:_KeyValuePair_2_get_Value_m1916631176_gshared
hVb:__ZN9ShaderLab16SerializedTagMap8TransferI19StreamedBinaryWriteILb0EEEEvRT_
i2h:_Dictionary_2_InitArrays_m3810830177_gshared
lHc:__ZN17Physics2DSettings16CheckConsistencyEv
zyd:__ZN6il2cpp6icalls8mscorlib6System9Threading6Thread25SetCachedCurrentUICultureEP12Il2CppThreadP12Il2CppObject
h1j:_glIsVertexArray__wrapper
Xdh:_RemotingServices_DisposeIdentity_m266836454
pXd:_RSAPKCS1KeyExchangeFormatter_SetRSAKey_m3575964424
tBj:_Predicate_1_BeginInvoke_m2336395304_gshared
LMc:_UNITY_FT_Bitmap_Convert
kle:_DateTimeUtils_GetStandardPattern_m4198947977
_0a:__Z22CullDirectionalShadowsR9IndexListPK9SceneNodePK4AABBR22DirectionalCullContext
Q4e:_Array_InternalArray__get_Item_TisUInt16_t986882611_m2599215710_gshared
gxi:_Enumerator_System_Collections_IEnumerator_Reset_m2828524109_gshared
qnh:_Default_IsArrayAssignable_m3862319150
khd:__ZN15dense_hashtableINSt3__24pairIK10KeyWrapperIPK11Il2CppClassEPKcEES6_N6il2cpp5utils11PointerHashIS3_EEN14dense_hash_mapIS6_S9_SE_NS6_14EqualsComparerINS0_8equal_toIS5_EEEENS0_9allocatorISA_EEE9SelectKeyESJ_SL_E4findERS7_
uEf:_NumberFormatter_FastAppendDigits_m2324805728
TS:__ZN11UnityEngine15CloudWebService14RestDownloader7OnAbortEv
Ogh:_FormatterServices_GetUninitializedObject_m1786947853
T$c:__ZN2UI6Canvas16UpdateBatchOrderEv
Jma:__ZN13MonoBehaviour26WillUnloadScriptableObjectEv
XYc:_UNITY_FT_Get_Glyph_Name
VSa:__Z13VFormatBufferPciPKcPi
cLb:__Z19TransferField_ArrayI24GenerateTypeTreeTransfer27Converter_SimpleNativeClassI8GradientEEvRK23StaticTransferFieldInfoR31RuntimeSerializationCommandInfoRT0_
gdj:_ResourceEnumerator_get_Value_m2384033057
jei:_ScrollRect_get_vertical_m3957330783
CUd:_KeyedHashAlgorithm__ctor_m2868676404
WQ:__ZN11UnityEngine15CloudWebService16SessionContainer16MarkAsDispatchedERKN4core12basic_stringIcNS2_20StringStorageDefaultIcEEEE
wHc:__ZN17Physics2DSettings8TransferI19StreamedBinaryWriteILb0EEEEvRT_
Rjc:__Z26Transform_CUSTOM_IsChildOfP12Il2CppObjectS0_
a1i:_AnimatorStateInfo_IsTag_m1529621725
ZOh:_GUIStyle__ctor_m2210993436
pZf:_BigInteger_op_Subtraction_m2941563507
V2b:__ZN13ProduceHelperI11PreloadDataLb0EE7ProduceE18MemLabelIdentifier18ObjectCreationMode
d_h:_Enumerator_Reset_m3129803197_gshared
tua:__ZNK13GfxDeviceGLES11GetViewportEv
Yfa:__ZNK9ShaderLab11ShaderState34ShouldRemoveAnyUnsupportedProgramsEv
UYc:_UNITY_tt_face_load_cvt
JSa:__ZN19ShaderPropertySheet29PreallocateArrayUninitializedEN9ShaderLab16FastPropertyNameENS_12PropertyTypeEj
Rfj:_CrossAppDomainData__ctor_m899931420
eid:__ZL32InitializeCustomAttributesCachesPv
bLa:__ZN20ArchiveStorageReaderD0Ev
LRb:__ZN6Shader23VirtualRedirectTransferER19StreamedBinaryWriteILb0EE
bee:_ArrayListWrapper__ctor_m3783588291
Djj:_MethodCall_get_MethodBase_m688041003
Mob:__ZNK9Texture2D26GetTypeInfoVirtualInternalEv
rkj:_Match_NextMatch_m1088868049
fAi:__Z63RuntimeInvoker_Il2CppObject_Int16_t4041245914_Int16_t4041245914PK10MethodInfoPvPS2_
Aii:_Text_OnPopulateMesh_m835520031
h5f:_ArgumentOutOfRangeException__ctor_m15523695
Axb:__ZNSt3__214__split_bufferI9InputAxisRNS_9allocatorIS1_EEED2Ev
o8i:_InvokableCall_add_Delegate_m1598143083
pX:__ZNK20LocalFileSystemPosix20GetApplicationFolderEv
YQ:__ZN11UnityEngine15CloudWebService14DataDispatcher31SetupSessionContainerToDispatchEv
Fkc:__Z68Register_UnityEngine_Object_INTERNAL_CALL_Internal_InstantiateSinglev
gRb:__Z29Transfer_Blittable_ArrayFieldI18StreamedBinaryReadILb0EE8Vector3fEvRT_R9ArrayInfoRK23StaticTransferFieldInfo
dUe:_Array_InternalArray__ICollection_Remove_TisResourceInfo_t3933049236_m1768394498_gshared
Y8f:_RSAManaged_get_KeySize_m3478823737
Vbi:_Shadow_ApplyShadowZeroAlloc_m2132231878
Mfa:__ZN9ShaderLab11shaderprops9GetVectorEPK19ShaderPropertySheetS3_NS_16FastPropertyNameE
FI:__ZN4FMOD12ChannelGroup10getDSPHeadEPPNS_3DSPE
k7e:_Enumerator_System_Collections_IEnumerator_Reset_m610822832_gshared
cCc:__ZN10Collider2D9SetOffsetERK8Vector2f
WH:__ZN12AudioManager17MainThreadCleanupEv
Yzh:_UTF32Encoding_GetByteCount_m77034086
OZa:__ZNK6Camera18ScreenToWorldPointERK8Vector3f
myd:__ZN6il2cpp6icalls8mscorlib6System9Threading6Thread11GetDomainIDEv
qzh:_UnicodeEncoding_GetByteCount_m3828694214
ULa:__ZN17ArchiveFileSystemD0Ev
XBh:_Thread_get_CurrentContext_m3123598616
Cqg:_X509ChainStatus_t4278378721_marshal_pinvoke_back
XZa:__ZN14qsort_internal5QSortIP20ShadowCasterSortDatai26ShadowCasterSortDataSorterEEvT_S4_T0_T1_
BBd:__ZNK15dense_hashtableINSt3__24pairIK10KeyWrapperIP14Il2CppIUnknownEjEES5_N6il2cpp5utils11PointerHashIS3_EEN14dense_hash_mapIS5_jSB_NS5_14EqualsComparerINS0_8equal_toIS4_EEEENS0_9allocatorIS7_EEE9SelectKeyESG_SI_E3endEv
sHb:__Z22TransferField_NonArrayI14SafeBinaryRead27Converter_SimpleNativeClassI8GradientEEvRK23StaticTransferFieldInfoR31RuntimeSerializationCommandInfoRT0_
Gf:_emscripten_glBufferData
T_:__ZNK18ScriptingArguments8GetCountEv
Kf:_glUniform3iv
qNe:_Image_OnAfterDeserialize_m457193290
OPj:___fseeko
DEc:__ZN20SpriteTilingProperty8TransferI18StreamedBinaryReadILb0EEEEvRT_
tCh:_Thread_GetHashCode_m2038641494
IRb:__ZNK6Shader26GetTypeInfoVirtualInternalEv
UYe:_Array_InternalArray__ICollection_Add_TisInt16_t4041245914_m321723604_gshared
fCh:_Thread_SetCachedCurrentUICulture_m1504514384
wTh:_Matrix4x4_ToString_m1982554457
sQj:_fwrite
Yye:_BaseInput_get_compositionCursorPos_m3148596268
Hye:_AxisEventData_set_moveVector_m3227339885
qTh:_Matrix4x4_GetHashCode_m3649708037_AdjustorThunk
k0h:_Enumerator_MoveNext_m1212551889_gshared
ZCb:__ZN13MonoBehaviourD0Ev
M3f:_X509CertificateEnumerator_Reset_m3421070487
W$c:__ZN2UI6Canvas18UpdateEventIndexesEv
gde:_CharEnumerator_System_Collections_IEnumerator_get_Current_m1338581333
a5d:_DecoderFallback__cctor_m215821245
MDf:_Func_2_Invoke_m2968608789_gshared
Tze:_EventSystem_set_current_m1323649628
Xhc:__Z50RectTransform_CUSTOM_INTERNAL_set_anchoredPositionP12Il2CppObjectRK13Vector2fIcall
$Tb:__ZNSt3__26vectorIN9ShaderLab19SerializedSubShaderENS_9allocatorIS2_EEE6resizeEj
pHf:_GuidParser_Reset_m3389485794
I7a:__ZN4FileC2Ev
Hhj:_Context_GetNamedDataSlot_m372993642
pP:__ZN11AudioSource15InitializeClassEv
nph:_DerivedType_GetAttributeFlagsImpl_m876862795
Sqd:__ZN15dense_hashtableINSt3__24pairIK10KeyWrapperINS1_IPK10MethodInfoP11Il2CppClassEEEjEES9_17ReflectionMapHashIS8_EN14dense_hash_mapIS9_jSD_NS9_14EqualsComparerINS0_8equal_toIS8_EEEENS0_9allocatorISB_EEE9SelectKeyESI_SK_E12maybe_shrinkEv
zqa:__ZN14BatchAllocator16AllocateInternalEPPvijjj
K_b:__Z13RegisterClassI6SpriteEvv
dNd:_min_bytes_allocd
IOb:__ZN17AnimationCurveTplIfE15InvalidateCacheEv
Bgc:__Z29Mesh_Get_Custom_PropCanAccessP12Il2CppObject
Esb:__ZN6Sprite8TransferI19StreamedBinaryWriteILb0EEEEvRT_
pVh:_Object_get_hideFlags_m4158950869
ZKf:_Int64_Parse_m4214159959
iFj:_IndexedSet_1_Contains_m4188067325_gshared
BIc:__ZN10Collider2D27UpdateColliderMaterialStateEv
X4g:__ZL58BaseInputModule_t1295781545_CustomAttributesCacheGeneratorP21CustomAttributesCache
cC:__ZN7mecanim9animation18ControllerConstant15InitializeClassEv
Ffa:__ZNK9ShaderLab6TexEnv11PrepareDataEiiP15GfxTextureParam
Exe:_CompareInfo_internal_compare_managed_m1173317301
Bo:FUNCTION_TABLE_iiiiiiiffiiiiiiiiiffffiiii
BOe:_InputField_get_customCaretColor_m2991404035
Cpe:_DateTime_System_IConvertible_ToInt32_m2789391054
nK:__ZN29AudioEffectInternalDefinition9CreateDSPEPN4FMOD6SystemEPvPfPP25UnityAudioSpatializerData
Tu:__ZN7mecanim12statemachine20EvaluateStateMachineERKNS0_20StateMachineConstantERKNS0_17StateMachineInputERNS0_18StateMachineOutputERNS0_18StateMachineMemoryERNS0_21StateMachineWorkspaceE
pyj:_Vector3__ctor_m2720820983_AdjustorThunk
Vdg:_SslHandshakeHash_CreateSignature_m3001618400
_La:__ZN17ArchiveFileSystem5CloseER13FileEntryData
TNa:__ZZ23InitPlayerLoopCallbacksvEN35PostLateUpdateBatchModeUpdatestruct7ForwardEv
__f:_CryptoConvert_ToCapiPrivateKeyBlob_m850465939
bId:__ZN6il2cpp2os6Thread5SleepEjb
mOb:__ZN18StreamedBinaryReadILb1EE21TransferSTLStyleArrayIN4core12basic_stringIcNS2_20StringStorageDefaultIcEEEEEEvRT_17TransferMetaFlags
Z_:__ZN15DirectorManagerC2Ev
zse:_Decimal_Add_m1535064574
DWj:_emscripten_glUniform3f__wrapper
Ln:FUNCTION_TABLE_viiiifii
O$i:_CustomEventData_Add_m2190835956
Nqj:_SubjectAltNameExtension_Decode_m3676245240
IKd:__ZN15dense_hashtableINSt3__24pairIK10KeyWrapperIPK19Il2CppGenericMethodEP10MethodInfoEES6_N6il2cpp8metadata23Il2CppGenericMethodHashEN14dense_hash_mapIS6_S9_SD_NS6_14EqualsComparerINSC_26Il2CppGenericMethodCompareEEENS0_9allocatorISA_EEE9SelectKeyESH_SJ_E4findERS7_
XMh:_RectOffset_set_right_m1671272302
PIf:_Int16_Parse_m4244889614
eib:__ZN10TagManager23AddDefaultLayerIfNeededEv
Jjb:__ZN10FlareLayer12AddToManagerEv
Stf:_Collection_1_IsValidItem_m1082009684_gshared
fLd:__ZN6il2cpp6icalls8mscorlib6System10Reflection10MethodBase31GetMethodFromHandleInternalTypeE12Il2CppIntPtrS5_
zWd:_RIPEMD160Managed_HHH_m1385141959
ixd:__ZNK15dense_hashtableINSt3__24pairIK10KeyWrapperINS1_IP11Il2CppClassjEEES4_EES6_N6il2cpp8metadata14ArrayClassHashEN14dense_hash_mapIS6_S4_SB_NS6_14EqualsComparerINSA_17ArrayClassCompareEEENS0_9allocatorIS8_EEE9SelectKeyESF_SH_E12test_deletedEj
_Ng:__ZL79X509Chain_t777637347_CustomAttributesCacheGenerator_X509Chain_Build_m2341271288P21CustomAttributesCache
iyb:__ZN13BuildSettings23VirtualRedirectTransferER24GenerateTypeTreeTransfer
UKb:__ZN24GenerateTypeTreeTransfer21TransferSTLStyleArrayINSt3__26vectorI8GUIStyle13stl_allocatorIS3_L18MemLabelIdentifier1ELi16EEEEEEvRT_17TransferMetaFlags
d$:__ZZN15DirectorManager15InitializeClassEvEN26UpdateDirectorUpdatestruct7ForwardEv
kYa:__Z16ApplySHConstantsI28ApplyBuiltinInstancePropertyEvRT_RK20SphericalHarmonicsL2
Ktc:__Z18Transfer_BlittableI8JSONReadLb1E8Vector2fEvRK29SerializationCommandArgumentsR31RuntimeSerializationCommandInfo
_Ma:__ZN20ArchiveStorageReader15ReadFromStorageEyyPvPy
Zha:__ZN8Material43AddDefaultShaderPropertiesToSavedPropertiesEv
lGc:__ZNSt3__27__sort4IRN14Raycast2DQuery31RaycastHitsByFractionComparitorEP12RaycastHit2DEEjT0_S6_S6_S6_T_
iXa:__Z19DoPrePassRenderLoopR17RenderLoopContextR13dynamic_arrayI16RenderObjectDataLj4EES4_RK11CullResultsRP13RenderTextureSA_Pb
wV:__ZN13MemoryManager12LowLevelFreeEPvj
g$c:__ZN2UI14CanvasRenderer23VirtualRedirectTransferER24GenerateTypeTreeTransfer
HOa:__Z16PresentAfterDrawN9GfxDevice11PresentModeE
SAa:__ZN10DynamicVBO19FillQuadIndexBufferER21DynamicVBOChunkHandle
txj:_Transform_INTERNAL_CALL_TransformPoint_m4114689647
eLd:__ZN6il2cpp2vm6String8NewUtf16ERKNS_5utils10StringViewIDsEE
OYj:_glGenFramebuffers__wrapper
m$j:_glBindBufferBase__wrapper
vkh:_DESCryptoServiceProvider__ctor_m3979608654
vR:__ZN9JSONWrite8TransferIyEEvRT_PKc17TransferMetaFlags
onh:_Default_CompareCloserType_m1367126249
ZAj:_Nullable_1_GetHashCode_m1791015856_gshared
DXa:__ZN22MotionVectorRenderLoop16PerformRenderingER8JobFence
nlf:_List_1_Find_m1809770055_gshared
s$f:_DSAManaged_ImportParameters_m987307570
BS:__ZN11UnityEngine15CloudWebService18RestFileDownloader13OnReceiveDataEPKvj
UXc:_UNITY_TT_RunIns
XXc:_Current_Ppem
Qai:_StencilMaterial_Add_m2540251346
hfi:_ScrollRect_CalculateOffset_m1659273054
F_f:_ASN1Convert_ToInt32_m2828871616
Qmg:_AsnEncodedData__ctor_m1211934482
Nni:_InternalEnumerator_1_System_Collections_IEnumerator_get_Current_m1025729343_AdjustorThunk
xVj:dynCall_iiiiiiiii
jZ:__ZL25InitializeUnityWebStreamsPv
ERb:__ZN6ShaderD0Ev
kDd:__ZN6il2cpp2gc8GCHandle9GetTargetEj
ate:_Decimal_ToString_m759431975_AdjustorThunk
VQa:__ZN25CameraStackRenderingState18EndStereoRenderingEv
LW:__ZN20LocalFileSystemPosix9SetLengthER13FileEntryDatay
ZJe:_FontData_set_bestFit_m1987821379
qve:_Enum__cctor_m3214832791
Vig:_HybridDictionary_set_Item_m4049906479
hli:_InternalEnumerator_1_System_Collections_IEnumerator_get_Current_m1335784110_AdjustorThunk
n2d:_String_IndexOf_m1887352430
bzb:__ZN26PlayerSettingsSplashScreen8TransferI24GenerateTypeTreeTransferEEvRT_
BLe:_Graphic_UnregisterDirtyMaterialCallback_m819829270
Vmh:_AssemblyName_SetPublicKey_m1491402438
Eg:_glScissor
$7a:__ZNSt3__26vectorI10vector_mapIiiNS_4lessIiEE13stl_allocatorINS_4pairIiiEEL18MemLabelIdentifier37ELi16EEES4_IS9_LS7_37ELi16EEE21__push_back_slow_pathIKS9_EEvRT_
Xkh:_DSACryptoServiceProvider_ExportParameters_m2503144019
rmh:_Assembly_GetName_m790410837
fQ:__Z6simd4fIN6detail9FourTupleEE13Simd4fFactoryIT_ERK13Simd4iFactoryIS3_E
Iva:__ZN13GfxDeviceGLES21RegisterNativeTextureE9TextureIDi16TextureDimension
Eic:__Z44Register_UnityEngine_Material_DisableKeywordv
nn:FUNCTION_TABLE_iiiiiiif
fLh:_Gradient_Init_m4156899649
R4d:_DecoderExceptionFallback__ctor_m3330792769
hni:_InternalEnumerator_1_System_Collections_IEnumerator_get_Current_m4259662004_gshared
K$j:_emscripten_glUniform4fv__wrapper
jn:FUNCTION_TABLE_iiiiiiii
XVd:_RijndaelManaged_CreateEncryptor_m315737265
AUf:_MonoType_HasElementTypeImpl_m1040892148
Ete:_DelegateEntry__ctor_m2996191962
Fvi:_DefaultComparer_Compare_m2804119458_gshared
o0e:_Array_InternalArray__set_Item_TisUInt16_t986882611_m59367493_gshared
vKc:__ZN19ControllerHitReportD2Ev
Ebj:_AnimatorControllerPlayable_INTERNAL_CALL_GetNextAnimatorClipInfoInternal_m4165249349
K0i:_Animator_SetTriggerString_m2002790359
Aja:__ZN6prcoreL12RemapGenericI11TexFormatI817TexFormatARGB4444EEvPKNS_9InnerInfoE
LGj:_GenericEqualityComparer_1_Equals_m2469044952_gshared
Wpe:_DateTime_System_IConvertible_ToUInt64_m2788957482
xTc:_Bezier_Up
_zj:_SymmetricTransform_CheckInput_m1287204652
xFh:_Type_GetProperty_m1510204374
vge:_CollectionBase_System_Collections_IList_Remove_m2931078938
Tlj:_Parser__ctor_m1719025083
eFd:__ZN15dense_hashtableINSt3__24pairIK10KeyWrapperINS1_IPKcS4_EEEiEES6_24NamespaceAndNamePairHashN14dense_hash_mapIS6_iS9_NS6_14EqualsComparerI26NamespaceAndNamePairEqualsEENS0_9allocatorIS8_EEE9SelectKeyESD_SF_EC2ERKSI_j
Eei:_ScrollRect_set_horizontalScrollbarVisibility_m3790647510
zKh:_Font_InvokeTextureRebuilt_Internal_m2007522718
MZ:__ZN15DirectorManager12RegisterJobsEP13PlayableGraph
fnc:__Z38Event_CUSTOM_Internal_GetMousePositionP12Il2CppObjectP13Vector2fIcall
ZS:__ZN11UnityEngine15CloudWebService14DataDispatcher10InitializeERKN4core12basic_stringIcNS2_20StringStorageDefaultIcEEEEPvjRNS0_18ICloudJobSchedulerE
d9c:__ZN22CrashReportingSettingsC2Ev
dWc:_cff_free_glyph_data
Gsc:__ZN9JSONWrite8TransferI13dynamic_arrayIdLj8EEEEvRT_PKc17TransferMetaFlags
OT:__ZN11UnityEngine15CloudWebService14DataDispatcher17PlayerLoopHandlerEv
Ix:__ZN7mecanim13ValueArraySubERKNS_10ValueArrayERS0_PKNS_14ValueArrayMaskE
yuj:_Sprite_get_pixelsPerUnit_m1785791149
wse:_Decimal_System_IConvertible_ToUInt64_m2457277336
p5c:__ZN11UnityEngine7Connect15AppRunningEventC2Ejjjj
RYb:__Z15tessGetVerticesP14TESStesselator
E3:__Z26GetManagedAttributeManagerv
e_h:_Enumerator_System_Collections_IEnumerator_Reset_m3225937576_AdjustorThunk
SWf:_MSCompatUnicodeTable_Category_m3854768527
$Td:__ZN6il2cpp6icalls8mscorlib6System8DateTime16GetTimeMonotonicEv
ASa:__ZN19ComputeShaderKernelC2ERKS_
HCh:_Timer__cctor_m3277205579
avb:__ZN4Mesh14ClearSkinCacheEv
zLa:__ZNK12HandlerChain12LastModifiedERK13FileEntryData
asc:__Z18Transfer_BlittableI9JSONWriteLb0EjEvRK29SerializationCommandArgumentsR31RuntimeSerializationCommandInfo
wVb:__ZL15GetIndexForNameRNSt3__23mapIN4core12basic_stringIcNS1_20StringStorageDefaultIcEEEEiNS_4lessIS5_EENS_9allocatorINS_4pairIKS5_iEEEEEERSA_
Tg:__exit
YL:__ZN11AudioSource13AwakeFromLoadE17AwakeFromLoadMode
lU:__ZNK13EmscriptenWWW6GetETAEv
xsj:_X509CertificateCollection_AddRange_m3644738604
L8c:__ZN11UnityEngine7Connect13ConnectConfigC2Ev
rcb:__ZL31FindActiveTransformWithPathImplPKcR10GameObjectb
I_f:_BitConverterLE_UShortFromBytes_m2795078058
CXj:_glViewport__wrapper
NTj:dynCall_viffi
G1g:__ZL68SerializePrivateVariables_t2241034664_CustomAttributesCacheGeneratorP21CustomAttributesCache
H$h:_Transform_1_Invoke_m2770612589_gshared
DVj:b4
GVj:b5
HVj:b6
IVj:b7
zVj:b0
AVj:b1
BVj:b2
qub:__ZN4Mesh8TransferI24GenerateTypeTreeTransferEEvRT_
ptc:__ZN9JSONWrite8TransferI13dynamic_arrayI10ColorRGBAfLj4EEEEvRT_PKc17TransferMetaFlags
JVj:b8
KVj:b9
fjd:__ZN6il2cpp2vm21ThreadPoolCompartmentC2Ev
zha:__Z14resize_trimmedINSt3__26vectorIN4core12basic_stringIcNS2_20StringStorageDefaultIcEEEE13stl_allocatorIS6_L18MemLabelIdentifier1ELi16EEEEEvRT_j
UQ:__ZN11UnityEngine15CloudWebService16SessionContainer13DeleteArchiveERKN4core12basic_stringIcNS2_20StringStorageDefaultIcEEEE
Qde:_ArrayList_CopyTo_m1348662971
nTc:_Vertical_Sweep_Step
