Ec:_glClearStencil
jZe:_Array_InternalArray__ICollection_Add_TisMark_t2724874473_m1613484179_gshared
J6g:__ZL80Graphic_t2426225576_CustomAttributesCacheGenerator_Graphic_OnFillVBO_m1723985607P21CustomAttributesCache
Eih:_RuntimeTypeHandle_GetObjectData_m3567098501
VId:__ZN6il2cpp2vm5Array13GetByteLengthEP11Il2CppArray
Mci:_Raycast3DCallback_BeginInvoke_m3028685017
jEg:__ZL61IRemotingFormatter_t4112065742_CustomAttributesCacheGeneratorP21CustomAttributesCache
EF:__Z102Register_UnityEngine_Experimental_Director_AnimatorControllerPlayable_INTERNAL_CALL_ResetTriggerStringv
oDf:_Comparison_1_Invoke_m353639462_gshared
cIh:_UInt64_System_IConvertible_ToDecimal_m4205696037
PKe:_GraphicRegistry_RegisterGraphicForCanvas_m2284226562
QBa:__Z21SourceMipLevelForBlitiiii
tlb:__ZN31CanvasBatchIntermediateRenderer15AddAsRenderNodeER15RenderNodeQueueRK20DeprecatedSourceData
irh:_GenericTypeParameterBuilder_GetEvent_m4210567427
PRg:__ZL51GUILayer_t3254902478_CustomAttributesCacheGeneratorP21CustomAttributesCache
xje:_Enumerator_get_Key_m2908810861
uYi:__Z55RuntimeInvoker_ILTokenInfo_t149559338_Int32_t2071877448PK10MethodInfoPvPS2_
H5c:__ZN11UnityEngine7Connect14AppUpdateEventD0Ev
KU:__ZdlPv
AD:__ZN23AnimationOffsetPlayable11SetRotationE11Quaternionf
zB:__ZN11UnityEngine9Animation28GenericAnimationBindingCacheD2Ev
qEg:__ZL68RemotingSurrogateSelector_t2821375126_CustomAttributesCacheGeneratorP21CustomAttributesCache
p8h:_EqualityComparer_1__cctor_m968537130_gshared
E9e:_List_1_System_Collections_IList_IndexOf_m39706221_gshared
ame:_Decimal_op_Implicit_m2971610317
awj:_TextGenerator_get_lineCount_m4287181941
zLe:_Graphic_UnregisterDirtyVerticesCallback_m1526739224
X3a:__Z18RestoreRenderStateR20CameraRenderOldStateR17ShaderPassContext
dfe:_SynchronizedArrayListWrapper_get_Item_m3309425850
ENb:__Z18Transfer_BlittableI18StreamedBinaryReadILb1EELb1E5RectTIfEEvRK29SerializationCommandArgumentsR31RuntimeSerializationCommandInfo
oKb:__Z18Transfer_BlittableI24GenerateTypeTreeTransferLb0E11ColorRGBA32EvRK29SerializationCommandArgumentsR31RuntimeSerializationCommandInfo
B3:__Z25scripting_class_from_name17ScriptingImagePtrPKcS1_
fvd:__ZN14dense_hash_mapI10KeyWrapperINSt3__24pairIPK12PropertyInfoP11Il2CppClassEEEj17ReflectionMapHashIS8_ENS9_14EqualsComparerINS1_8equal_toIS8_EEEENS1_9allocatorINS2_IKS9_jEEEEE15set_deleted_keyERSH_
dEb:__Z29scripting_class_enum_basetype17ScriptingClassPtr
ILe:_GraphicRaycaster_get_ignoreReversedGraphics_m2757724367
nZj:_emscripten_glDeleteBuffers__wrapper
Vrh:_GenericTypeParameterBuilder_GetHashCode_m867619899
tXi:__Z79RuntimeInvoker_Void_t1841601450_Int32_t2071877448_ParameterModifier_t1820634920PK10MethodInfoPvPS2_
hEh:_TimeSpan_ToString_m2947282901
I7h:_EqualityComparer_1__cctor_m3397254040_gshared
TW:__ZNK20LocalFileSystemPosix6ParentERK13FileEntryDataRN4core12basic_stringIcNS3_20StringStorageDefaultIcEEEE
VKi:__Z37RuntimeInvoker_ContentType_t859870085PK10MethodInfoPvPS2_
Wvj:_TextGenerator_get_verts_m3124035267
mUf:_MonoType_CheckMethodSecurity_m4116906190
kyj:_Vector2_get_one_m3174311904
s2e:_Array_Sort_TisVector2_t2243707579_m1307634946_gshared
RTi:__Z37RuntimeInvoker_Enumerator_t1593300101PK10MethodInfoPvPS2_
rra:__ZN17PersistentManager22CheckInstanceIDsLoadedEPii
Iza:__ZN7ApiGLES17CopyBufferSubDataEjjlll
Lbj:_AnimatorControllerPlayable_IsInTransition_m4064534331
pvj:_TextGenerationSettings_CompareColors_m991725620
CTg:__ZL99Sprite_t309593783_CustomAttributesCacheGenerator_Sprite_get_associatedAlphaSplitTexture_m3617241169P21CustomAttributesCache
ocd:__ZNSt3__26vectorIPK10Il2CppTypeNS_9allocatorIS3_EEE7reserveEj
NAj:_U3CCreateWhereIteratorU3Ec__Iterator1D_1_Reset_m1773515612_gshared
xXa:__ZN25CameraStackRenderingState20GetOrCreateBuiltinRTE24BuiltinRenderTextureTypeii17DepthBufferFormat19RenderTextureFormatj22RenderTextureReadWrite14VRTextureUsagei
jPe:_InputField_get_caretPosition_m1005871812
O1h:_Dictionary_2__ctor_m3111963761_gshared
sAj:_AesManaged_CreateEncryptor_m1729287824
_sb:__ZNK14Texture2DArray26CanReuploadDataToGfxDeviceEv
_$a:__ZN17PrePassRenderLoop14RenderBasePassEP13RenderTextureRK14LightingLayersR13dynamic_arrayI16RenderObjectDataLj4EERbR10MinMaxAABB
Ohb:__ZN17GlobalGameManager23VirtualRedirectTransferER17RemapPPtrTransfer
QRc:_sfnt_stream_close
hce:_Char_System_IConvertible_ToInt16_m2741348777_AdjustorThunk
Vlc:__ZN5IMGUI18RepaintModalWindowER8GUIState
yKj:__ZL25UnresolvedVirtualCall_129P12Il2CppObject17Color_t2020392075PK10MethodInfo
Lgb:__ZN21ArchiveStorageCreator10InitializeERKN4core12basic_stringIcNS0_20StringStorageDefaultIcEEEEb
kKe:_FontData_get_verticalOverflow_m83665814
cwf:_ReadOnlyCollection_1_System_Collections_Generic_IListU3CTU3E_set_Item_m1547026160_gshared
Hxg:__ZL61MarshalAsAttribute_t2900773360_CustomAttributesCacheGeneratorP21CustomAttributesCache
dsb:__Z23SetSpriteMeshIndexCountP14SharedMeshDataj
nca:__ZN7Texture13SetFilterModeEi
_ce:_Char_ToUpper_m109978609
HKd:__ZN6il2cpp8metadata13GenericMethod9GetMethodEPK19Il2CppGenericMethod
Cq:__ZNSt3__26vectorIN4core12basic_stringIcNS1_20StringStorageDefaultIcEEEENS_9allocatorIS5_EEE7reserveEj
voe:_Convert_ToUInt16_m2130758075
Xqf:_Collection_1_get_Item_m1415164804_gshared
$ng:_X509BasicConstraintsExtension_Encode_m3505127076
sdi:_Scrollbar_OnRectTransformDimensionsChange_m330142657
sua:__ZN13GfxDeviceGLES11SetViewportERK5RectTIiE
mNe:_Image_get_pixelsPerUnit_m4104195799
hji:_Toggle_InternalToggle_m2323729210
mse:_Decimal_System_IConvertible_ToInt64_m2504363272
p7d:_Array_GetValue_m3182152438
Wd:_emscripten_glDepthRange
Ekh:_DESTransform_CipherFunct_m3559419566
wUi:__Z91RuntimeInvoker_Boolean_t3825574718_TouchScreenKeyboardTypeU26_t2194866306_Int32_t2071877448PK10MethodInfoPvPS2_
RIh:_UIntPtr_get_Size_m537421489
OVd:_Rijndael_Create_m113171669
bNh:_GUILayoutGroup_CalcWidth_m4107152934
hih:_RuntimeFieldHandle_get_Value_m3963757144
OSb:__Z14resize_trimmedINSt3__26vectorIN9ShaderLab20SerializedSubProgram12UAVParameterENS0_9allocatorIS4_EEEEEvRT_j
Aaa:__Z20PlayerLoadFirstSceneb
Fdh:_SerializationInfo_AddValue_m1781549036
Pbg:_TlsServerKeyExchange_verifySignature_m3641534563
t9b:__ZN13BuildSettings34ConvertScenePathToDisplayScenePathERKN4core12basic_stringIcNS0_20StringStorageDefaultIcEEEE
esf:_Collection_1_Clear_m445145071_gshared
vhi:_Slider_FindSelectableOnLeft_m3136767885
ACi:__Z75RuntimeInvoker_Void_t1841601450_Il2CppObject_RuntimeFieldHandle_t2331729674PK10MethodInfoPvPS2_
oBa:__ZN4crndL20crnd_default_reallocEPvjPjbS0_
WKe:__ZN21InterfaceFuncInvoker1IP19Material_t193706927S1_E6InvokeEjP11Il2CppClassP12Il2CppObjectS1_
hWe:_Array_BinarySearch_TisInt32_t2071877448_m51233948_gshared
C8b:__ZN7Texture11SetWrapModeEi
eRj:__ZNSt3__212basic_stringIcNS_11char_traitsIcEENS_9allocatorIcEEEC2ERKS5_
aeh:_ProviderData_CopyFrom_m431414335
JWg:__ZL145AnimatorControllerPlayable_t4078305555_CustomAttributesCacheGenerator_AnimatorControllerPlayable_INTERNAL_CALL_GetLayerWeightInternal_m3829748773P21CustomAttributesCache
Vzh:_UTF32Encoding_GetPreamble_m767706727
djc:__Z33Texture_CUSTOM_Internal_GetHeightP12Il2CppObject
_of:_Collection_1_System_Collections_IList_Add_m1953936885_gshared
CRe:_LayoutGroup_get_preferredHeight_m3901163825
YVa:__ZN23ScriptableRenderContextC2Ev
ljb:__ZN4PPtrI13RenderTextureE8TransferI18StreamedBinaryReadILb0EEEEvRT_
Mle:_DateTime_AbsoluteDays_m3061694073
$Ui:__Z56RuntimeInvoker_Boolean_t3825574718_LabelData_t3712112744PK10MethodInfoPvPS2_
n9i:_AnimationClipPlayable_set_speed_m3332297554
NYc:_UNITY_FT_Stream_GetChar
Igf:_List_1_CheckIndex_m4231572822_gshared
_Zh:_Enumerator_System_Collections_IEnumerator_get_Current_m229223308_gshared
NOg:__ZL202U3CCreateWhereIteratorU3Ec__Iterator1D_1_t2523986802_CustomAttributesCacheGenerator_U3CCreateWhereIteratorU3Ec__Iterator1D_1_System_Collections_Generic_IEnumerableU3CTSourceU3E_GetEnumerator_m2392330777P21CustomAttributesCache
pEb:__Z26BuildSerializationCacheFor17ScriptingClassPtrRb
Lld:_il2cpp_class_get_name
acj:_AnimatorControllerPlayable_CrossFadeInFixedTimeInternal_m3729673154
KCg:__ZL55GCHandleType_t1970708122_CustomAttributesCacheGeneratorP21CustomAttributesCache
G7i:_Event_Init_m3901382626
yfb:__ZN10FileSystem12MountHandlerEP17FileSystemHandler
Oee:_FixedSizeArrayListWrapper_AddRange_m2071800418
RB:__ZN13ProduceHelperI8AnimatorLb0EE7ProduceE18MemLabelIdentifier18ObjectCreationMode
paa:__Z9InitInputv
rud:__ZN30dense_hashtable_const_iteratorINSt3__24pairIK10KeyWrapperIPK22Il2CppGenericParameterEPK24MonoGenericParameterInfoEES6_N6il2cpp5utils11PointerHashIS4_EEN14dense_hash_mapIS6_SA_SF_NS6_14EqualsComparerINS0_8equal_toIS5_EEEENS0_9allocatorISB_EEE9SelectKeyESK_SM_E30advance_past_empty_and_deletedEv
r8e:_Enumerator_VerifyState_m2358705882_AdjustorThunk
gLb:__Z29Transfer_Blittable_ArrayFieldI24GenerateTypeTreeTransfer11ColorRGBA32EvRT_R9ArrayInfoRK23StaticTransferFieldInfo
Gqd:__ZN6il2cpp2gc19AppendOnlyGCHashMapINSt3__24pairIPK10MethodInfoP11Il2CppClassEEP22Il2CppReflectionMethod17ReflectionMapHashIS9_ENS2_8equal_toIS9_EEE3AddERKS9_SB_
z4f:_AppDomain_getCurDomain_m591611373
yab:__ZN16MemoryFileSystem6DeleteER13FileEntryDatab
Cyj:_Vector3_get_normalized_m936072361
npa:__ZL21BlitScaleStbImageImplRK14ImageReferenceRS_NS_10ColorSpaceE
uig:_TlsStream_set_Position_m378064217
rB:__ZN18StreamedBinaryReadILb0EE21TransferSTLStyleArrayI13dynamic_arrayIjLj4EEEEvRT_17TransferMetaFlags
WFc:__ZNSt3__26__sortIR31RayHitsByInverseDepthComparitorP12RaycastHit2DEEvT0_S5_T_
XGb:__Z29Transfer_Blittable_ArrayFieldI14SafeBinaryReadyEvRT_R9ArrayInfoRK23StaticTransferFieldInfo
pM:__ZN20SoundChannelInstance15setChannelGroupEPN4FMOD12ChannelGroupE
$_d:_Evidence_Equals_m2325859915
dnh:_Default__ctor_m172834064
sc:invoke_vifffii
_4g:__ZL77StandaloneInputModule_t70867863_CustomAttributesCacheGenerator_m_VerticalAxisP21CustomAttributesCache
pBb:__ZN20ArchiveStorageReader17MakeStorageUnusedEv
Tmj:_Regex_IsMatch_m2159202025
DKa:__ZNK25MultiBlocksMemoryFileData5CloneEv
sPd:_GC_add_ext_descriptor
GQd:__ZN6il2cpp2os14WindowsRuntime22GetRestrictedErrorInfoEv
ENe:_Image_CalculateLayoutInputHorizontal_m3275149860
Weh:_RemotingServices_GetMethodBaseFromName_m3271095947
bKi:__Z71RuntimeInvoker_TimeSpan_t3430258949_Double_t4078015681_Int64_t909078037PK10MethodInfoPvPS2_
tMa:__ZN17ArchiveFileSystem11CreateAsDirER13FileEntryData
jKj:__ZL25UnresolvedVirtualCall_114P12Il2CppObjectssaaaPK10MethodInfo
iTj:dynCall_iiiiiiiiiiii
w4d:_ASCIIEncoding_GetBytes_m3617160053
iti:_InternalEnumerator_1_MoveNext_m2289229080_AdjustorThunk
Tag:_CipherSuiteCollection_System_Collections_IList_RemoveAt_m143866082
QC:__ZN26AnimatorControllerPlayable26ParameterControlledByCurveEi
pta:__ZN22VertexDeclarationCacheD0Ev
_Wb:__ZL26KeywordSetToStringDontSortRKNSt3__26vectorIN4core12basic_stringIcNS1_20StringStorageDefaultIcEEEENS_9allocatorIS5_EEEERS5_
L4c:__Z54Register_UnityEngine_Analytics_CustomEventData_AddCharv
yka:__ZN6prcoreL17RemapGenericFloatI16TexFormatRGFloat17TexFormatRGBAHalfEEvPKNS_9InnerInfoE
Vfb:__ZNK21AssetBundleFileSystem8PositionERK13FileEntryData
SG:__ZN12AudioManager22CreateFMODSoundFromWWWEP10IWWWStream15FMOD_SOUND_TYPE17FMOD_SOUND_FORMATjjbbP10SampleClip
H2b:__ZNK32RendererMaterialAnimationBinding15GenerateBindingERKN4core12basic_stringIcNS0_20StringStorageDefaultIcEEEEbRN11UnityEngine9Animation14GenericBindingE
Nrd:__ZN24dense_hashtable_iteratorINSt3__24pairIK10KeyWrapperINS1_IPK11Il2CppImageP11Il2CppClassEEEjEES9_17ReflectionMapHashIS8_EN14dense_hash_mapIS9_jSD_NS9_14EqualsComparerINS0_8equal_toIS8_EEEENS0_9allocatorISB_EEE9SelectKeyESI_SK_E30advance_past_empty_and_deletedEv
$8i:_UnityEventBase_UnityEngine_ISerializationCallbackReceiver_OnBeforeSerialize_m1773826808
E5h:_DefaultComparer_GetHashCode_m361278435_gshared
R2:__ZN8Remapper23GetOrGenerateInstanceIDERK26SerializedObjectIdentifier
ZQf:_StreamWriter_Flush_m3426120024
zMa:__ZN17FileSystemHandler10AtomicMoveER13FileEntryDataS1_
Ya:invoke_iiiiiifffiiifii
DOf:_MemoryStream__ctor_m1489366847
u$d:_SecurityElement_IsValidTag_m64902195
b_h:_Enumerator_System_Collections_IEnumerator_get_Current_m229223308_AdjustorThunk
Vxh:_PropertyInfo_SetValue_m2961483868
qMh:_GUILayoutEntry_set_style_m70917293
jff:_List_1_System_Collections_IList_Contains_m4193366963_gshared
bjd:__ZNSt3__214__split_bufferI6pollfdRNS_9allocatorIS1_EEED2Ev
Obh:_DictionaryEnumerator_get_Value_m1915638953
Bnh:_ConstructorInfo_Invoke_m2144827141
qUg:__ZL82Object_t1021602117_CustomAttributesCacheGenerator_Object_get_hideFlags_m4158950869P21CustomAttributesCache
qsb:__ZN6Sprite8TransferI24GenerateTypeTreeTransferEEvRT_
hkc:__Z48Register_UnityEngine_Transform_SetAsFirstSiblingv
CKh:_Font_get_fontSize_m1732593415
ssb:__ZN7SubMesh8TransferI24GenerateTypeTreeTransferEEvRT_
Etd:__ZN14dense_hash_mapI10KeyWrapperIPK14Il2CppAssemblyEPK16MonoAssemblyNameN6il2cpp5utils11PointerHashIS2_EENS4_14EqualsComparerINSt3__28equal_toIS3_EEEENSD_9allocatorINSD_4pairIKS4_S7_EEEEE13set_empty_keyERSJ_
Zwh:_MonoProperty_get_CanWrite_m2124922514
Z9f:_CipherSuite_get_HashAlgorithmType_m3902365773
TTi:__Z36RuntimeInvoker_Enumerator_t132208513PK10MethodInfoPvPS2_
uVi:__Z112RuntimeInvoker_Int32_t2071877448_Il2CppObject_Int32_t2071877448_Int32_t2071877448_Int32_t2071877448_Il2CppObjectPK10MethodInfoPvPS2_
gQj:_poll
pOf:_Stream_BeginRead_m1985960185
dPh:_GUIStyle_GetFontInternalDuringLoadingThread_m229734483
u0b:__ZN13ProduceHelperI14Texture2DArrayLb0EE7ProduceE18MemLabelIdentifier18ObjectCreationMode
h8f:_MD4Managed_GG_m1462438360
Dgc:__Z46Mesh_CUSTOM_PrintErrorCantAccessMeshForIndicesP12Il2CppObject
Wbc:__ZN9Transform23SetSiblingIndexInternalEib
Efi:_ScrollRect_get_minWidth_m3151814267
dMf:_BinaryReader_CheckBuffer_m1059275266
Fua:__ZN13GfxDeviceGLES17DestroySubProgramEPN9ShaderLab10SubProgramE
Dx:__ZN7mecanim5human12HumanPoseSubERNS0_9HumanPoseERKS1_S4_
V7f:_MD4_Create_m2582504069
OHj:_HashSet_1_System_Collections_IEnumerable_GetEnumerator_m2498631708_gshared
SCd:__ZN6il2cpp8metadata15GenericMetadata15GetGenericClassEiPK17Il2CppGenericInst
U9d:_Boolean_System_IConvertible_ToInt16_m977801621
QFb:__Z18Transfer_BlittableI14SafeBinaryReadLb0E10Matrix4x4fEvRK29SerializationCommandArgumentsR31RuntimeSerializationCommandInfo
mOa:__Z24GetFixedBehaviourManagerv
vUa:__ZN12FlareManager9UpdateJobEP25FlareManagerUpdateJobData
kjd:__ZN6il2cpp2vm10ThreadPool4WaitEP17Il2CppAsyncResultPPv
rOj:_vfprintf
Hdh:_SerializationException__ctor_m1019897788
F0i:_Debug_get_logger_m4173808038
Bia:__ZL13SortTexByNameRKNSt3__24pairIN9ShaderLab16FastPropertyNameEN18UnityPropertySheet11UnityTexEnvEEES7_
iVa:__ZN20DynamicPropertySheetD0Ev
m8a:__ZN14SafeBinaryRead17RegisterConverterEPKcS1_PFbPvRS_E
oZ:__ZN35RegisterRuntimeInitializeAndCleanup8RegisterEPFvPvES2_iS0_
L8d:_AsyncCallback__ctor_m3071689932
LBf:_ReadOnlyCollection_1_System_Collections_IList_Clear_m2600246370_gshared
tCc:__ZN4PPtrI17PhysicsMaterial2DE8TransferI18StreamedBinaryReadILb0EEEEvRT_
cPi:__Z74RuntimeInvoker_Void_t1841601450_PlayableHandleU26_t3483893774_Il2CppObjectPK10MethodInfoPvPS2_
aOi:__Z135RuntimeInvoker_RaycastHit2D_t4063908774_Vector2_t2243707579_Vector2_t2243707579_Single_t2076509932_Int32_t2071877448_Single_t2076509932PK10MethodInfoPvPS2_
QPi:__Z41RuntimeInvoker_EventModifiers_t2690251474PK10MethodInfoPvPS2_
q$f:_DSAManaged_NormalizeArray_m2287089393
qkc:__Z21Object_CUSTOM_DestroyP12Il2CppObjectf
Tti:_InternalEnumerator_1_System_Collections_IEnumerator_get_Current_m2389982234_AdjustorThunk
qOa:__ZN8Material26ResetAllCachedMaterialDataEP6Shader
agi:_Selectable_get_interactable_m1725029500
YYc:_UNITY_TT_Get_MM_Var
Wpa:__ZN24GenerateTypeTreeTransfer21TransferResourceImageE19ActiveResourceImagePKcR13StreamingInfoPvjiPKN5Unity4TypeE
ba:invoke_diddi
uBe:_ExecuteEvents__cctor_m288775360
o_c:__ZNK2UI6Canvas13GetRenderModeEv
Rme:_Double_TryParseStringConstant_m2585405703
oOe:__ZN21InterfaceFuncInvoker1I22UICharInfo_t3056636800iE6InvokeEjP11Il2CppClassP12Il2CppObjecti
cTh:_Mathf_RoundToInt_m2927198556
oFb:__Z18Transfer_BlittableI14SafeBinaryReadLb0EiEvRK29SerializationCommandArgumentsR31RuntimeSerializationCommandInfo
_hd:__ZN6il2cpp2vm13MetadataCache30GetPropertyDefinitionFromIndexEi
cdj:_ResourceEnumerator__ctor_m1679839941
ZVd:_RijndaelTransform_Clear_m1652144089
F3e:_BaseInvokableCall_ThrowOnInvalidArg_TisIl2CppObject_m1349548392_gshared
x7c:__ZN22BaseUnityConnectClient17InitializeSessionERKN4core12basic_stringIcNS0_20StringStorageDefaultIcEEEES6_N19CloudServiceHandler13InitModeFlagsE
kyi:__Z57RuntimeInvoker_Void_t1841601450_Il2CppObject_Il2CppObjectPK10MethodInfoPvPS2_
IVf:_NumberFormatter_get_IsZero_m1325357749
awe:_Enum_ToObject_m322320225
txi:_Enumerator_get_Current_m2754383612_gshared
phc:__ZN13MonoBehaviour34StopCoroutineFromEnumeratorManagedE18ScriptingObjectPtr
HZd:_X509Certificate__ctor_m3860837120
sQc:_gray_raster_reset
CF:__Z100Register_UnityEngine_Experimental_Director_AnimatorControllerPlayable_INTERNAL_CALL_SetTriggerStringv
IKh:_GameObject_Internal_CreateGameObject_m3428198595
F3i:_Camera_RaycastTry2D_m755036866
GBf:_ReadOnlyCollection_1_System_Collections_Generic_IListU3CTU3E_set_Item_m3663361643_gshared
$wc:__ZN11UnityEngine9Analytics18SceneLoadTimeEvent12SetSceneLoadERKN4core12basic_stringIcNS2_20StringStorageDefaultIcEEEEiyyyy
lbj:_AnimatorControllerPlayable_GetCurrentAnimatorStateInfo_m689786022
TAb:__ZN30RuntimeInitializeOnLoadManager8TransferI18StreamedBinaryReadILb0EEEEvRT_
k4h:_Dictionary_2__ctor_m1206668798_gshared
dqh:_TypeBuilder_not_supported_m3178173643
bRc:_UNITY_tt_face_load_pclt
SBb:__ZN21ArchiveStorageCreator14StoreDirectoryEv
Nac:__ZL34GetComponentsImplementationRecurseILb1ELi0ELi2EEbR10GameObjectbRK17CompareParametersRK39GetComponentsImplementation_ReturnValue
tDc:__ZN10ClipperLib7Clipper24InsertLocalMinimaIntoAELEx
D4h:_Dictionary_2_Init_m1045257495_gshared
Pwc:__ZNK27PerformanceReportingManager26GetTypeInfoVirtualInternalEv
$Hi:__Z50RuntimeInvoker_Int16_t4041245914_Int16_t4041245914PK10MethodInfoPvPS2_
vee:_ArrayListWrapper_Remove_m1105489978
wUa:__ZNK6Camera18WorldToScreenPointERK8Vector3fPb
s3c:__ZN14UnityAnalyticsD0Ev
qbg:_TlsClientSettings_set_TargetHost_m3421266913
v4g:__ZL109PointerEventData_t1599784723_CustomAttributesCacheGenerator_PointerEventData_get_eligibleForClick_m2497780621P21CustomAttributesCache
mie:_HashKeys_CopyTo_m3566668422
wpi:_InternalEnumerator_1_Dispose_m549215360_AdjustorThunk
pce:_Convert_ToSByte_m2665932200
e2:__ZNSt3__227__insertion_sort_incompleteIRPFbRKN18AwakeFromLoadQueue4ItemES4_EPS2_EEbT0_S9_T_
Jrj:_PKCS12_Encrypt_m2154408631
_oh:_ILGenerator_label_fixup_m1325994348
Ujh:_Base64Constants__cctor_m1807522504
SVe:_Array_InternalArray__IEnumerable_GetEnumerator_TisContactPoint2D_t3659330976_m478005999_gshared
Qbi:_Navigation_Equals_m4214630671_AdjustorThunk
Syf:_ReadOnlyCollection_1_System_Collections_Generic_IListU3CTU3E_set_Item_m257196015_gshared
luh:_FieldInfo_GetPseudoCustomAttributes_m2500972355
Cpb:__ZN26EnlightenSystemInformation8TransferI14SafeBinaryReadEEvRT_
Abg:_TlsClientCertificate__ctor_m987604448
r4e:_Array_InternalArray__get_Item_TisLink_t2723257478_m2281261655_gshared
zvb:__ZN12MeshRendererD0Ev
roj:_ExpressionAssertion_IsComplex_m783019628
nhe:_Hashtable__ctor_m2702360557
Fh:_utime
wFf:_DateTimeFormatInfo_get_RawAbbreviatedDayNames_m3998113647
fod:__ZNSt3__26vectorIN6il2cpp2vm17TypeNameParseInfoENS_9allocatorIS3_EEE8allocateEj
H6f:_PrimalityTest_Invoke_m4058801829
Keh:_RemotingConfiguration_SetCustomErrorsMode_m1844153208
yn:FUNCTION_TABLE_viiiiii
GVi:__Z84RuntimeInvoker_Int32_t2071877448_Il2CppObject_CustomAttributeNamedArgument_t94157543PK10MethodInfoPvPS2_
YVg:__ZL98Physics2D_t2540166467_CustomAttributesCacheGenerator_Physics2D_GetColliderFromInstanceID_m95920619P21CustomAttributesCache
wye:_CultureInfo_GetFormat_m3560116485
QA:__ZN7mecanim9animation22DestroyAvatarWorkspaceEPNS0_15AvatarWorkspaceERNS_6memory9AllocatorE
Ptj:_ScriptableObject_CreateInstance_m3271154163
pde:__ZN21InterfaceFuncInvoker0IiE6InvokeEjP11Il2CppClassP12Il2CppObject
xrg:_FactoryCache__ctor_m254400436
tnj:_AnchorInfo_get_IsPosition_m3791659233
SXe:_Array_InternalArray__IndexOf_TisResourceCacheItem_t333236149_m761772858_gshared
Qlc:__ZNSt3__210__list_impIN10GUIManager12SortedScriptE11memory_poolIS2_EE5clearEv
VJg:__ZL76Convert_t2607082565_CustomAttributesCacheGenerator_Convert_ToInt64_m44696721P21CustomAttributesCache
Omb:__ZN14PlayableOutput17SetSourcePlayableEP8Playable
efh:_TrackingServices__cctor_m3639412334
xCj:_InvokableCall_1_add_Delegate_m3068046591_gshared
woc:__Z32GUIStyle_Set_Custom_PropRichTextP12Il2CppObjecth
Fu:__ZN7mecanim9animation29MotionOutputGetDeltaTransformEPKNS0_12MotionOutputE
q_b:__Z13RegisterClassI16GraphicsSettingsEvv
F1h:_ValueCollection_System_Collections_IEnumerable_GetEnumerator_m1773104428_gshared
_wc:__ZN27PerformanceReportingManager21OnSceneTimingCallbackERK15SceneLoadTimingRKN4core12basic_stringIcNS3_20StringStorageDefaultIcEEEE
AC:__ZN8Animator14OnAddComponentEPN5Unity9ComponentE
olf:_List_1_CheckMatch_m1184924052_gshared
Fjc:__Z43Transform_CUSTOM_INTERNAL_get_localRotationP12Il2CppObjectP11Quaternionf
swj:_Touch_get_fingerId_m4109475843_AdjustorThunk
tXj:_glGetShaderInfoLog__wrapper
gi:_emscripten_glGetTexParameteriv
Xef:_List_1_ToArray_m3752387798_gshared
gwd:__ZN15dense_hashtableINSt3__24pairIK10KeyWrapperINS1_IP11Il2CppClassjEEES4_EES6_N6il2cpp8metadata14ArrayClassHashEN14dense_hash_mapIS6_S4_SB_NS6_14EqualsComparerINSA_17ArrayClassCompareEEENS0_9allocatorIS8_EEE9SelectKeyESF_SH_EC2EjRKSB_RKSF_RKSJ_
c9f:_RSAManaged_ImportParameters_m3060955884
e3f:_DeriveBytes__ctor_m3089550878
xfj:_ChannelData_CopyFrom_m4049054607
w_b:__Z13RegisterClassI4MeshEvv
Q3g:__ZL94AxisEventData_t1524870173_CustomAttributesCacheGenerator_AxisEventData_get_moveDir_m3968662359P21CustomAttributesCache
YWe:_Array_FindLastIndex_TisIl2CppObject_m869210470_gshared
smb:__ZN8PlayableD0Ev
hI:__ZN12AudioManager8TransferI19StreamedBinaryWriteILb0EEEEvRT_
WOf:_WriteDelegate_Invoke_m2103848735
Wff:_List_1_get_Capacity_m4262042666_gshared
itj:_X509Crl_get_IssuerName_m756409840
POb:__ZN18StreamedBinaryReadILb1EE21TransferSTLStyleArrayI13dynamic_arrayI11ColorRGBA32Lj4EEEEvRT_17TransferMetaFlags
N$h:_Transform_1_EndInvoke_m687617772_gshared
yXi:__Z66RuntimeInvoker_Void_t1841601450_Int32_t2071877448_Mark_t2724874473PK10MethodInfoPvPS2_
Mzj:_Locale_GetText_m512920887
G2b:__ZNK32RendererMaterialAnimationBinding12GetPPtrValueERKN11UnityEngine9Animation10BoundCurveE
CPb:__Z18Transfer_BlittableI18StreamedBinaryReadILb0EELb0E8Vector2fEvRK29SerializationCommandArgumentsR31RuntimeSerializationCommandInfo
seh:_RemotingConfiguration_get_ProcessId_m3870172209
V0c:__ZN2UI11CanvasGroup12CleanupClassEv
uZh:_SceneManager_LoadScene_m1386820036
YGf:_SortKey_ToString_m2406913228
jX:__ZN22LocalFileSystemHandler9MakeLocalER13FileEntryDatab
MLd:__ZN6il2cpp2vm8Profiler10AllocationEP12Il2CppObjectP11Il2CppClass
Xle:_Convert_ToDateTime_m1020507389
c5b:__ZNK9HPlayable7IsValidEv
VNc:__ZNSt3__23mapIN20TextRenderingPrivate7FontRefENS1_6OSFontENS_4lessIS2_EENS_9allocatorINS_4pairIKS2_S3_EEEEEixERS8_
mjd:__ZN6il2cpp2vm8basepathEPKc
qgh:_ObjectManager_RegisterObjectInternal_m879109503
zSe:_Array_get_swapper_TisVector4_t2243707581_m97441823_gshared
tra:__ZNSt3__26__sortIRNS_4lessIiEEPiEEvT0_S5_T_
cLc:__ZN14SafeBinaryRead21TransferSTLStyleArrayI10vector_mapINSt3__24pairIttEEfN20TextRenderingPrivate8FontImpl14KerningCompareENS2_9allocatorINS3_IS4_fEEEEEEEvRT_17TransferMetaFlags
T_b:__Z13RegisterClassI15QualitySettingsEvv
YKd:__ZN6il2cpp2vm6String21InitializeEmptyStringEP11Il2CppClass
P$a:__ZN25DeferredRenderLoopScratchD0Ev
Jy:__ZN27AnimationLayerMixerPlayable14SetInputWeightEif
zx:__ZN7mecanim9animation17EvaluateHumanPoseERKNS0_18ClipMuscleConstantERKNS0_15ClipMuscleInputEPKfRKNS0_12MotionOutputERNS_5human9HumanPoseE
WHg:__ZL90UTF7Encoding_t741406939_CustomAttributesCacheGenerator_UTF7Encoding_GetHashCode_m359766848P21CustomAttributesCache
iBi:__Z52RuntimeInvoker_Decimal_t724701077_Single_t2076509932PK10MethodInfoPvPS2_
gJc:__ZN14dense_hash_mapINSt3__24pairIPK10Collider2DS4_EE11Collision2DNS2_23ColliderPairHashFunctorENS0_8equal_toIS5_EE13stl_allocatorINS1_IKS5_S6_EEL18MemLabelIdentifier65ELi16EEE15set_deleted_keyERSB_
BSb:__ZN15dense_hashtableINSt3__24pairIKiN4core17string_with_labelILi1EEEEEi18SInt32HashFunctionN14dense_hash_mapIiS5_S7_NS0_8equal_toIiEE13stl_allocatorIS6_L18MemLabelIdentifier1ELi16EEE9SelectKeyESA_SD_E9copy_fromERKSG_j
Cea:__ZN6Camera11ResetAspectEv
lNg:__ZL62SecurityProtocolType_t155967584_CustomAttributesCacheGeneratorP21CustomAttributesCache
vTa:__ZNSt3__227__insertion_sort_incompleteIRPFbP10GUIElementS2_EPS2_EEbT0_S7_T_
bog:_X509BasicConstraintsExtension_get_HasPathLengthConstraint_m3788532759
qlb:__ZNK17InstancedPropInfo22FillInstancePropertiesER19ShaderPropertySheetjPK17BatchInstanceDatajRK15RenderNodeQueue
$fa:__ZN22CreateGpuProgramOutputD2Ev
QLb:__Z18Transfer_BlittableI19StreamedBinaryWriteILb0EELb1EsEvRK29SerializationCommandArgumentsR31RuntimeSerializationCommandInfo
hXd:_RSACryptoServiceProvider_EncryptValue_m802714447
XAd:__ZN6il2cpp6icalls8mscorlib6System2IO6MonoIO9SetLengthE12Il2CppIntPtrxPi
SSd:__ZN6il2cpp8metadata22Il2CppSignatureCompare6EqualsERK13dynamic_arrayIPK10Il2CppTypeLj4EES8_
sJg:__ZL76Convert_t2607082565_CustomAttributesCacheGenerator_Convert_ToByte_m932798552P21CustomAttributesCache
xO:__ZN13ProduceHelperI13AudioListenerLb0EE7ProduceE18MemLabelIdentifier18ObjectCreationMode
Faf:_List_1_System_Collections_ICollection_get_SyncRoot_m1594235606_gshared
bEf:_DateTimeFormatInfo_GetInstance_m3133223810
$5f:_ModulusRing_BarrettReduction_m2802101099
NCi:__Z57RuntimeInvoker_ExtenderType_t1556892101_Int32_t2071877448PK10MethodInfoPvPS2_
eLa:__ZN12HandlerChain4OpenER13FileEntryData14FilePermission16FileAutoBehavior
Q_i:__Z76RuntimeInvoker_Il2CppObject_UILineInfo_t3621277874_Il2CppObject_Il2CppObjectPK10MethodInfoPvPS2_
e9h:_EqualityComparer_1_get_Default_m2134906921_gshared
evh:_MonoMethodInfo_GetParametersInfo_m3456861922
Kqd:__ZN15dense_hashtableINSt3__24pairIK10KeyWrapperINS1_IPK10MethodInfoP11Il2CppClassEEEjEES9_17ReflectionMapHashIS8_EN14dense_hash_mapIS9_jSD_NS9_14EqualsComparerINS0_8equal_toIS8_EEEENS0_9allocatorISB_EEE9SelectKeyESI_SK_E6insertERKSB_
hxc:__ZN27PerformanceReportingManager29OnSceneLoadedAfterAwakeStaticEPS_iR18AwakeFromLoadQueueN19RuntimeSceneManager11LoadingModeE
S4:__ZN14FileCacherReadD2Ev
xqa:__ZN13RendererScene23UpdatePreviousFrameDataEii
BXd:_RSAPKCS1SignatureDeformatter_VerifySignature_m1825067195
sKj:__ZL25UnresolvedVirtualCall_123P12Il2CppObjectffPK10MethodInfo
jec:__Z50Register_UnityEngine_CullingGroup_FinalizerFailurev
K6e:_KeyValuePair_2_ToString_m2613351884_gshared
fma:__ZN27UnloadUnusedAssetsOperationD0Ev
zjb:__ZN6Camera15ThreadedCleanupEv
kz:__ZN26AnimatorControllerPlayable6MemoryD2Ev
P5g:__ZL69ColorBlock_t2652774230_CustomAttributesCacheGenerator_m_DisabledColorP21CustomAttributesCache
aag:_CipherSuite_get_Code_m3902213587
Sci:_Scrollbar__ctor_m2244981801
TAd:__ZN6il2cpp6icalls8mscorlib6System2IO6MonoIO9GetLengthE12Il2CppIntPtrPi
thh:_ObjectRecord_get_HasPendingFixups_m670959802
eYd:_SHA256Managed_HashCore_m4111458495
mye:_CultureInfo_get_CompareInfo_m3085280862
ryg:__ZL55Dictionary_2_t2276497324_CustomAttributesCacheGeneratorP21CustomAttributesCache
rhh:_ObjectManager_RecordDelayedFixup_m1895730844
cCd:__ZNK15dense_hashtableINSt3__24pairIK10KeyWrapperIP14Il2CppIUnknownEjEES5_N6il2cpp5utils11PointerHashIS3_EEN14dense_hash_mapIS5_jSB_NS5_14EqualsComparerINS0_8equal_toIS4_EEEENS0_9allocatorIS7_EEE9SelectKeyESG_SI_E12test_deletedERK24dense_hashtable_iteratorIS7_S5_SB_SK_SG_SI_E
P7d:_ArrayTypeMismatchException__ctor_m1898555879
khf:_List_1_System_Collections_IList_get_IsFixedSize_m3522184224_gshared
hG:__ZN9AudioClip23VirtualRedirectTransferER18StreamedBinaryReadILb0EE
tcg:_ClientSessionInfo_CheckDisposed_m1394638186
tjh:_SByte_Parse_m2544167007
l1d:_Single_CompareTo_m2081476257
aue:_StackFrame_GetILOffset_m115192054
KQi:__Z61RuntimeInvoker_Boolean_t3825574718_Int32_t2071877448_IntPtr_tPK10MethodInfoPvPS2_
Rdb:__ZN24GenerateTypeTreeTransfer8TransferIN11AssetBundle9AssetInfoEEEvRT_PKc17TransferMetaFlags
Iih:_RuntimeTypeHandle_GetHashCode_m3697629454_AdjustorThunk
FYf:_BigInteger__ctor_m2945783161
deg:_TlsClientHello_Update_m1723542631
zEg:__ZL96ProxyAttribute_t4031752430_CustomAttributesCacheGenerator_ProxyAttribute_IsContextOK_m2391079277P21CustomAttributesCache
bIf:_IndexOutOfRangeException__ctor_m3497760912
oAf:_ReadOnlyCollection_1_CopyTo_m1652036789_gshared
Fj:_glCopyTexSubImage2D
F_g:__ZL61GUISkin_t1436893342_CustomAttributesCacheGenerator_m_textAreaP21CustomAttributesCache
P2b:__ZNK24RendererAnimationBinding13GetFloatValueERKN11UnityEngine9Animation10BoundCurveE
Wnf:_Collection_1_Insert_m3594407958_gshared
dQa:_UNITY_png_write_zTXt
eW:__ZN18ScreenManagerWebGL13SetShowCursorEb
JLd:__ZN6il2cpp6icalls8mscorlib6System7Convert24InternalFromBase64StringEP12Il2CppStringb
ANa:__ZZ23InitPlayerLoopCallbacksvEN37EarlyUpdateProcessMouseInWindowstruct7ForwardEv
Fii:_Text_get_preferredWidth_m3352156860
Cmh:_AssemblyCompanyAttribute__ctor_m1217508649
Y0c:__ZN2UI13CanvasManager14GetRenderOrderEPKNS_6CanvasE
OFb:__Z18Transfer_BlittableI14SafeBinaryReadLb0E5RectTIfEEvRK29SerializationCommandArgumentsR31RuntimeSerializationCommandInfo
G_i:__Z93RuntimeInvoker_Il2CppObject_Vector2_t2243707579_Vector2_t2243707579_Il2CppObject_Il2CppObjectPK10MethodInfoPvPS2_
Wzf:_ReadOnlyCollection_1_System_Collections_Generic_IListU3CTU3E_RemoveAt_m878653284_gshared
YAa:__ZN18AsyncUploadManager19AsyncResourceUploadER9GfxDeviceii9TextureID
fAa:__ZN14GfxContextGLES14GetFramebufferEv
EZj:_emscripten_glGenVertexArrays__wrapper
LNi:__Z36RuntimeInvoker_HideFlags_t1434274199PK10MethodInfoPvPS2_
nja:__ZN6prcoreL21CreateRemapAnyBlitterE13TextureFormatS0_
ITd:__ZN6il2cpp2os5Event4WaitEjb
i9b:__ZN17AnimationCurveTplIfE16StripInvalidKeysEv
MYe:_Array_InternalArray__ICollection_Add_TisKeyValuePair_2_t3716250094_m2381539361_gshared
Q3f:_X509Extension_WriteLine_m2850991173
Q$c:__ZNK2UI6Canvas17GetSortingLayerIDEv
tvg:__ZL40UIntPtr_t_CustomAttributesCacheGeneratorP21CustomAttributesCache
UFc:__ZN14Raycast2DQuery8RunQueryEb
D4b:__Z13RegisterClassI17GlobalGameManagerEvv
l2a:__ZN8Renderer24SetupNewRendererForSceneEv
P9g:__ZL70GridLayoutGroup_t1515633077_CustomAttributesCacheGenerator_m_StartAxisP21CustomAttributesCache
VTe:_Array_InternalArray__ICollection_Remove_TisInt64_t909078037_m2653583130_gshared
Cdf:_List_1_AddCollection_m2628217188_gshared
hBh:_Thread_get_ExecutionContext_m922067206
tS:__ZN11UnityEngine15CloudWebService13WWWRestClient18GetEditableHeadersEv
dcg:_RecordProtocol_get_Context_m2688493529
mha:__ZN4PPtrI7TextureE8TransferI14SafeBinaryReadEEvRT_
y5b:__ZN14PlayableOutput6HandleEv
vei:_ScrollRect_get_viewport_m3177057249
tn:FUNCTION_TABLE_iiiiiiiiiiiiii
P6i:_CustomYieldInstruction_get_Current_m1743233962
C7c:__ZN19UnityConnectService18OnPlayerQuitStaticEPS_
gTi:__Z35RuntimeInvoker_ScaleMode_t987318053PK10MethodInfoPvPS2_
TRc:_UNITY_tt_get_cmap_info
W4d:_DecoderExceptionFallback_GetHashCode_m2972426052
e6a:__ZN16ReflectionProbes8ScheduleEN18ReflectionProbeJob7JobTypeEP15ReflectionProbei
jtf:_Collection_1_IsFixedSize_m3675221982_gshared
cKg:__ZL77Convert_t2607082565_CustomAttributesCacheGenerator_Convert_ToSByte_m883113940P21CustomAttributesCache
L5:__ZN16MessageForwarder13HandleMessageEPviR11MessageData
u9e:_Enumerator_MoveNext_m3293920409_AdjustorThunk
zX:__Z18IsDirectoryCreatedRKN4core12basic_stringIcNS_20StringStorageDefaultIcEEEE
Jrh:_GenericTypeParameterBuilder_get_DeclaringType_m1652924692
hwi:_Comparer_1__cctor_m3112251759_gshared
B8g:__ZL73ScrollRect_t1199013257_CustomAttributesCacheGenerator_m_VerticalScrollbarP21CustomAttributesCache
lng:_X509KeyUsageExtension_ToString_m1992050580
ANc:_UNITY_FT_GlyphLoader_Done
K7b:__ZN9Polygon2D16CheckConsistencyEv
gfj:_ConstructionCall__ctor_m1143766850
gRh:_GUIStyleState_Init_m2434147050
iwi:_Comparer_1_System_Collections_IComparer_Compare_m3203078743_gshared
jdg:_Context_get_RandomSC_m1687420621
AGc:__ZN19OverlapPointQuery2D14InitializeAABBER6b2AABB
J_g:__ZL67GUISkin_t1436893342_CustomAttributesCacheGenerator_m_verticalSliderP21CustomAttributesCache
_Zi:__Z56RuntimeInvoker_Int32_t2071877448_SpriteState_t1353336012PK10MethodInfoPvPS2_
zdd:__ZNK15dense_hashtableINSt3__24pairIK10KeyWrapperIPKcEP11Il2CppClassEES5_N6il2cpp5utils11StringUtils12StringHasherIS4_EEN14dense_hash_mapIS5_S8_SE_NS5_14EqualsComparerINSC_21CaseSensitiveComparerEEENS0_9allocatorIS9_EEE9SelectKeyESI_SK_E10test_emptyERK30dense_hashtable_const_iteratorIS9_S5_SE_SM_SI_SK_E
HSc:_tt_cmap14_char_var_index
cKi:__Z77RuntimeInvoker_TimeSpan_t3430258949_TimeSpan_t3430258949_TimeSpan_t3430258949PK10MethodInfoPvPS2_
eUc:_psh_globals_new
KOf:_FileStream_Seek_m950719389
nDe:_StandaloneInputModule_set_allowActivationOnMobileDevice_m2631121618
hme:_Decimal_stripStyles_m294582157
aBh:_UTF8Decoder_GetChars_m3819660582
Nta:__ZN9GfxDevice20SetMaxBufferedFramesEi
Pff:_List_1_RemoveAll_m4125997475_gshared
QBc:__ZN10Collider2D19WakeAllBodyContactsEv
ZK:__ZN24AudioScriptBufferManagerD2Ev
zTj:dynCall_vdd
t0c:__ZN2UIL17UnloadAllCanvasesEv
H9a:__Z23ConvertIntegerToTypePtrIsEbPvR14SafeBinaryRead
Kzc:__ZN12b2MouseJoint11ShiftOriginERK6b2Vec2
a9h:_EqualityComparer_1__ctor_m99476293_gshared
qcd:__ZN6il2cpp2vm5Class12HasAttributeEP11Il2CppClassS3_
m2i:_PCMReaderCallback_BeginInvoke_m3119095492
wde:_ArrayList_get_Count_m523955479
EVi:__Z85RuntimeInvoker_Int32_t2071877448_Vector3_t2243707580_Vector3_t2243707580_Il2CppObjectPK10MethodInfoPvPS2_
See:_FixedSizeArrayListWrapper_Remove_m1359458911
Oui:_InternalEnumerator_1_get_Current_m747506907_gshared
vja:__ZN6prcoreL29inner_stretch_rgb565_bilinearEPKNS_9InnerInfoE
apj:_Uri__ctor_m3927533881
Xod:__ZNK15dense_hashtableINSt3__24pairIK10KeyWrapperINS1_IPK14Il2CppAssemblyP11Il2CppClassEEEjEES9_17ReflectionMapHashIS8_EN14dense_hash_mapIS9_jSD_NS9_14EqualsComparerINS0_8equal_toIS8_EEEENS0_9allocatorISB_EEE9SelectKeyESI_SK_E12test_deletedEj
Z7h:_EqualityComparer_1_System_Collections_IEqualityComparer_Equals_m3724603646_gshared
I2c:__Z33Canvas_Get_Custom_PropWorldCameraP12Il2CppObject
Thi:_Text_get_mainTexture_m813502234
cLi:__Z47RuntimeInvoker_SecurityProtocolType_t3099771628PK10MethodInfoPvPS2_
X_a:__ZNK14RenderSettings19GetFlatAmbientColorEv
a6a:__ZN6prcoreL10inner_flipILj4EEEvPhS1_j
Byb:__ZN18StreamedBinaryReadILb0EE21TransferSTLStyleArrayI10vector_mapIPKN5Unity4TypeE7Hash128NSt3__24lessIS6_EENS8_9allocatorINS8_4pairIS6_S7_EEEEEEEvRT_17TransferMetaFlags
Wu:__ZNK27StateMachineBehaviourPlayer15IsSenderEnabledEv
S$i:_CustomEventData_Add_m1028036439
exi:_Enumerator_VerifyState_m2118679243_gshared
YNe:_InputField_get_shouldHideMobileInput_m3694613599
ckc:__Z40Register_UnityEngine_Transform_SetParentv
t2i:_AudioConfigurationChangeHandler_Invoke_m635374412
Vgg:_SslClientStream_get_HaveRemoteValidation2Callback_m3555576758
gtb:__ZN14Texture2DArray17UploadToGfxDeviceEv
qzf:_ReadOnlyCollection_1_System_Collections_Generic_IListU3CTU3E_Insert_m4216310986_gshared
Avf:_ReadOnlyCollection_1_System_Collections_Generic_IListU3CTU3E_set_Item_m1532495847_gshared
UJ:__Z14FMODMemoryFreePvjPKc
oli:_InternalEnumerator_1_System_Collections_IEnumerator_Reset_m3731327620_AdjustorThunk
Dfb:__ZN15dense_hashtableINSt3__24pairIKN4core12basic_stringIcNS2_20StringStorageDefaultIcEEEES6_EES6_20StringHash32FunctionIS6_EN14dense_hash_mapIS6_S6_SA_NS0_8equal_toIS6_EE13stl_allocatorIS8_L18MemLabelIdentifier54ELi16EEE9SelectKeyESD_SG_EC2ERKSJ_j
H4g:__ZL104PointerEventData_t1599784723_CustomAttributesCacheGenerator_PointerEventData_get_worldNormal_m1704987468P21CustomAttributesCache
Azj:_YieldInstruction_t3462875981_marshal_pinvoke_cleanup
zNe:_Image_AddQuad_m1600600902
xVc:_cf2_glyphpath_moveTo
muj:_SharedBetweenAnimatorsAttribute__ctor_m1221241062
zEe:_AnimationTriggers_set_disabledTrigger_m609579531
Tzg:__ZL47File_t1930543328_CustomAttributesCacheGeneratorP21CustomAttributesCache
Wqe:_DateTimeOffset__ctor_m1796624924
eNh:_GUILayoutUtility_get_spaceStyle_m1918520192
Pze:_BaseRaycaster_OnDisable_m1716508791
LTe:_Array_InternalArray__ICollection_Remove_TisKeyValuePair_2_t3716250094_m2566517826_gshared
pri:_InternalEnumerator_1_MoveNext_m1741571735_gshared
pbd:__ZN6il2cpp2vmL15GetBitmapNoInitEP11Il2CppClassPjRjj
Fvg:__ZL82Enum_t2459695545_CustomAttributesCacheGenerator_Enum_GetUnderlyingType_m3513899012P21CustomAttributesCache
APd:_GC_is_heap_ptr
Eeg:_TlsServerSettings_set_CertificateRequest_m3419519893
Ut:__ZN7mecanim5human10RetargetToEPKNS0_5HumanEPKNS0_9HumanPoseES6_RKN4math4trsXEPS4_PNS_8skeleton13SkeletonPoseTIS8_EESF_
Wx:__ZN7mecanim9animation8SeekClipERKNS0_12StreamedClipERNS0_18StreamedClipMemoryEf
SFh:_Type_get_IsGenericParameter_m161434704
msh:_MethodBuilder_get_Attributes_m3678061338
jm:_emscripten_glIsTexture
eTh:_Mathf_Clamp_m3542052159
yee:_ArrayListWrapper_CopyTo_m793444109
qKg:__ZL79Convert_t2607082565_CustomAttributesCacheGenerator_Convert_ToUInt16_m3265369225P21CustomAttributesCache
Qk:_emscripten_glHint
LYc:_ft_var_readpackeddeltas
nqe:_DateTime_AddMilliseconds_m1813199744_AdjustorThunk
$ih:_SByte_System_IConvertible_ToSByte_m108774324_AdjustorThunk
qsh:_MethodBuilder_GetParameterCount_m467267889
Hth:_TypeBuilder_IsValueTypeImpl_m1499671481
s0i:_AnimationEvent_set_intParameter_m1174062029
Bqg:_X509ChainStatus_t4278378721_marshal_pinvoke
U8f:_RSAManaged__ctor_m1680944437
mm:_SDL_UpperBlit
kQh:_GUIStyle_op_Implicit_m781448948
C$a:__Z35GetTextureDecodeValuesWithIntensity16TextureUsageMode17TextureColorSpace10ColorSpacef
Bbe:_Byte_GetHashCode_m2885528842_AdjustorThunk
_ud:__ZN15dense_hashtableINSt3__24pairIK10KeyWrapperINS1_IPK9EventInfoP11Il2CppClassEEEjEES9_17ReflectionMapHashIS8_EN14dense_hash_mapIS9_jSD_NS9_14EqualsComparerINS0_8equal_toIS8_EEEENS0_9allocatorISB_EEE9SelectKeyESI_SK_E15set_deleted_keyERKSB_
t2h:_Dictionary_2_OnDeserialization_m2092139626_gshared
Fzc:__ZNK12b2MouseJoint10GetAnchorAEv
t1:__ZN19RuntimeSceneManagerC2E18MemLabelIdentifier
HDb:__ZN14SafeBinaryRead20OverrideRootTypeNameEPKc
pad:__ZNK10KeyWrapperIPK22Il2CppGenericParameterE14EqualsComparerINSt3__28equal_toIS2_EEEclERKS3_SA_
W4:__ZN14FileCacherRead16UnlockCacheBlockEj
U2f:_X509Certificate_GetUnsignedBigInteger_m3491353542
qLc:__ZNSt3__26vectorIN4core12basic_stringIcNS1_20StringStorageDefaultIcEEEE13stl_allocatorIS5_L18MemLabelIdentifier34ELi16EEE6assignINS_11__wrap_iterIPS5_EEEENS_9enable_ifIXaasr21__is_forward_iteratorIT_EE5valuesr16is_constructibleIS5_NS_15iterator_traitsISF_E9referenceEEE5valueEvE4typeESF_SF_
$Zg:__ZL90Event_t3028476042_CustomAttributesCacheGenerator_Event_Internal_GetMousePosition_m38523489P21CustomAttributesCache
zIb:__Z18Transfer_BlittableI17RemapPPtrTransferLb1E8Vector3fEvRK29SerializationCommandArgumentsR31RuntimeSerializationCommandInfo
d2a:__ZN6Camera6RenderER11CullResultsR17ShaderPassContextPK21CameraRenderingParamsNS_10RenderFlagE
PAg:__ZL57StackBehaviour_t1390406961_CustomAttributesCacheGeneratorP21CustomAttributesCache
Qc:_emscripten_glUniform1f
FZb:__ZN13dynamic_arrayIS_I8Vector2fLj4EELj4EE18resize_initializedEjRKS1_12ResizePolicy
shg:_SslStreamBase_get_MightNeedHandshake_m3432170694
$Nc:__Z20ParseImageParametersR11UTF16StringRiRN20TextRenderingPrivate16TextFormatChangeE
Vc:_emscripten_glUniform1i
Mpi:_InternalEnumerator_1_System_Collections_IEnumerator_Reset_m651165750_AdjustorThunk
yDb:__ZN13MonoBehaviour9CallAwakeEv
lNh:__Z14bankers_roundff
pDi:__Z66RuntimeInvoker_Void_t1841601450_Int32_t2071877448_SByte_t454417549PK10MethodInfoPvPS2_
XTb:__ZN9ShaderLab16SerializedTagMapaSERKS0_
EDi:__Z75RuntimeInvoker_Void_t1841601450_Il2CppObject_Int32_t2071877448_Il2CppObjectPK10MethodInfoPvPS2_
RUe:_SetPropertyUtility_SetStruct_TisFillMethod_t1640962579_m1867757822_gshared
eR:__ZN11UnityEngine15CloudWebService16SessionContainer20RestoreSessionHeaderERKN4core12basic_stringIcNS2_20StringStorageDefaultIcEEEES8_RNS0_13SessionHeaderE
Kqe:_DateTime_ToString_m1117481977
Mbc:__ZN8Material28ApplyMaterialPropertyDrawersEv
wRd:__ZN6il2cpp2os12Cryptography23GetCryptographyProviderEv
Wad:__ZN24dense_hashtable_iteratorINSt3__24pairIK10KeyWrapperIPK22Il2CppGenericParameterEP11Il2CppClassEES6_N6il2cpp5utils11PointerHashIS4_EEN14dense_hash_mapIS6_S9_SE_NS6_14EqualsComparerINS0_8equal_toIS5_EEEENS0_9allocatorISA_EEE9SelectKeyESJ_SL_E30advance_past_empty_and_deletedEv
EA:__ZN11UnityEngine9Animation27CreateAvatarBindingConstantER9TransformPKN7mecanim9animation14AvatarConstantERNS3_6memory9AllocatorE
qAb:__ZN14SafeBinaryRead21TransferSTLStyleArrayINSt3__26vectorIN30RuntimeInitializeOnLoadManager9ClassInfoE13stl_allocatorIS4_L18MemLabelIdentifier12ELi16EEEEEEvRT_17TransferMetaFlags
AJh:_UnitySerializationHolder_GetObjectData_m2280028722
Pkj:_PatternCompiler_EmitFalse_m1188949782
aIh:_UInt64_System_IConvertible_ToDateTime_m2412118561
zbc:__ZN9BlobWriteC2ER13dynamic_arrayIhLj16EE24TransferInstructionFlags19BuildTargetPlatform
p3:__ZN14MessageHandler3GetEv
DOh:_GUISkin_set_verticalScrollbarThumb_m2647835739
GAa:__ZN10DynamicVBO9DrawChunkERK21DynamicVBOChunkHandle17ShaderChannelMaskS3_P17VertexDeclarationPKNS_10DrawParamsEi
hd:_emscripten_glAttachShader
gYb:__Z16tesedgeIntersectP10TESSvertexS0_S0_S0_S0_
hyf:_ReadOnlyCollection_1__ctor_m1539890895_gshared
Mta:__ZN9GfxDevice13SetActiveTierE12GraphicsTier
e8e:_Enumerator_System_Collections_IEnumerator_get_Current_m3079057684_AdjustorThunk
djf:_List_1_System_Collections_ICollection_get_SyncRoot_m1804424478_gshared
ixb:__ZNSt3__26vectorIN4core12basic_stringIcNS1_20StringStorageDefaultIcEEEENS_9allocatorIS5_EEE6assignIPS5_EENS_9enable_ifIXaasr21__is_forward_iteratorIT_EE5valuesr16is_constructibleIS5_NS_15iterator_traitsISC_E9referenceEEE5valueEvE4typeESC_SC_
K$f:_KeyPairPersistence_get_UserPath_m3433052783
_pf:_Collection_1_ClearItems_m1410275009_gshared
Tug:__ZL58Decimal_t724701077_CustomAttributesCacheGenerator_MinusOneP21CustomAttributesCache
UVe:_Array_InternalArray__IEnumerable_GetEnumerator_TisKeyframe_t1449471340_m3949799719_gshared
AFb:__Z18Transfer_BlittableI14SafeBinaryReadLb0E11QuaternionfEvRK29SerializationCommandArgumentsR31RuntimeSerializationCommandInfo
mLi:__Z45RuntimeInvoker_X509RevocationMode_t2065307963PK10MethodInfoPvPS2_
$Pb:__Z18Transfer_BlittableI18StreamedBinaryReadILb0EELb1E12PropertyNameEvRK29SerializationCommandArgumentsR31RuntimeSerializationCommandInfo
lTg:__ZL99MonoBehaviour_t1158329972_CustomAttributesCacheGenerator_MonoBehaviour_set_useGUILayout_m2666356651P21CustomAttributesCache
UOe:_InputField_get_inputType_m2187991661
rV:_tlsf_walk_heap
s2f:_PKCS12_Decode_m731190390
lxd:__ZNK15dense_hashtableINSt3__24pairIK10KeyWrapperIP11Il2CppClassES4_EES5_N6il2cpp8metadata16SZArrayClassHashEN14dense_hash_mapIS5_S4_SA_NS5_14EqualsComparerINS9_19SZArrayClassCompareEEENS0_9allocatorIS7_EEE9SelectKeyESE_SG_E10test_emptyERK24dense_hashtable_iteratorIS7_S5_SA_SI_SE_SG_E
Uqi:_InternalEnumerator_1_get_Current_m1550231132_gshared
Fnj:_Reference_get_IgnoreCase_m2810892634
NJh:_Version_CheckedSet_m76493673
mb:invoke_vif
w1g:__ZL99SendMouseEvents_t3505065032_CustomAttributesCacheGenerator_SendMouseEvents_SetMouseMoved_m532965689P21CustomAttributesCache
nb:invoke_vid
vRj:__ZNSt3__212basic_stringIcNS_11char_traitsIcEENS_9allocatorIcEEE6insertEjPKc
uHg:__ZL67UnverifiableCodeAttribute_t765455733_CustomAttributesCacheGeneratorP21CustomAttributesCache
pb:invoke_vii
uQg:__ZL86Component_t3819376471_CustomAttributesCacheGenerator_Component_SendMessage_m3615678587P21CustomAttributesCache
E8g:__ZL82ScrollRect_t1199013257_CustomAttributesCacheGenerator_m_HorizontalScrollbarSpacingP21CustomAttributesCache
FIf:_Int16_System_IConvertible_ToUInt32_m883204517_AdjustorThunk
cxj:_Transform_get_localRotation_m4001487205
Fbb:__ZN12TLSAllocatorI14StackAllocatorE16ThreadInitializeEP13BaseAllocator
Wde:_ArrayList_Sort_m2778059513
K1g:__ZL107StackTraceUtility_t1881293839_CustomAttributesCacheGenerator_StackTraceUtility_SetProjectFolder_m2154926761P21CustomAttributesCache
qMe:_LayoutGroup_SetChildAlongAxis_m2732017156
P1c:__Z41CanvasRenderer_CUSTOM_DisableRectClippingP12Il2CppObject
L7f:_MD2_Create_m539024737
$ie:_SortedList_get_SyncRoot_m3299704254
waf:_List_1_System_Collections_ICollection_CopyTo_m2020941110_gshared
dsd:__ZN15dense_hashtableINSt3__24pairIK10KeyWrapperINS1_IPK12PropertyInfoP11Il2CppClassEEEjEES9_17ReflectionMapHashIS8_EN14dense_hash_mapIS9_jSD_NS9_14EqualsComparerINS0_8equal_toIS8_EEEENS0_9allocatorISB_EEE9SelectKeyESI_SK_E8min_sizeEjj
xIi:__Z51RuntimeInvoker_UInt16_t986882611_Single_t2076509932PK10MethodInfoPvPS2_
Kch:_SoapAttribute_get_XmlNamespace_m1436066016
TKa:__ZN25SingleBlockMemoryFileDataD0Ev
Jdb:__ZNSt3__26vectorI14ConstantStringNS_9allocatorIS1_EEE6assignINS_11__wrap_iterIPS1_EEEENS_9enable_ifIXaasr21__is_forward_iteratorIT_EE5valuesr16is_constructibleIS1_NS_15iterator_traitsISA_E9referenceEEE5valueEvE4typeESA_SA_
$Q:__ZN11UnityEngine15CloudWebService16SessionContainer21ConvertFromFolderTimeERKN4core12basic_stringIcNS2_20StringStorageDefaultIcEEEEPjPt
PGb:__ZNSt3__26vectorI8GUIStyle13stl_allocatorIS1_L18MemLabelIdentifier1ELi16EEE7reserveEj
Ayd:__ZN6il2cpp6icalls8mscorlib6System9Threading6Thread27GetSerializedCurrentCultureEP12Il2CppThread
$Xe:_Array_InternalArray__IndexOf_TisUInt32_t2149682021_m3231515987_gshared
fGj:_ListPool_1__cctor_m709904475_gshared
hNi:__Z83RuntimeInvoker_Void_t1841601450_QuaternionU26_t4187826802_QuaternionU26_t4187826802PK10MethodInfoPvPS2_
n0b:__Z31CalculateHierarchyTransformType23TransformAccessReadOnly
rfd:__ZN15dense_hashtableINSt3__24pairIK10KeyWrapperI13dynamic_arrayIPK10Il2CppTypeLj4EEEPFvvEEES8_N6il2cpp8metadata19Il2CppSignatureHashEN14dense_hash_mapIS8_SB_SF_NS8_14EqualsComparerINSE_22Il2CppSignatureCompareEEENS0_9allocatorISC_EEE9SelectKeyESJ_SL_E12resize_deltaEjj
M_b:__Z13RegisterClassI11TimeManagerEvv
KJ:__ZN4FMOD8ChannelI11setPositionEjj
oCc:__ZN10Collider2D12SetPolygon2DEP9Polygon2D
d6i:_Component_SendMessage_m913946877
vNd:_GC_set_fl_marks
cij:_SynchronizedClientContextSink__ctor_m978504596
l9:__ZN17BaseObjectManager13StaticDestroyEPv
rvj:_TextGenerationSettings_CompareVector2_m592645251
YXg:__ZL137AnimatorControllerPlayable_t4078305555_CustomAttributesCacheGenerator_AnimatorControllerPlayable_INTERNAL_CALL_GetFloatString_m4205749063P21CustomAttributesCache
L1g:__ZL108StackTraceUtility_t1881293839_CustomAttributesCacheGenerator_StackTraceUtility_ExtractStackTrace_m1593581205P21CustomAttributesCache
xre:_DBNull_System_IConvertible_ToChar_m3344298044
F3f:_X509Certificate_GetObjectData_m3888130484
Uzb:__ZNSt3__26vectorIN15ResourceManager10DependencyE13stl_allocatorIS2_L18MemLabelIdentifier51ELi16EEEC2INS_11__wrap_iterIPS2_EEEET_SB_RKS5_PNS_9enable_ifIXaasr21__is_forward_iteratorISB_EE5valuesr16is_constructibleIS2_NS_15iterator_traitsISB_E9referenceEEE5valueEvE4typeE
WMi:__Z45RuntimeInvoker_IMECompositionMode_t1898275508PK10MethodInfoPvPS2_
R6i:_CustomYieldInstruction_Reset_m3409422382
ckj:_LinkStack_Push_m2660199875
EI:__ZN4FMOD6Reverb13setPropertiesEPK22FMOD_REVERB_PROPERTIES
swd:__ZN15dense_hashtableINSt3__24pairIK10KeyWrapperIP11Il2CppClassES4_EES5_N6il2cpp8metadata16SZArrayClassHashEN14dense_hash_mapIS5_S4_SA_NS5_14EqualsComparerINS9_19SZArrayClassCompareEEENS0_9allocatorIS7_EEE9SelectKeyESE_SG_E5clearEv
SVa:__ZN9DepthPass13PrepareSubsetEjRK10RenderNodeifRK17ShaderReplaceData
URh:_Input_get_compositionString_m636835668
irj:_X509CertificateCollection_Add_m4008705157
Zbh:_MonoMethodMessage_set_Uri_m3218581120
Y7b:__Z35SetMeshComponentFromArrayFromScriptR4Mesh30InternalScriptingShaderChannel34InternalScriptingVertexChannelTypei17ScriptingArrayPtri
B9b:__Z18ExtractTagThrowingR11ICallString
_ha:__ZN4PPtrI6ShaderE8TransferI19StreamedBinaryWriteILb0EEEEvRT_
rqf:_Collection_1_IsFixedSize_m1816795498_gshared
HNa:__ZZ23InitPlayerLoopCallbacksvEN40EarlyUpdatePlayerCleanupCachedDatastruct7ForwardEv
vq:__ZN4core20StringStorageDefaultIcE6assignEPKcj
SNh:_GUIStyleState_GetBackgroundInternal_m439046630
SDd:__ZN15dense_hashtableINSt3__24pairIK10KeyWrapperIP12Il2CppObjectEN6il2cpp2gc9CachedCCWEEES5_NS7_5utils11PointerHashIS3_EEN14dense_hash_mapIS5_S9_SD_NS5_14EqualsComparerINS0_8equal_toIS4_EEEENS0_9allocatorISA_EEE9SelectKeyESI_SK_E3endEv
tAb:__Z14resize_trimmedINSt3__26vectorIi13stl_allocatorIiL18MemLabelIdentifier12ELi16EEEEEvRT_j
ZCe:_MouseButtonEventData_ReleasedThisFrame_m482758300
Svd:__ZN15dense_hashtableINSt3__24pairIK10KeyWrapperINS1_IP11Il2CppClassjEEES4_EES6_N6il2cpp8metadata14ArrayClassHashEN14dense_hash_mapIS6_S4_SB_NS6_14EqualsComparerINSA_17ArrayClassCompareEEENS0_9allocatorIS8_EEE9SelectKeyESF_SH_E9copy_fromERKSK_j
Xee:_ReadOnlyArrayListWrapper_set_Item_m2199017141
L3a:__ZN6Camera6SetFarEf
drj:_DeriveBytes_DeriveIV_m3343375195
yPc:_UNITY_FT_Init_Class_ft_bitmap_glyph_class
PWd:_RNGCryptoServiceProvider_GetBytes_m167497991
aka:__ZN6prcoreL12RemapGenericI17TexFormatABGR888817TexFormatARGB8888EEvPKNS_9InnerInfoE
yhb:__ZN11GameManager17MainThreadCleanupEv
Feb:__Z17GetCachingManagerv
mMj:__ZL25UnresolvedVirtualCall_225P12Il2CppObjecti22UICharInfo_t3056636800PK10MethodInfo
Dkd:__ZN6il2cpp6icalls8mscorlib6System18CollectTypeMethodsINS_5utils10functional6FilterINSt3__212basic_stringIcNS7_11char_traitsIcEENS7_9allocatorIcEEEENS4_11StringUtils23CaseInsensitiveComparerEEEEEvP11Il2CppClassPKSH_jRKT_RNS7_6vectorIPK10MethodInfoNSB_ISR_EEEERA65535_b
Nph:_TypeBuilder_get_Assembly_m492491492
bLj:__ZL25UnresolvedVirtualCall_160P12Il2CppObject23RaycastResult_t21186376PK10MethodInfo
lsf:_Collection_1_InsertItem_m1225429801_gshared
_Bc:__ZN10Collider2D12AddToManagerEv
yXc:_UNITY_tt_slot_init
BUd:_HMACSHA512__cctor_m1167457383
mRb:__Z25scripting_array_class_get17ScriptingClassPtrj
nsc:__ZL22Transfer_ManagedObjectI9JSONWriteLb1EEvRK29SerializationCommandArgumentsR31RuntimeSerializationCommandInfo
gva:__ZN9GfxDevice20DestroyRenderSurfaceER12ObjectHandleI17RenderSurface_TagP17RenderSurfaceBaseE
P0b:__ZL24PrepareSpriteRenderNodesILb1EEvR35RenderNodeQueuePrepareThreadContext
HIa:__ZN9GfxDevice22UpdateComputeResourcesEjPK9TextureIDPK16TextureDimensionPKijPKjjPK15ComputeBufferIDS7_PK20ComputeBufferCounterjSC_S2_S5_S9_SF_
l4b:__ZN12_GLOBAL__N_15qAsinEff
d3e:_Dictionary_2_Do_ICollectionCopyTo_TisKeyValuePair_2_t3749587448_m2536766696_gshared
Gbb:__ZN12TLSAllocatorI14StackAllocatorE13ThreadCleanupEv
kO:__Z18GetAudioManagerPtrv
Xaf:_List_1_GetEnumerator_m2837081829_gshared
eMi:__Z67RuntimeInvoker_Void_t1841601450_Int16_t4041245914_Int16_t4041245914PK10MethodInfoPvPS2_
zLd:__ZThn4_N6il2cpp2vm13ComObjectBase16MarshalInterfaceEP13Il2CppIStreamRK10Il2CppGuidPvjS7_j
$tb:__ZN4Mesh27SwizzleVertexColorsIfNeededEb
mcb:__Z27FindActiveTransformWithPathPKc
DDi:__Z63RuntimeInvoker_DSAParameters_t1872138834_BooleanU26_t3168250738PK10MethodInfoPvPS2_
hXg:__ZL151AnimatorControllerPlayable_t4078305555_CustomAttributesCacheGenerator_AnimatorControllerPlayable_INTERNAL_CALL_CrossFadeInFixedTimeInternal_m3528719771P21CustomAttributesCache
k4i:_CanvasGroup_get_alpha_m1304564441
Cib:__ZN12BaseRendererD0Ev
y9a:__Z29StdTemplateConversionFunctionIbyEbPvR14SafeBinaryRead
$4h:_DefaultComparer__ctor_m899694595_gshared
V1i:_AsyncOperation_Finalize_m67522446
YJi:__Z56RuntimeInvoker_TimeSpan_t3430258949_TimeSpan_t3430258949PK10MethodInfoPvPS2_
jPa:_UNITY_png_write_info
YXa:__ZNK6Camera7GetNearEv
Pza:__ZN7ApiGLES11UnmapBufferEjN2gl12BufferTargetE
kHd:__ZN6il2cpp5utilsL24Utf32CharToSurrogatePairEjRA2_Ds
uob:__Z25GetNextAllowedTextureSizeib13TextureFormat
gX:__ZN20LocalFileSystemWebGL4CopyER13FileEntryDataS1_
_Nb:__Z18Transfer_BlittableI18StreamedBinaryReadILb1EELb1EdEvRK29SerializationCommandArgumentsR31RuntimeSerializationCommandInfo
$S:__ZN19CloudServiceHandler6RetainEv
nTd:__ZN6il2cpp2os9Semaphore4WaitEb
jzc:__ZN15b2FrictionJointD0Ev
B$d:_StrongName_Equals_m67226644
Kib:__ZN12BaseRenderer20FlattenToRenderQueueER15RenderNodeQueueRK20DeprecatedSourceData
Pqh:_FieldBuilder_get_Attributes_m2174064290
uSf:_UnmanagedMemoryStream_get_Length_m587008850
Gma:__Z34scripting_liveness_calculation_endPv
MHd:__ZN6il2cpp2os6ThreadC2Ev
q0d:_SecurityFrame_InitFromRuntimeFrame_m45195821
mAg:__ZL53TextReader_t1561828458_CustomAttributesCacheGeneratorP21CustomAttributesCache
ppg:_X509Chain_IsSignedWith_m292245392
QTe:_Array_InternalArray__ICollection_Remove_TisDateTime_t693205669_m1275668216_gshared
E2h:_Dictionary_2__ctor_m871840915_gshared
zOc:__ZNK19TextRenderingModule8TMGenGetERK11UTF16StringPN13TextRendering4FontE10TextAnchor13TextAlignmentfffbb11ColorRGBA32fii
Htc:__Z18Transfer_BlittableI8JSONReadLb0E8Vector3fEvRK29SerializationCommandArgumentsR31RuntimeSerializationCommandInfo
Bfj:_ChannelServices__cctor_m3534779830
txd:__ZN6il2cpp2vm6Thread6DetachEP12Il2CppThread
oTc:_Render_Single_Pass
$me:_Convert_ToInt16_m416789348
s5d:_EncoderExceptionFallback_Equals_m762170768
iJj:__ZL24UnresolvedVirtualCall_59P12Il2CppObjectS0_aPK10MethodInfo
cai:_EqualityComparer_1__cctor_m2666196678_gshared
QLh:_GUIStyle_Init_m3872198731
KA:__ZN7mecanim8skeleton30SkeletonBuildReverseIndexArrayEPiPKiPKNS0_8SkeletonES6_
llc:__Z19GetGUIBlendMaterialv
yId:__ZN6il2cpp2os10ThreadImpl5SleepEjb
Ctj:_X509ExtensionCollection_System_Collections_IEnumerable_GetEnumerator_m2600902401
r4c:__ZN11UnityEngine9Analytics15UserCustomEvent3AddEPKcb
JBb:__ZN15FileSystemEntry4MoveERS_23FileSystemCopyMoveFlags
hjg:_ListDictionary_FindEntry_m432748847
dZj:_glBindSampler__wrapper
hDj:_UnityAction_1_Invoke_m3523417209_gshared
Of:_emscripten_set_mouseup_callback
uIa:__ZN9GfxDevice27SetRandomWriteTargetTextureEi9TextureID
eIi:__Z48RuntimeInvoker_Int64_t909078037_SByte_t454417549PK10MethodInfoPvPS2_
i1f:_PrivateKeyInfo_Normalize_m3959595934
OXg:__ZL123AnimatorControllerPlayable_t4078305555_CustomAttributesCacheGenerator_AnimatorControllerPlayable_Play_m2286317581____layer1P21CustomAttributesCache
vuj:_SpaceAttribute__ctor_m1444406696
pW:__ZNK18ScreenManagerWebGL8GetWidthEv
KTj:dynCall_iiifii
Vhd:__ZN6il2cpp2vm13MetadataCache33GetFieldDefaultValueDataFromIndexEi
ZLe:_GridLayoutGroup_set_startAxis_m1635162426
OF:__ZN10SampleClipD2Ev
hij:_SynchronizationAttribute_EnterContext_m2984912761
Qvg:__ZL73Enum_t2459695545_CustomAttributesCacheGenerator_Enum_ToObject_m2601523252P21CustomAttributesCache
yye:_CultureInfo_construct_internal_locale_from_name_m971766383
xId:__ZN6il2cpp2os10ThreadImpl13SetWaitObjectEPNS0_5posix15PosixWaitObjectE
Dbe:_Byte_Equals_m368616327_AdjustorThunk
g7b:__ZN19SpriteMeshGenerator7contourERNSt3__26vectorINS_6vertexENS0_9allocatorIS2_EEEERiRf
AZe:_Array_InternalArray__ICollection_Add_TisUIVertex_t1204258818_m3869382594_gshared
RD:__Z56AnimationOffsetPlayable_CUSTOM_INTERNAL_CALL_GetPositionR9HPlayableR8Vector3f
UWc:_cff_cmap_unicode_init
PSa:__ZNSt3__224__buffered_inplace_mergeIRN10vector_mapIiN17InstancedPropInfo12PropertyTypeENS_4lessIiEE13stl_allocatorINS_4pairIiS3_EEL18MemLabelIdentifier1ELi16EEE13value_compareENS_11__wrap_iterIPS8_EEEEvT0_SH_SH_T_NS_15iterator_traitsISH_E15difference_typeESL_PNSK_10value_typeE
I0g:__ZL95CustomEventData_t1269126727_CustomAttributesCacheGenerator_CustomEventData_AddInt64_m1803231272P21CustomAttributesCache
Rve:_Enum_ToObject_m2460371738
CZf:_PrimalityTests_Test_m1088386156
Z4:__ZN14FileCacherRead13GetFileLengthEv
knc:__Z36Event_CUSTOM_Internal_SetNativeEvent13Il2Cpp_IntPtr
WPj:_readlink
Csd:__ZN15dense_hashtableINSt3__24pairIK10KeyWrapperINS1_IPK9EventInfoP11Il2CppClassEEEjEES9_17ReflectionMapHashIS8_EN14dense_hash_mapIS9_jSD_NS9_14EqualsComparerINS0_8equal_toIS8_EEEENS0_9allocatorISB_EEE9SelectKeyESI_SK_E12resize_deltaEjj
D1e:_Array_Resize_TisVector3_t2243707580_m893658391_gshared
jni:_InternalEnumerator_1_System_Collections_IEnumerator_get_Current_m4259662004_AdjustorThunk
Y4e:_Array_InternalArray__get_Item_TisKeyframe_t1449471340_m1003508933_gshared
m2f:_StrongName_get_PublicKeyToken_m1968460885
_wb:__ZNK6Sprite9GetBoundsE8Vector2fbb
vRa:__ZNK19RenderEventsContext21CleanupCommandBuffersEv
pya:__ZN11ContextGLES6CreateEi
$Lf:_BinaryReader_Dispose_m4249456877
Tng:_X500DistinguishedName_Decode_m3070515374
eme:_Double_ToString_m1085043609
NQb:__Z19TransferField_ArrayI18StreamedBinaryReadILb0EE27Converter_SimpleNativeClassI17AnimationCurveTplIfEEEvRK23StaticTransferFieldInfoR31RuntimeSerializationCommandInfoRT0_
nag:_CipherSuite_createEncryptionCipher_m1926075645
rbb:__ZN14StackAllocator16FrameMaintenanceEb
pLe:_Graphic_Raycast_m3582517890
cfb:__Z18ReadStringFromFilePN4core17string_with_labelILi1EEERKNS_12basic_stringIcNS_20StringStorageDefaultIcEEEE
v0:__ZNK10GameObject20QueryComponentByTypeEPKN5Unity4TypeE
j9e:_Enumerator_MoveNext_m1367380970_AdjustorThunk
bth:_OpCode_GetHashCode_m2974727122
oag:_CipherSuite_createDecryptionCipher_m1118350455
hlj:_PatternCompiler_EmitReference_m1381860071
UE:__Z78AnimatorControllerPlayable_CUSTOM_INTERNAL_CALL_IsParameterControlledByCurveIDR9HPlayablei
Hue:_Double_System_IConvertible_ToInt16_m4200640326
sfc:__Z53Register_UnityEngine_GameObject_get_activeInHierarchyv
Rrh:_GenericTypeParameterBuilder_get_IsGenericType_m1883522222
qNi:__Z90RuntimeInvoker_Single_t2076509932_Single_t2076509932_Single_t2076509932_Single_t2076509932PK10MethodInfoPvPS2_
x_:__ZL30InitializeCoreScriptingClassesv
htf:_Collection_1_CheckWritable_m3938993573_gshared
Jg:_glBlitFramebuffer
DMa:__ZN17ArchiveFileSystem5TouchER13FileEntryData
Oeg:_SecurityParameters_set_Cipher_m3888132335
KZf:_BigInteger_GeneratePseudoPrime_m2606361440
GFf:_DateTimeFormatInfo_get_ShortTimePattern_m20923983
nIb:__Z35Transfer_Blittable_SingleValueFieldI14SafeBinaryReadhEvRT_R17GeneralMonoObjectRK23StaticTransferFieldInfo
L7g:__ZL140U3CMouseDragOutsideRectU3Ec__Iterator1_t2599668326_CustomAttributesCacheGenerator_U3CMouseDragOutsideRectU3Ec__Iterator1_Dispose_m2134284531P21CustomAttributesCache
e_g:__ZL90Event_t3028476042_CustomAttributesCacheGenerator_Event_Internal_SetNativeEvent_m1899228752P21CustomAttributesCache
K8c:__ZN22BaseUnityConnectClientC2ERN11UnityEngine7Connect20BasePersistentValuesE
fEi:__Z129RuntimeInvoker_Int32_t2071877448_Il2CppObject_Int32_t2071877448_Int32_t2071877448_Il2CppObject_Int32_t2071877448_SByte_t454417549PK10MethodInfoPvPS2_
$0f:_EncryptedPrivateKeyInfo_get_Algorithm_m2779196942
Fch:_RemotingServices_GetRealProxy_m620317996
sWa:__ZN13dynamic_arrayI11CulledLightLj4EE6insertEPS0_PKS0_S4_
Ski:_ArrayReadOnlyList_1_RemoveAt_m2270349795_gshared
Ked:__ZNK15dense_hashtableI10KeyWrapperIPK19Il2CppGenericMethodES4_N6il2cpp8metadata23Il2CppGenericMethodHashEN14dense_hash_setIS4_S7_NS4_14EqualsComparerINS6_26Il2CppGenericMethodCompareEEENSt3__29allocatorIS4_EEE8IdentityESB_SE_E3endEv
oBj:_Predicate_1_Invoke_m2060780095_gshared
Rn:FUNCTION_TABLE_vif
Sn:FUNCTION_TABLE_vid
Un:FUNCTION_TABLE_vii
Sma:__Z40scripting_liveness_calculation_from_root18ScriptingObjectPtrPv
aPa:_UNITY_png_create_write_struct
dDi:__Z149RuntimeInvoker_Boolean_t3825574718_Int32_t2071877448_Il2CppObject_Int32_t2071877448_Int32_t2071877448_Il2CppObject_Int32_t2071877448_SByte_t454417549PK10MethodInfoPvPS2_
hfa:__ZN7Texture23VirtualRedirectTransferER24GenerateTypeTreeTransfer
FMc:_UNITY_FT_Set_Transform
F2b:__ZNK32RendererMaterialAnimationBinding12SetPPtrValueERKN11UnityEngine9Animation10BoundCurveEi
eDd:__ZN6il2cpp8metadata15GenericMetadata20RegisterGenericClassEP18Il2CppGenericClass
KYj:_glDeleteFramebuffers__wrapper
RMe:_Image_get_overrideSprite_m706080347
gHe:_ColorTween_t3438117476_marshal_pinvoke_cleanup
O5f:_BigInteger_ModInverse_m1881894572
Ajd:__ZN6il2cpp2vm7Runtime17GetDelegateInvokeEP11Il2CppClass
_8g:__ZL59Slider_t297367283_CustomAttributesCacheGenerator_m_FillRectP21CustomAttributesCache
Edf:_List_1_AddEnumerable_m3541747636_gshared
Epb:__ZN28EnlightenRendererInformation8TransferI14SafeBinaryReadEEvRT_
rCg:__ZL69DefaultDependencyAttribute_t3858269114_CustomAttributesCacheGeneratorP21CustomAttributesCache
zJa:__ZNK15Lz4Decompressor16DecompressMemoryEPKvPjPvS2_
KRc:_UNITY_tt_face_build_cmaps
HWh:_Ray_ToString_m2019179238
vIc:__ZN11Rigidbody2D8TransferI24GenerateTypeTreeTransferEEvRT_
Lab:__ZNSt3__26__treeINS_12__value_typeIN4core12basic_stringIcNS2_20StringStorageDefaultIcEEEEPN16MemoryFileSystem4NodeEEENS_19__map_value_compareIS6_SA_NS_4lessIS6_EELb1EEE13stl_allocatorISA_L18MemLabelIdentifier54ELi16EEE4findIS6_EENS_15__tree_iteratorISA_PNS_11__tree_nodeISA_PvEEiEERKT_
Yre:_Decimal_System_IConvertible_ToType_m3828527724_AdjustorThunk
fPe:_InputField_get_caretPositionInternal_m3011712053
XQc:_UNITY_tt_face_load_os2
ZHc:__ZN17PolygonCollider2D8TransferI24GenerateTypeTreeTransferEEvRT_
D7f:_HMAC_get_Key_m2528863640
Vtf:_Collection_1_IsSynchronized_m1366278230_gshared
NHg:__ZL93StringBuilder_t1221177846_CustomAttributesCacheGenerator_StringBuilder_AppendLine_m1686706871P21CustomAttributesCache
QHb:__Z29Transfer_Blittable_ArrayFieldI14SafeBinaryRead8Vector4fEvRT_R9ArrayInfoRK23StaticTransferFieldInfo
nSe:_Array_get_swapper_TisInt32_t2071877448_m2837069166_gshared
Ldi:_Selectable_Navigate_m915280351
bYh:_RectTransform_INTERNAL_get_rect_m1177342209
mpf:_Collection_1_Clear_m268154422_gshared
rCe:_PointerEventData_IsScrolling_m1971908975
WYg:__ZL53UILineInfo_t3621277874_CustomAttributesCacheGeneratorP21CustomAttributesCache
zNd:_GC_print_finalization_stats
vx:__ZN7mecanim9animation12EvaluateClipEPKNS0_4ClipEPKNS0_9ClipInputEPNS0_10ClipMemoryEPNS0_10ClipOutputE
Qpb:__ZN4PPtrI11LightProbesE8TransferI18StreamedBinaryReadILb0EEEEvRT_
cej:_ComVisibleAttribute__ctor_m1789587486
pwh:_MonoMethodInfo_GetReturnType_m2864247130
i0a:__ZN13RenderManager29SetCurrentCameraAndStackStateEP6CameraP25CameraStackRenderingState
fxd:__ZN15dense_hashtableINSt3__24pairIK10KeyWrapperINS1_IP11Il2CppClassjEEES4_EES6_N6il2cpp8metadata14ArrayClassHashEN14dense_hash_mapIS6_S4_SB_NS6_14EqualsComparerINSA_17ArrayClassCompareEEENS0_9allocatorIS8_EEE9SelectKeyESF_SH_E12resize_deltaEjj
Yh:_JS_WebRequest_Release
mNf:_DirectoryNotFoundException__ctor_m2242202556
zR:__ZN11UnityEngine15CloudWebService14DataErrorEventD0Ev
b4d:_String_CreateString_m2448464375
Wqg:_X509SubjectKeyIdentifierExtension__ctor_m2959112706
euh:_FieldInfo_get_IsNotSerialized_m2322769148
CLg:__ZL68Math_t2022911894_CustomAttributesCacheGenerator_Math_Max_m2671311541P21CustomAttributesCache
aDd:__ZN6il2cpp8metadata15GenericMetadata7InflateEPK19Il2CppGenericMethodPK20Il2CppGenericContext
jSa:__ZN19ShaderPropertySheet16SetArrayPropertyEN9ShaderLab16FastPropertyNameENS_12PropertyTypeEPKvj
iwh:_MonoGenericCMethod_get_ReflectedType_m2689239043
Wtf:_Collection_1_IsFixedSize_m499196375_gshared
iHe:_ColorTween_set_startColor_m3546206870_AdjustorThunk
yDd:__ZN15dense_hashtableINSt3__24pairIK10KeyWrapperIP12Il2CppObjectEN6il2cpp2gc9CachedCCWEEES5_NS7_5utils11PointerHashIS3_EEN14dense_hash_mapIS5_S9_SD_NS5_14EqualsComparerINS0_8equal_toIS4_EEEENS0_9allocatorISA_EEE9SelectKeyESI_SK_E16reset_thresholdsEv
Aug:__ZL63String_t_CustomAttributesCacheGenerator_String_Split_m394273024P21CustomAttributesCache
O_c:__ZN2UI11CanvasGroup23VirtualRedirectTransferER19StreamedBinaryWriteILb0EE
Ypi:_InternalEnumerator_1_get_Current_m4083613828_gshared
vmc:__ZN8GUIState8EndOnGUIEv
Bzh:_UnicodeEncoding_GetString_m542738941
FXc:_UNITY_TT_Get_VMetrics
NMf:_Path_InsecureGetFullPath_m2635272425
Tje:_Enumerator_Clone_m1124749523
Upe:_DateTime_System_IConvertible_ToUInt32_m1363211018
pih:_RuntimeMethodHandle__ctor_m1162528746
pjf:_List_1_AsReadOnly_m4108578222_gshared
Jkh:_DSA__ctor_m613430209
MUe:_SetPropertyUtility_SetStruct_TisSingle_t2076509932_m3849235084_gshared
aBa:__ZN7Texture21GetMasterTextureLimitEv
T4a:__Z12CanAddScriptR10GameObject17ScriptingClassPtrPS1_S2_
Bvd:__ZN6il2cpp2vm10Reflection12HasAttributeEP12Il2CppObjectP11Il2CppClass
yQa:_UNITY_png_write_sRGB
Mvc:__ZN8JSONRead21TransferSTLStyleArrayI13dynamic_arrayI4AABBLj4EEEEvRT_18MemLabelIdentifier17TransferMetaFlags
ICj:_InvokableCall_1__ctor_m121193486_gshared
F0:__ZN9ShaderLabL25StaticInitializeShaderLabEPv
e4h:_Dictionary_2_ContainsKeyValuePair_m3818021458_gshared
U:Math_max
duf:_Collection_1_System_Collections_IList_Insert_m1511106741_gshared
PJj:__ZL24UnresolvedVirtualCall_92P12Il2CppObjectPK10MethodInfo
Kld:_il2cpp_class_get_methods
QMf:_Path_CanonicalizePath_m383914732
cxi:_Enumerator_System_Collections_IEnumerator_get_Current_m1631145297_gshared
$de:_ArrayList_Synchronized_m2395071980
UHd:__ZN6il2cpp2os6Thread16GetCurrentThreadEv
G4b:__ZN10GameObject13ComponentPair15SetComponentPtrEPN5Unity9ComponentE
oSf:_UnexceptionalStreamWriter_Write_m3206913035
x_b:__Z13RegisterClassI10MeshFilterEvv
$C:__ZNK26AnimatorControllerPlayable24GetAnimatorClipInfoCountEib
wib:__ZN10TagManager8TransferI19StreamedBinaryWriteILb0EEEEvRT_
JEb:__ZN11PreloadData23VirtualRedirectTransferER18StreamedBinaryReadILb0EE
Hkh:_DESTransform_ProcessBlock_m2826669227
NLi:__Z115RuntimeInvoker_Void_t1841601450_Il2CppObject_Int32_t2071877448_Int32_t2071877448_SByte_t454417549_Int32_t2071877448PK10MethodInfoPvPS2_
IIf:_Int16_CompareTo_m3493496879
XSi:__Z36RuntimeInvoker_Direction_t1525323322PK10MethodInfoPvPS2_
STg:__ZL56RenderTexture_t2666733923_CustomAttributesCacheGeneratorP21CustomAttributesCache
v1g:__ZL56ColorWriteMask_t926634530_CustomAttributesCacheGeneratorP21CustomAttributesCache
Srb:__ZN6Sprite17MainThreadCleanupEv
iOg:__ZL56OidCollection_t3790243618_CustomAttributesCacheGeneratorP21CustomAttributesCache
JGg:__ZL61SignatureDescription_t89145500_CustomAttributesCacheGeneratorP21CustomAttributesCache
ypi:_InternalEnumerator_1_MoveNext_m3389738333_AdjustorThunk
aL:__ZN10AudioMixer14UpdateMuteSoloEv
iRa:__Z17GetMonoManagerPtrv
jzd:__ZN6il2cpp2vm9Exception27RaiseNullReferenceExceptionEv
Vlf:_Stack_1_System_Collections_ICollection_get_SyncRoot_m3151629354_gshared
rbi:_MaskableGraphic_UnityEngine_UI_IClippable_get_gameObject_m954171032
Vfa:__ZN9ShaderLab10SubProgram7CompileEv
dAa:__ZN7ApiGLES16SetPatchVerticesEi
MPf:_MonoIOStat_t1621921065_marshal_pinvoke
hKa:__ZN10MemoryFileC2E18MemLabelIdentifierP14MemoryFileData14FilePermission
Ndh:_TrackingServices_NotifyUnmarshaledObject_m1794048369
Mad:__ZN6il2cpp2vm5Class20FromGenericParameterEPK22Il2CppGenericParameter
REg:__ZL59RemotingServices_t2399536837_CustomAttributesCacheGeneratorP21CustomAttributesCache
BT:__ZN19CloudServiceHandler11FlushEventsEv
wbj:_AnimatorControllerPlayable_INTERNAL_CALL_GetAnimatorClipInfoInternal_m3180917212
L8:__ZN15GlobalCallbacksC2Ev
qdb:__ZN11AssetBundle8TransferI14SafeBinaryReadEEvRT_
d0e:_Array_InternalArray__set_Item_TisLabelFixup_t4090909514_m565370771_gshared
jFc:__ZN7b2World10CreateBodyEPK9b2BodyDef
eOc:_UNITY_FT_New_Memory_Face
$Mg:__ZL74X509Crl_t1699034837_CustomAttributesCacheGenerator_U3CU3Ef__switchU24map13P21CustomAttributesCache
Fhh:_SerializationEntry__ctor_m1619256036_AdjustorThunk
oE:__Z81AnimatorControllerPlayable_CUSTOM_INTERNAL_CALL_GetAnimatorTransitionInfoInternalR9HPlayablei
UNa:__ZZ23InitPlayerLoopCallbacksvEN43PostLateUpdatePlayerSendFrameCompletestruct7ForwardEv
kta:__ZN26VertexDeclarationCacheGLES24DestroyVertexDeclarationEP17VertexDeclaration
_9c:__ZL7log2_32j
TZb:__ZN15ApplicationInfo14GetSandboxTypeEv
NSh:_Material_HasProperty_m3175512802
tIb:__Z18Transfer_BlittableI17RemapPPtrTransferLb1EhEvRK29SerializationCommandArgumentsR31RuntimeSerializationCommandInfo
fKd:__ZNSt3__26vectorIjNS_9allocatorIjEEE26__swap_out_circular_bufferERNS_14__split_bufferIjRS2_EE
g3a:__ZN16ReflectionProbes40UpdateRealtimeReflectionProbesTimeslicedEv
TFj:_ListPool_1_Get_m529219189_gshared
LFd:__ZNSt3__26__treeINS_12__value_typeIP24Il2CppReflectionAssemblyPvEENS_19__map_value_compareIS3_S5_NS_4lessIS3_EELb1EEENS_9allocatorIS5_EEE16__insert_node_atEPNS_16__tree_node_baseIS4_EERSF_SF_
osh:_MethodBuilder_GetBaseDefinition_m774166361
Ofh:_FormatterConverter__ctor_m3958982477
l2b:__ZN16ReflectionProbes15InitializeClassEv
YOc:_UNITY_FT_Destroy_Class_psnames_module_class
OAc:__ZNK12b2WheelJoint17GetReactionTorqueEf
Ggd:__ZNK15dense_hashtableINSt3__24pairIK10KeyWrapperIPK11Il2CppClassEPKcEES6_N6il2cpp5utils11PointerHashIS3_EEN14dense_hash_mapIS6_S9_SE_NS6_14EqualsComparerINS0_8equal_toIS5_EEEENS0_9allocatorISA_EEE9SelectKeyESJ_SL_E12test_deletedEj
Lkj:_MRUList_Evict_m2430323183
Pyf:_ReadOnlyCollection_1_System_Collections_Generic_ICollectionU3CTU3E_Remove_m1060547576_gshared
LEd:__ZN6il2cpp2vm5Image9GetCorlibEv
PPc:_ft_bitmap_glyph_bbox
wA:__ZN8Animator13BatchedFKPassERK13dynamic_arrayIP14PlayableOutputLj4EE
kOd:_GC_reclaim_uninit
K5i:_Component_GetComponent_m4225719715
AKe:_Graphic_set_raycastTarget_m1229173591
z2e:_Array_Sort_TisVector4_t2243707581_m474199742_gshared
Rdf:_List_1_CheckIndex_m2247532995_gshared
f0g:__ZL93GUIUtility_t3275770671_CustomAttributesCacheGenerator_GUIUtility_set_guiIsExiting_m2362636745P21CustomAttributesCache
YRf:_TextWriter_Write_m576684782
Kyj:_Vector3_Max_m2105825185
Uj:_glIsVertexArray
yF:__Z100Register_UnityEngine_Experimental_Director_AnimatorControllerPlayable_INTERNAL_CALL_SetIntegerStringv
MAb:__ZNSt3__26vectorIN4core12basic_stringIcNS1_20StringStorageDefaultIcEEEE13stl_allocatorIS5_L18MemLabelIdentifier12ELi16EEEC2INS_11__wrap_iterIPS5_EEEET_SE_RKS8_PNS_9enable_ifIXaasr21__is_forward_iteratorISE_EE5valuesr16is_constructibleIS5_NS_15iterator_traitsISE_E9referenceEEE5valueEvE4typeE
gKa:__ZN25SingleBlockMemoryFileDataC2E18MemLabelIdentifierPvjb
Gcb:__ZN5Unity9Component8TransferI18StreamedBinaryReadILb0EEEEvRT_
fa:invoke_fff
jii:_Text_get_fontSize_m3105730761
PVj:b14
Neg:_TlsServerHello_Update_m1740270635
ZZc:__ZN2UI6Canvas17MainThreadCleanupEv
Ecd:__ZN13Il2CppHashMapIPK19Il2CppGenericMethodPK26Il2CppGenericMethodIndicesN6il2cpp8metadata23Il2CppGenericMethodHashENS7_26Il2CppGenericMethodCompareENSt3__29allocatorINSA_4pairIK10KeyWrapperIS2_ES5_EEEEEC2EjRKS8_RKS9_
tjf:_List_1_Find_m3862454845_gshared
FFe:_CanvasScaler_get_physicalUnit_m3637173174
Akj:_MatchCollection_get_Item_m2609281578
WGa:__ZN7ApiGLES13CreateProgramEv
nkb:__ZN11HaloManager7AddHaloEv
zAh:_UTF8Encoding__ctor_m100325490
nBa:__ZN4crnd12crn_unpackerD2Ev
Ohi:_StencilMaterial_ClearAll_m1372779118
ek:_emscripten_glTexImage2D
dch:_ObjRefSurrogate_SetObjectData_m1873902916
qXc:_tt_driver_class_pic_init
p_:__ZN18ScriptingArguments9AddStringEPKc
EOd:_setup_header
qwf:_ReadOnlyCollection_1_System_Collections_IList_get_IsReadOnly_m1367736517_gshared
iQg:__ZL116Component_t3819376471_CustomAttributesCacheGenerator_Component_GetComponentsInParent_m1920178904____includeInactive1P21CustomAttributesCache
wSj:runPostSets
R3g:__ZL93AxisEventData_t1524870173_CustomAttributesCacheGenerator_AxisEventData_set_moveDir_m254243794P21CustomAttributesCache
spa:__ZL23stbir__resize_arbitraryPvPKviiiS_iiiffffPfiij14stbir_datatype12stbir_filterS4_10stbir_edgeS5_16stbir_colorspace
lff:_List_1_System_Collections_IList_Insert_m848656350_gshared
f7b:__ZN19SpriteMeshGenerator4maskC2EP11ColorRGBA32iihj
jKb:__Z18Transfer_BlittableI24GenerateTypeTreeTransferLb1E8Vector4fEvRK29SerializationCommandArgumentsR31RuntimeSerializationCommandInfo
gJf:_Int16_ToString_m3971652088_AdjustorThunk
kKj:__ZL25UnresolvedVirtualCall_115P12Il2CppObjecttaaPK10MethodInfo
pk:_pthread_detach
wid:__ZN6il2cpp2vm19SocketPollingThread7RunLoopEv
D6e:_KeyValuePair_2__ctor_m1640124561_AdjustorThunk
Rjj:_MethodDictionary_AllocInternalProperties_m3261295876
Ohc:__ZN15DirectorManager20ScheduleGraphDestroyERK14HPlayableGraph
$ra:__ZNSt3__213__stable_sortIRN10vector_mapI17ScriptingClassPtrPKN5Unity4TypeENS_4lessIS2_EENS_9allocatorINS_4pairIS2_S6_EEEEE13value_compareENS_11__wrap_iterIPSB_EEEEvT0_SJ_T_NS_15iterator_traitsISJ_E15difference_typeEPNSM_10value_typeEi
yOg:__ZL77U3CPrivateImplementationDetailsU3E_t1486305139_CustomAttributesCacheGeneratorP21CustomAttributesCache
IUb:__ZN9ShaderLab25SerializedTextureProperty8TransferI24GenerateTypeTreeTransferEEvRT_
teb:__ZN15dense_hashtableINSt3__24pairIKN4core12basic_stringIcNS2_20StringStorageDefaultIcEEEEP11AssetBundleEES6_20StringHash32FunctionIS6_EN14dense_hash_mapIS6_S9_SC_NS0_8equal_toIS6_EENS0_9allocatorISA_EEE9SelectKeyESF_SH_E12resize_deltaEjj
u1j:_emscripten_glIsShader__wrapper
ttd:__ZN6il2cpp2gc19AppendOnlyGCHashMapINSt3__24pairIPK14Il2CppAssemblyP11Il2CppClassEEP24Il2CppReflectionAssembly17ReflectionMapHashIS9_ENS2_8equal_toIS9_EEEC2Ev
GSc:_tt_cmap14_char_next
pBg:__ZL69AssemblyTrademarkAttribute_t3740556705_CustomAttributesCacheGeneratorP21CustomAttributesCache
Uwa:__ZN13GfxDeviceGLES28GetNativeVertexBufferPointerEP9GfxBuffer
fea:__ZN11NamedObject8TransferI18StreamedBinaryReadILb0EEEEvRT_
UFa:__ZNK17GPUSkinPoseBuffer12GetBoneCountEv
roc:__Z32GUIStyle_Get_Custom_PropFontSizeP12Il2CppObject
whh:_DelegatePInvokeWrapper_CallbackHandler_t362827733
YLg:__ZL59ResolveEventArgs_t1859808873_CustomAttributesCacheGeneratorP21CustomAttributesCache
qDj:_UnityAction_1_BeginInvoke_m3462722079_gshared
PBd:__ZNK15dense_hashtableINSt3__24pairIK10KeyWrapperIP14Il2CppIUnknownEjEES5_N6il2cpp5utils11PointerHashIS3_EEN14dense_hash_mapIS5_jSB_NS5_14EqualsComparerINS0_8equal_toIS4_EEEENS0_9allocatorIS7_EEE9SelectKeyESG_SI_E12test_deletedEj
Yth:_EventInfo_get_MemberType_m3337516651
suc:__Z18Transfer_BlittableI8JSONReadLb1EyEvRK29SerializationCommandArgumentsR31RuntimeSerializationCommandInfo
Mk:_emscripten_glMatrixMode
Rr:__ZN8Animator23VirtualRedirectTransferER18StreamedBinaryReadILb0EE
UAg:__ZL93TypeBuilder_t3308873219_CustomAttributesCacheGenerator_TypeBuilder_GetConstructors_m774120094P21CustomAttributesCache
aOf:_NotSupportedException__ctor_m836173213
Pbh:_MethodReturnDictionary__ctor_m756139344
VQ:__ZN11UnityEngine15CloudWebService14DataDispatcher16PrepareDataBlockERNS0_16SessionContainerE
lHa:__ZN18GfxFramebufferGLES5ClearE13GfxClearFlagsRK10ColorRGBAffib
skf:_List_1_GetIndex_m2513359832_gshared
smi:_InternalEnumerator_1__ctor_m967618647_gshared
vYi:__Z62RuntimeInvoker_ParameterModifier_t1820634920_Int32_t2071877448PK10MethodInfoPvPS2_
eQb:__ZL26Transfer_SimpleNativeClassI18StreamedBinaryReadILb0EE10RectOffsetLb0EEvRK29SerializationCommandArgumentsR31RuntimeSerializationCommandInfo
VOc:_UNITY_ft_destroy_default_module_classes
W1f:_SymmetricTransform_FinalDecrypt_m3674669784
Sbf:_List_1_CheckMatch_m1772343151_gshared
BVa:__ZL12DepthPassJobPN21GfxDeviceAsyncCommand10ArgScratchEPKNS_3ArgE
lTb:__ZNSt3__26vectorIN9ShaderLab20SerializedSubProgram16TextureParameterENS_9allocatorIS3_EEE6assignINS_11__wrap_iterIPS3_EEEENS_9enable_ifIXaasr21__is_forward_iteratorIT_EE5valuesr16is_constructibleIS3_NS_15iterator_traitsISC_E9referenceEEE5valueEvE4typeESC_SC_
ALf:_IntPtr_Equals_m1214967011_AdjustorThunk
lif:_List_1_Add_m3591975577_gshared
L1c:__Z55Register_UnityEngine_CanvasGroup_get_ignoreParentGroupsv
Z_b:__Z13RegisterClassI19LowerResBlitTextureEvv
X3g:__ZL100PointerEventData_t1599784723_CustomAttributesCacheGenerator_U3CpointerPressRaycastU3Ek__BackingFieldP21CustomAttributesCache
Qm:FUNCTION_TABLE_iiiiiiiiiiii
Qjb:__ZN16GraphicsSettingsD0Ev
d9a:__Z29StdTemplateConversionFunctionIshEbPvR14SafeBinaryRead
C_j:_pthread_mutex_init__wrapper
I1a:__ZN15LODGroupManager21CalculateLODDataArrayERK13LODParametersPK6Cameraf
n:cttz_i8
jVc:_UNITY_FT_GlyphLoader_Add
xmi:_InternalEnumerator_1_System_Collections_IEnumerator_get_Current_m1004764375_AdjustorThunk
SVg:__ZL108Physics2D_t2540166467_CustomAttributesCacheGenerator_Physics2D_GetRayIntersectionAll_m253330691____distance1P21CustomAttributesCache
KFf:_DateTimeFormatInfo_get_FullDateTimePattern_m2607507656
lfg:_HttpsClientStream_RaiseServerCertificateValidation_m3356770426
Zwg:__ZL73Il2CppArray_CustomAttributesCacheGenerator_Array_BinarySearch_m3052238307P21CustomAttributesCache
Lte:_DelegateSerializationHolder__ctor_m3915060553
PAb:__ZN15SerializeTraitsINSt3__26vectorIN30RuntimeInitializeOnLoadManager9ClassInfoE13stl_allocatorIS3_L18MemLabelIdentifier12ELi16EEEEE8TransferI24GenerateTypeTreeTransferEEvRS7_RT_
T2e:_Array_swap_TisUIVertex_t1204258818_TisUIVertex_t1204258818_m1163375424_gshared
Il:_emscripten_glViewport
AZb:__Z21GenerateTilingAreaJobP22GenerateTilingAreaInfoj
mLd:__ZN6il2cpp6icalls8mscorlib6System15MonoCustomAttrs17IsDefinedInternalEP12Il2CppObjectP20Il2CppReflectionType
Ltb:__ZN4Mesh21UnswizzleVertexColorsEb
S9:__ZN30dense_hashtable_const_iteratorINSt3__24pairIKN4core12basic_stringIcNS2_20StringStorageDefaultIcEEEEP11AssetBundleEES6_20StringHash32FunctionIS6_EN14dense_hash_mapIS6_S9_SC_NS0_8equal_toIS6_EENS0_9allocatorISA_EEE9SelectKeyESF_SH_EppEv
Ceg:_TlsServerSettings_set_CertificateTypes_m264196087
Ini:_InternalEnumerator_1__ctor_m4150855019_gshared
Nqe:_DateTime_ToString_m2276663647_AdjustorThunk
nXc:_cff_parse_font_bbox
scc:__Z35Application_Get_Custom_PropIsEditorv
vB:__GLOBAL__sub_I_runtime_animation2_lump_cpp
Myb:__ZN14PlayerSettings23VirtualRedirectTransferER18StreamedBinaryReadILb0EE
$5e:_KeyValuePair_2__ctor_m3201181706_AdjustorThunk
GTd:__ZN6il2cpp2os5Event5ResetEv
f$a:__Z26CombineDepthNormalsTextureRK17RenderLoopContextR13dynamic_arrayI16RenderObjectDataLj4EE
Bbj:_AnimatorControllerPlayable_GetCurrentAnimatorClipInfoCount_m335090574
OCd:__ZN6il2cpp8metadata15GenericMetadata17InflateParametersEPK13ParameterInfohPK20Il2CppGenericContextb
LKf:_Int64_System_IConvertible_ToUInt32_m850395426_AdjustorThunk
$1:__ZN18AwakeFromLoadQueue28InvokePersistentManagerAwakeEPNS_4ItemEj17AwakeFromLoadMode
aTg:__ZL93MonoBehaviour_t1158329972_CustomAttributesCacheGenerator_MonoBehaviour_IsInvoking_m1469271462P21CustomAttributesCache
h2i:_PCMReaderCallback_Invoke_m3610389815
yUd:_HMACSHA512__ctor_m2390736870
Ru:__ZNK17AnimationPlayable27GetNextCompatibleDescendantEi
ps:__ZN8Animator20ProcessAnimationsJobEPNS_11AnimatorJobEj
Kwb:__ZN4PPtrI6SpriteE8TransferI18StreamedBinaryReadILb0EEEEvRT_
xqh:_TypeBuilder_GetInterfaces_m1818658502
Qgg:_TlsException_get_Alert_m4022765752
C5f:_BigInteger_op_Equality_m2683055762
RMj:_GameController_GetLifePoints_m4174834142
Oaa:__Z25SetNeedToPerformRenderingb
Dwh:_MonoMethod_GetPseudoCustomAttributes_m466965107
dnj:__ZN21InterfaceFuncInvoker0IP19LinkRef_t2090853131E6InvokeEjP11Il2CppClassP12Il2CppObject
tZa:__ZNSt3__227__insertion_sort_incompleteIR23CompareReflectionProbesP31RuntimeReflectionProbeBlendInfoEEbT0_S5_T_
QVa:__ZN14qsort_internal30FindAndMovePivotToLastPositionIP15RODataDepthPassi17ROSorterDepthPassEEvT_S4_T0_T1_
iZh:_ResourceRequest_t2560315377_marshal_pinvoke
NZh:_Enumerator_System_Collections_IDictionaryEnumerator_get_Value_m3005608231_gshared
DIj:__ZL24UnresolvedVirtualCall_26P12Il2CppObjectS0_iiPK10MethodInfo
Iai:_MaskUtilities_NotifyStencilStateChanged_m1527407683
P1a:__ZN12CullingGroup10SendEventsEPK17CullingGroupEventj
k$f:_DSAManaged_GenerateKeyPair_m2711647034
P7a:__ZN13sorted_vectorINSt3__24pairIN4core12basic_stringIcNS2_20StringStorageDefaultIcEEEES6_EEN10vector_mapIS6_S6_27compare_tstring_insensitiveIS6_E13stl_allocatorIS7_L18MemLabelIdentifier37ELi16EEE13value_compareESD_E9erase_oneIS6_EEjRKT_
wqb:__ZThn32_NK8Renderer8GetLayerEv
dZe:_Array_InternalArray__ICollection_Add_TisResourceCacheItem_t333236149_m1151081240_gshared
vzf:_ReadOnlyCollection_1_System_Collections_Generic_ICollectionU3CTU3E_get_IsReadOnly_m2197226755_gshared
pne:_Convert_ToInt32_m2209788057
QKb:__ZN15SerializeTraitsI31ArrayOfManagedObjectsTransfererE8TransferI24GenerateTypeTreeTransferEEvRS0_RT_
ifh:_SoapServices_GetXmlTypeForInteropType_m3821579913
eai:_EqualityComparer_1_System_Collections_IEqualityComparer_Equals_m3601790950_gshared
W$g:__ZL117GUIStyle_t1799908754_CustomAttributesCacheGenerator_GUIStyle_INTERNAL_CALL_Internal_GetCursorPixelPosition_m562482816P21CustomAttributesCache
t$j:_emscripten_glTexParameterfv__wrapper
Rnj:_CaptureAssertion_IsComplex_m1433259302
NVh:_Physics2D_INTERNAL_CALL_Internal_Raycast_m489831109
Bmd:_il2cpp_method_get_param_count
mZb:__ZN10systeminfo19ISOToSystemLanguageERN4core12basic_stringIcNS0_20StringStorageDefaultIcEEEE
hFc:__ZN18StreamedBinaryReadILb0EE21TransferSTLStyleArrayI13dynamic_arrayIS2_I8Vector2fLj4EELj4EEEEvRT_17TransferMetaFlags
msd:__ZNK15dense_hashtableINSt3__24pairIK10KeyWrapperINS1_IPK12PropertyInfoP11Il2CppClassEEEjEES9_17ReflectionMapHashIS8_EN14dense_hash_mapIS9_jSD_NS9_14EqualsComparerINS0_8equal_toIS8_EEEENS0_9allocatorISB_EEE9SelectKeyESI_SK_E3endEv
xIc:__ZN11Rigidbody2D8TransferI19StreamedBinaryWriteILb0EEEEvRT_
ZTd:__ZN6il2cpp8metadata26Il2CppGenericMethodCompare6EqualsEPK19Il2CppGenericMethodS4_
Lca:__ZNSt3__26vectorIP10MemoryPool13stl_allocatorIS2_L18MemLabelIdentifier72ELi16EEE21__push_back_slow_pathIKS2_EEvRT_
Fwj:_TouchScreenKeyboard_get_active_m1442597648
sOg:__ZL68Uri_t19570940_CustomAttributesCacheGenerator_U3CU3Ef__switchU24map15P21CustomAttributesCache
FTc:_ps_dimension_done
MEe:_LayoutRebuilder_MarkLayoutForRebuild_m640589351
PZc:__Z46Register_UnityEngine_TextGenerator_Dispose_cppv
tCe:_PointerEventData_get_pressEventCamera_m724559964
I_d:_String_IndexOfUnchecked_m3356721554
jpb:__ZN16LightmapSettings8TransferI14SafeBinaryReadEEvRT_
zCa:__ZN17BufferManagerGLES13ReleaseBufferEP14DataBufferGLES
XBi:__Z94RuntimeInvoker_Int32_t2071877448_Il2CppObject_Int32_t2071877448_Int32_t2071877448_Il2CppObjectPK10MethodInfoPvPS2_
quc:__Z18Transfer_BlittableI8JSONReadLb1EjEvRK29SerializationCommandArgumentsR31RuntimeSerializationCommandInfo
HVg:__ZL82Physics2D_t2540166467_CustomAttributesCacheGenerator_Physics2D_Raycast_m3913913442P21CustomAttributesCache
w8g:__ZL63ScrollRect_t1199013257_CustomAttributesCacheGenerator_m_InertiaP21CustomAttributesCache
Zqj:_PKCS12_Decrypt_m1557069392
Bii:_VertexHelper_AddUIVertexQuad_m280792808
rmg:_WebHeaderCollection_ToString_m1246460752
Xni:_InternalEnumerator_1_System_Collections_IEnumerator_get_Current_m2842514953_AdjustorThunk
iVi:__Z56RuntimeInvoker_Boolean_t3825574718_UriScheme_t1876590943PK10MethodInfoPvPS2_
ip:stackSave
stj:_X509CrlEntry_get_Extensions_m79989256
$Tc:_ps_dimension_end
Ogc:__Z41Register_UnityEngine_Mesh_Internal_Createv
Hab:__ZN16MemoryFileSystem5TouchER13FileEntryData
iwb:__ZN14SpriteRenderer23VirtualRedirectTransferER24GenerateTypeTreeTransfer
MCd:__ZNK15dense_hashtableI10KeyWrapperIP18Il2CppGenericClassES3_N6il2cpp8metadata22Il2CppGenericClassHashEN14dense_hash_setIS3_S6_NS3_14EqualsComparerINS5_25Il2CppGenericClassCompareEEENSt3__29allocatorIS3_EEE8IdentityESA_SD_E12test_deletedERK30dense_hashtable_const_iteratorIS3_S3_S6_SF_SA_SD_E
Obd:__ZN6il2cpp2vm5Class14GetNestedTypesEP11Il2CppClassPPv
_Ud:_MACTripleDES_Initialize_m1318099802
p8f:_MD5SHA1_VerifySignature_m507888141
Qae:_Byte_System_IConvertible_ToChar_m4188836679
sFf:_NumberFormatter_InitDecHexDigits_m2036076025
q_h:_Enumerator_get_CurrentKey_m3839846791_AdjustorThunk
bvc:__ZN8JSONRead21TransferSTLStyleArrayI13dynamic_arrayIaLj1EEEEvRT_18MemLabelIdentifier17TransferMetaFlags
R3a:__ZN6Camera9SetAspectEf
rHe:_ColorTween_get_ignoreTimeScale_m641454126_AdjustorThunk
xa:invoke_viiffiii
Rvf:_ReadOnlyCollection_1_Contains_m1800950533_gshared
j5g:__ZL79TouchInputModule_t2561058385_CustomAttributesCacheGenerator_m_ForceModuleActiveP21CustomAttributesCache
L0j:_emscripten_glBindVertexArray__wrapper
T7f:_MD4__ctor_m2366413460
h7i:_Display__ctor_m563295973
a0g:__ZL97GUIStyle_t1799908754_CustomAttributesCacheGenerator_GUIStyle_Internal_CalcMinMaxWidth_m3660306863P21CustomAttributesCache
P3h:_Dictionary_2_InitArrays_m435313205_gshared
LF:__ZN10ObjectPoolIN4FMOD3DSPENS0_4DSPIEE7GetFreeEi
M4a:__ZN9Transform37InitializeTransformHierarchyRecursiveER18TransformHierarchyRii
m0b:__Z34DefaultPrepareDispatchBoundsUpdateR13RendererScene18MemLabelIdentifier
BKe:_Graphic_get_useLegacyMeshGeneration_m1366444625
f7g:__ZL65InputField_t1631627530_CustomAttributesCacheGenerator_m_InputTypeP21CustomAttributesCache
BJj:__ZL24UnresolvedVirtualCall_78P12Il2CppObjectPK10MethodInfo
zZf:_ModulusRing_Pow_m1137250399
oui:_InternalEnumerator_1_MoveNext_m2410670600_AdjustorThunk
nhg:_SslStreamBase_resetBuffer_m3028042362
NRa:__ZN17MeshRenderingData4InitEP4MeshS1_iP15SharedGfxBufferS3_
$Cj:_InvokableCall_2_Find_m1763382885_gshared
Ayf:_ReadOnlyCollection_1_System_Collections_ICollection_get_SyncRoot_m2779904122_gshared
r8h:_EqualityComparer_1_System_Collections_IEqualityComparer_Equals_m1682986002_gshared
whe:_Hashtable__cctor_m2952659675
Eqg:_X509ChainStatus__ctor_m3628359961_AdjustorThunk
Gah:__ZL77LayoutUtility_t4076838048_CustomAttributesCacheGenerator_U3CU3Ef__amU24cache4P21CustomAttributesCache
Y_d:_Evidence_get_HostEvidenceList_m2095478124
Wjc:__Z57Register_UnityEngine_Transform_INTERNAL_set_localPositionv
ubg:_Context_Clear_m4000337070
fxa:__ZN13GfxDeviceGLES26SetRandomWriteTargetBufferEi15ComputeBufferID
otg:_IntervalCollection_Normalize_m538796191
Yje:_Console_SetEncodings_m342145566
Pwj:_TrackedReference_op_Equality_m3491334086
sKe:_FontUpdateTracker_UntrackText_m3827316510
qeb:__ZN18AssetBundleManager19RegisterAssetBundleEP11AssetBundle
N4e:_Array_InternalArray__get_Item_TisSingle_t2076509932_m1495809753_gshared
s0e:_Array_InternalArray__set_Item_TisAnimatorClipInfo_t3905751349_m978873279_gshared
D9b:__ZNK11ICallString6ToUTF8Ev
Sad:__ZN15dense_hashtableINSt3__24pairIK10KeyWrapperIPK22Il2CppGenericParameterEP11Il2CppClassEES6_N6il2cpp5utils11PointerHashIS4_EEN14dense_hash_mapIS6_S9_SE_NS6_14EqualsComparerINS0_8equal_toIS5_EEEENS0_9allocatorISA_EEE9SelectKeyESJ_SL_E15insert_noresizeERKSA_
JMd:_GC_number_stack_black_listed
aCd:__ZN24dense_hashtable_iteratorINSt3__24pairIK10KeyWrapperIP14Il2CppIUnknownEjEES5_N6il2cpp5utils11PointerHashIS3_EEN14dense_hash_mapIS5_jSB_NS5_14EqualsComparerINS0_8equal_toIS4_EEEENS0_9allocatorIS7_EEE9SelectKeyESG_SI_E30advance_past_empty_and_deletedEv
RVa:__ZNSt3__211__sift_downIR17ROSorterDepthPassP15RODataDepthPassEEvT0_S5_T_NS_15iterator_traitsIS5_E15difference_typeES5_
knh:_Default_SelectMethod_m3081239996
qha:__ZN18UnityPropertySheet11UnityTexEnvC2Ev
Dbc:__ZNSt3__214__split_bufferIPN9BlobWrite11TypeContextENS_9allocatorIS3_EEE10push_frontERKS3_
Bs:__ZN8Animator17ApplyOnAnimatorIKEiRNS_11AnimatorJobE
e5:__ZN12FileAccessor4ReadEyyPvPy
Sfa:__ZN13dynamic_arrayI16ShaderKeywordSetLj4EE6insertEPS0_PKS0_S4_
eRb:__Z29Transfer_Blittable_ArrayFieldI18StreamedBinaryReadILb0EE11QuaternionfEvRT_R9ArrayInfoRK23StaticTransferFieldInfo
Sjj:_MethodDictionary_IsOverridenKey_m3922224650
Lie:_SyncHashtable_Contains_m3042906549
blf:_List_1_System_Collections_IList_set_Item_m4016273526_gshared
Vqg:_X509KeyUsageExtension_CopyFrom_m931530012
q3a:__ZN13RenderTexture9SetHeightEi
Glb:__ZN16LevelGameManager8TransferI24GenerateTypeTreeTransferEEvRT_
F5i:_Color32__ctor_m1932627809_AdjustorThunk
$hg:_SslStreamBase_Read_m1036897444
wci:_RectMask2D_PerformClipping_m1232012832
PAd:__ZN6il2cpp6icalls8mscorlib6System2IO6MonoIO17GetFileAttributesEP12Il2CppStringPi
Z_h:_Transform_1_Invoke_m4020530914_gshared
lSc:_tt_cmap8_char_index
jYb:__Z14tessMeshDeleteP8TESSmeshP12TESShalfEdge
L_:__Z24scripting_class_get_name17ScriptingClassPtr
Z6:__ZN13RuntimeStaticI15GUIEventManagerLb0EE13StaticDestroyEPv
pEa:__ZN7ApiGLES14TextureSamplerEjj17TextureFilterMode15TextureWrapModeifb18ShadowSamplingModeN2gl17TextureSrgbDecodeE
r$i:_CustomEventData_AddUInt16_m3349298376
_Gb:__Z29Transfer_Blittable_ArrayFieldI14SafeBinaryReadjEvRT_R9ArrayInfoRK23StaticTransferFieldInfo
C3i:_Camera_FireOnPostRender_m94860165
tBb:__ZN23PreloadManagerOperationD0Ev
le:_emscripten_set_keydown_callback
gie:_Enumerator_get_Value_m3684748062
xib:__ZN19StreamedBinaryWriteILb0EE21TransferSTLStyleArrayINSt3__26vectorI17SortingLayerEntryNS2_9allocatorIS4_EEEEEEvRT_17TransferMetaFlags
QGh:_UInt32_Parse_m3371984903
m5:__ZN12FileAccessorC2Ev
ZPi:__Z52RuntimeInvoker_Void_t1841601450_ColorU26_t3402129837PK10MethodInfoPvPS2_
Csj:_X509CertificateCollection_Compare_m1014334435
L5a:__ZN9Transform35SetLocalPositionWithoutNotificationERKN4math7_float3E
Dlj:_PatternLinkStack_GetCurrent_m2994645935
mjb:__ZN6Camera8TransferI19StreamedBinaryWriteILb0EEEEvRT_
MIc:__ZN23ColliderTilingExtensionC2Ev
rcj:_AnimatorControllerPlayable_PlayInFixedTime_m2629510873
vij:_AsyncResult__ctor_m1183194429
sB:__ZN4PPtrI13MonoBehaviourE8TransferI18StreamedBinaryReadILb0EEEEvRT_
Ujj:_MethodDictionary_set_Item_m3475146889
NWi:__Z54RuntimeInvoker_Void_t1841601450_LabelFixup_t4090909514PK10MethodInfoPvPS2_
XEg:__ZL62WellKnownObjectMode_t2630225581_CustomAttributesCacheGeneratorP21CustomAttributesCache
Rii:_Toggle_PlayEffect_m3950629415
xTf:_MonoCustomAttrs_GetCustomAttribute_m100274015
KUi:__Z69RuntimeInvoker_Void_t1841601450_Int32_t2071877448_Vector3_t2243707580PK10MethodInfoPvPS2_
rEb:__Z39WriteQueueForTransferSignatureIntoCacheRK31TransferFunctionScriptingTraitsRK24TransferRequestSignature17ScriptingClassPtrR23CachedSerializationDataRb
Qna:__ZN13RenderManager18UpdateAllRenderersEv
k5c:__ZN22BaseUnityConnectClient30OnEnteringStatePausedOrStoppedEv
NDc:__ZN10ClipperLib7Clipper18SwapPositionsInAELEPNS_5TEdgeES2_
Ksf:_Collection_1_System_Collections_ICollection_get_SyncRoot_m2157752542_gshared
iBb:__ZN14CachingManager13WriteInfoFileERKN4core12basic_stringIcNS0_20StringStorageDefaultIcEEEERKNSt3__26vectorIS4_NS7_9allocatorIS4_EEEEl
Xrd:__ZN15dense_hashtableINSt3__24pairIK10KeyWrapperINS1_IPK12PropertyInfoP11Il2CppClassEEEjEES9_17ReflectionMapHashIS8_EN14dense_hash_mapIS9_jSD_NS9_14EqualsComparerINS0_8equal_toIS8_EEEENS0_9allocatorISB_EEE9SelectKeyESI_SK_E12resize_deltaEjj
Qx:__ZN7mecanim5human12HumanPoseAddERNS0_9HumanPoseERKS1_S4_
gXi:__Z76RuntimeInvoker_Void_t1841601450_Int32_t2071877448_KeyValuePair_2_t3716250094PK10MethodInfoPvPS2_
oDj:_UnityAction_1__ctor_m2836997866_gshared
L0i:_Animator_ResetTrigger_m865269317
hJg:__ZL64AssemblyLoadEventArgs_t4233815743_CustomAttributesCacheGeneratorP21CustomAttributesCache
Orf:_Collection_1_IsFixedSize_m218241296_gshared
G5a:__Z24MergeTransformComponentsR9TransformS0_b
uKj:__ZL25UnresolvedVirtualCall_125P12Il2CppObjectPK10MethodInfo
u2i:_DelegatePInvokeWrapper_AudioConfigurationChangeHandler_t3743753033
LPf:_MonoIO_get_PathSeparator_m2635828107
tfh:_TypeInfo_get_TypeName_m1722081275
Fyc:__ZN15b2CircleContactD0Ev
TUf:_MonoType_get_Name_m865859211
$xe:_CultureInfo__cctor_m2290268677
pki:_ArrayReadOnlyList_1_System_Collections_IEnumerable_GetEnumerator_m3039869667_gshared
t2d:_String_Trim_m3982520224
qeh:_RemotingConfiguration__cctor_m2129988840
dqf:_Collection_1_Insert_m44548038_gshared
Iui:_InternalEnumerator_1_MoveNext_m4175772187_AdjustorThunk
Tvg:__ZL42Il2CppArray_CustomAttributesCacheGeneratorP21CustomAttributesCache
oLd:__ZN6il2cpp2vm13ComObjectBase19GetRuntimeClassNameEPP15Il2CppHString__
Sj:_emscripten_glVertexAttribPointer
Yla:__ZN14PreloadManager26UpdatePreloadingSingleStepENS_21UpdatePreloadingFlagsEi
GSh:_Material__ctor_m1440882780
DYd:_SHA512Managed_Initialize_m891287980
sPi:__Z82RuntimeInvoker_Boolean_t3825574718_Il2CppObject_TextGenerationSettings_t2543476768PK10MethodInfoPvPS2_
k$d:_SecurityException__ctor_m1484114982
$fj:_SinkProviderData_get_Children_m100594762
htj:_X509Crl_GetHashName_m183504634
D7d:_Array_GetValue_m1507415734
cic:__Z57Register_UnityEngine_RectTransform_INTERNAL_set_anchorMinv
gEf:_Object_MemberwiseClone_m2655589444
Vwf:_ReadOnlyCollection_1_System_Collections_IList_get_Item_m375043207_gshared
uja:__ZN6prcoreL25inner_stretch_i8_bilinearEPKNS_9InnerInfoE
rS:__ZN11UnityEngine15CloudWebService13WWWRestClient17GetResponseStatusEv
lNf:_DirectoryInfo_ToString_m4208086799
Mwh:_MonoMethod_get_IsGenericMethod_m4276550811
k$h:_Transform_1_BeginInvoke_m3826027984_gshared
y0i:_AnimationEvent_set_time_m2162176572
pR:__ZN11UnityEngine15CloudWebService16SessionContainer24GetSessionHeaderJsonDataERKN4core12basic_stringIcNS2_20StringStorageDefaultIcEEEERNS2_13StringBuilderE
rme:_Decimal_op_Implicit_m2149927308
M6:__ZN13RuntimeStaticI21AssetReferenceStorageLb0EE13StaticDestroyEPv
DGh:_UInt16_System_IConvertible_ToUInt32_m1864968312
yHd:__ZN6il2cpp6icalls8mscorlib6System9AppDomain22InternalGetProcessGuidEP12Il2CppString
WUc:_cf2_builder_moveTo
I$f:_KeyPairPersistence_get_UseMachineKeyStore_m560802076
wmf:_Collection_1_CopyTo_m1840908033_gshared
kxi:_Enumerator_System_Collections_IDictionaryEnumerator_get_Entry_m345330700_AdjustorThunk
GYj:_glBindRenderbuffer__wrapper
rkd:__ZNSt3__214__split_bufferIP9FieldInfoRNS_9allocatorIS2_EEEC2EjjS5_
Bye:_AbstractEventData__ctor_m3586111519
DKb:__Z18Transfer_BlittableI24GenerateTypeTreeTransferLb1EjEvRK29SerializationCommandArgumentsR31RuntimeSerializationCommandInfo
O7f:_MD2Managed_Padding_m410163267
Krd:__ZNK15dense_hashtableINSt3__24pairIK10KeyWrapperINS1_IPK11Il2CppImageP11Il2CppClassEEEjEES9_17ReflectionMapHashIS8_EN14dense_hash_mapIS9_jSD_NS9_14EqualsComparerINS0_8equal_toIS8_EEEENS0_9allocatorISB_EEE9SelectKeyESI_SK_E10test_emptyERK30dense_hashtable_const_iteratorISB_S9_SD_SM_SI_SK_E
Qad:__ZN6il2cpp2os12FastAutoLockD2Ev
alb:__ZN11ColorRGBA328TransferI14SafeBinaryReadEEvRT_
hCb:__ZN24RingBufferMemoryFileData4LockEPPv
YZh:_Enumerator_Dispose_m401572848_AdjustorThunk
H2i:_Bounds__ctor_m1202659404_AdjustorThunk
Qf:_emscripten_glClearDepth
xmb:__ZN8Playable12SetPlayStateE9PlayState
MZi:__Z70RuntimeInvoker_Boolean_t3825574718_Il2CppObject_BooleanU26_t3168250738PK10MethodInfoPvPS2_
urb:__ZN14SafeBinaryRead21TransferSTLStyleArrayINSt3__26vectorIN15QualitySettings14QualitySettingENS1_9allocatorIS4_EEEEEEvRT_17TransferMetaFlags
W2e:_Array_swap_TisVector2_t2243707579_m3359959735_gshared
ANf:_File_OpenText_m4058508963
Yya:__ZN7ApiGLES13CreateTextureEjN2gl9TexFormatEiiiii
TLi:__Z54RuntimeInvoker_Double_t4078015681_Interval_t2354235237PK10MethodInfoPvPS2_
xyb:__ZNSt3__26vectorINS_4pairIPKN5Unity4TypeE7Hash128EENS_9allocatorIS7_EEE8__appendEj
ufh:_WellKnownClientTypeEntry__ctor_m670594074
s6g:__ZL61FontData_t2614388407_CustomAttributesCacheGenerator_m_MinSizeP21CustomAttributesCache
sY:__ZL41FileEntryInfoListToFolderContentsAbsoluteRK13dynamic_arrayI13FileEntryInfoLj8EERNSt3__23setIN4core12basic_stringIcNS6_20StringStorageDefaultIcEEEENS4_4lessISA_EENS4_9allocatorISA_EEEE
Jpe:_DateTime_System_IConvertible_ToSingle_m3927769066_AdjustorThunk
zWc:_cff_font_load
Exj:_Enumerator_Reset_m950879083
UJd:__GLOBAL__sub_I_LibraryLoader_cpp
jcc:__Z13IsPathCreatedRKN4core12basic_stringIcNS_20StringStorageDefaultIcEEEE
ypa:__ZL22stbir__encode_scanlineP11stbir__infoiPvPfiii
NKc:__ZN20QuadTreeNodeRenderer13StaticDestroyEPv
DN:__ZN14AudioBehaviourD2Ev
_$b:__ZN9Transform12CleanupClassEv
iQd:__ZN6il2cpp6icalls8mscorlib6System9Threading16NativeEventCalls19CloseEvent_internalE12Il2CppIntPtr
Nt:__ZN11UnityEngine9Animation33SetGenericTransformPropertyValuesERKNS0_30AnimatorGenericBindingConstantERKN7mecanim10ValueArrayEP9Transformb
sbg:_ClientContext_set_ClientHelloProtocol_m2246603449
iOc:_UNITY_FT_Set_Pixel_Sizes
QQe:_U3CMouseDragOutsideRectU3Ec__Iterator1_MoveNext_m2845491958
ZTb:__ZNSt3__26vectorIN9ShaderLab19SerializedSubShaderENS_9allocatorIS2_EEE26__swap_out_circular_bufferERNS_14__split_bufferIS2_RS4_EE
kPi:__Z87RuntimeInvoker_Void_t1841601450_PlayableHandleU26_t3483893774_QuaternionU26_t4187826802PK10MethodInfoPvPS2_
I2e:_Array_swap_TisAnimatorClipInfo_t3905751349_TisAnimatorClipInfo_t3905751349_m1375833338_gshared
mNj:_AnalyticsTracker_TriggerEvent_m1494303835
DDe:_StandaloneInputModule_IsModuleSupported_m623598506
sxd:__ZN6il2cpp2vmL24thread_cleanup_on_cancelEPv
JDi:__Z31RuntimeInvoker_Byte_t3683104436PK10MethodInfoPvPS2_
Byh:_ResourceReader_Close_m3256966401
yjh:_SByte_ToString_m4105923225_AdjustorThunk
_gb:_LZ4_compress_generic
yhh:_StreamingContext_t1417235061_marshal_pinvoke_cleanup
dye:_CultureInfo_ConstructCurrentUICulture_m3363349599
nsb:__ZN13dynamic_arrayI7SubMeshLj4EE18resize_initializedEjRKS0_12ResizePolicy
H9g:__ZL75CanvasScaler_t2574720772_CustomAttributesCacheGenerator_m_FallbackScreenDPIP21CustomAttributesCache
qUf:_MonoType_GetEvent_m4160342003
gci:_RawImage_set_texture_m2400157626
HHj:_PrimeHelper_ToPrime_m1606935350_gshared
nlb:__Z30ProcessDynamicBatchGeometryJobP25DynamicVBOGeometryJobDataj
o8h:_EqualityComparer_1__ctor_m81618677_gshared
zWa:__ZNSt3__27__sort4IRNS_6__lessI11CulledLightS2_EEPS2_EEjT0_S6_S6_S6_T_
VWf:_MSCompatUnicodeTable_Level3_m260824928
qRe:_LayoutElement_OnEnable_m3478706401
a_:__Z26scripting_object_get_class18ScriptingObjectPtr
DZi:__Z72RuntimeInvoker_DictionaryEntry_t3048875398_Il2CppObject_SByte_t454417549PK10MethodInfoPvPS2_
C$b:__ZNK28MonoBehaviourPropertyBinding15GenerateBindingERKN4core12basic_stringIcNS0_20StringStorageDefaultIcEEEEbRN11UnityEngine9Animation14GenericBindingE
EQh:_GUIStyle_CalcMinMaxWidth_m2027503105
aJf:_Int32_FindExponent_m3187554672
U$f:_KeyPairPersistence_Load_m1355205585
Dei:_ScrollRect_get_horizontalScrollbarVisibility_m4152068235
cKf:_Int32_ToString_m2960866144_AdjustorThunk
EBj:_Predicate_1_Invoke_m3539717340_gshared
_Hj:_HashSet_1_Contains_m3626542335_gshared
p1d:_Single_CompareTo_m2081476257_AdjustorThunk
tWi:__Z57RuntimeInvoker_Int32_t2071877448_RaycastHit2D_t4063908774PK10MethodInfoPvPS2_
MJd:__ZN6il2cpp6icalls8mscorlib6System11Environment15internalGetHomeEv
ucb:__ZNK5Unity9Component7GetNameEv
pYi:__Z49RuntimeInvoker_Slot_t2267560602_Int32_t2071877448PK10MethodInfoPvPS2_
Wkd:__ZNSt3__214__split_bufferIN6il2cpp6icalls8mscorlib6System12PropertyPairERNS_9allocatorIS5_EEEC2EjjS8_
Fy:__ZN34AnimationStateMachineMixerPlayable7GetTypeEv
fhh:__ZN21InterfaceFuncInvoker4IP12Il2CppObjectS1_P28SerializationInfo_t22898743028StreamingContext_t1417235061S1_E6InvokeEjP11Il2CppClassS1_S1_S3_S4_S1_
tLg:__ZL58IFormatProvider_t2849799027_CustomAttributesCacheGeneratorP21CustomAttributesCache
uGj:_ObjectPool_1_Get_m3724675538_gshared
j7a:__ZN13ScreenManagerD0Ev
NQa:_UNITY_png_set_error_fn
tAc:__ZNK11b2RopeJoint16GetReactionForceEf
yt:__ZN7mecanim8skeleton26SkeletonPoseComputeGlobalQEPKNS0_8SkeletonEPKNS0_13SkeletonPoseTIN4math4trsXEEEPS7_ii
awc:__ZN8JSONRead21TransferSTLStyleArrayI13dynamic_arrayIfLj4EEEEvRT_18MemLabelIdentifier17TransferMetaFlags
Iff:_List_1_GetEnumerator_m2672519407_gshared
Zs:__ZN9BlobWrite8TransferI22OffsetPtrArrayTransferIiEEEvRT_PKc17TransferMetaFlags
GWf:_ContractionComparer_Compare_m314873025
hJb:__Z18Transfer_BlittableI17RemapPPtrTransferLb1EjEvRK29SerializationCommandArgumentsR31RuntimeSerializationCommandInfo
qRh:_GUIUtility_EndGUIFromException_m2091524531
uKf:_Int64_System_IConvertible_ToDouble_m638786774
iK:__ZN4FMOD6System7releaseEv
kie:_HashKeys_get_IsSynchronized_m4207641174
cMb:__Z18Transfer_BlittableI19StreamedBinaryWriteILb0EELb1E8BitFieldEvRK29SerializationCommandArgumentsR31RuntimeSerializationCommandInfo
Q4:__Z18PathToAbsolutePathRKN4core12basic_stringIcNS_20StringStorageDefaultIcEEEE
W6e:_Enumerator_MoveNext_m3078170540_AdjustorThunk
fZd:_SymmetricAlgorithm_get_Padding_m718051685
X3c:__ZN21UnityAnalyticsManager15ThreadedCleanupEv
PHc:__ZThn160_N17PolygonCollider2D5ResetEv
z5i:_Color_Lerp_m3323752807
Igc:__Z22Mesh_CUSTOM_HasChannelP12Il2CppObject30InternalScriptingShaderChannel
z5b:__ZN15DirectorManager17AcquireOutputNodeEv
kji:_Toggle_UnityEngine_UI_ICanvasElement_get_transform_m4177274032
ACb:__ZN10MonoScript23VirtualRedirectTransferER17RemapPPtrTransfer
Sw:__ZN8Playable11SetDurationEd
uJg:__ZL76Convert_t2607082565_CustomAttributesCacheGenerator_Convert_ToChar_m541258017P21CustomAttributesCache
oGa:__ZN16GeometryJobTasks20ScheduleGeometryJobsER9GfxDevicePFvP15GeometryJobDataEPK22GeometryJobInstructionjb
iQh:_GUIUtility_Internal_GetHotControl_m2510727642
jI:__ZN12AudioManager29ShutdownReinitializeAndReloadEv
Jqj:_NetscapeCertTypeExtension_Decode_m2210025005
AYh:_RectTransform_GetLocalCorners_m1836626405
XKd:__GLOBAL__sub_I_String_cpp
Pad:__ZN15dense_hashtableINSt3__24pairIK10KeyWrapperIPK22Il2CppGenericParameterEP11Il2CppClassEES6_N6il2cpp5utils11PointerHashIS4_EEN14dense_hash_mapIS6_S9_SE_NS6_14EqualsComparerINS0_8equal_toIS5_EEEENS0_9allocatorISA_EEE9SelectKeyESJ_SL_E6insertERKSA_
ENf:_FileLoadException__ctor_m1356374414
xag:_TlsStream_Reset_m1504601050
R9e:__ZN23InterfaceActionInvoker2IP23Int32U5BU5D_t3030399641iE6InvokeEjP11Il2CppClassP12Il2CppObjectS1_i
Hza:__ZN14DataBufferGLES16RecreateWithDataEjPKv
Ibc:__Z29GetGlobalAllowNameConversionsv
E6a:__ZN8Material8SetColorEN9ShaderLab16FastPropertyNameERK10ColorRGBAf
Wuh:_Module_GetCustomAttributes_m3581287913
mxg:__ZL67Type_t_CustomAttributesCacheGenerator_Type_IsSubclassOf_m2450899481P21CustomAttributesCache
bM:__ZN11AudioSource23VirtualRedirectTransferER18StreamedBinaryReadILb0EE
vd:___syscall91
R6:__ZN21AssetReferenceStorageC2Ev
FMb:__ZN10RectOffset8TransferI19StreamedBinaryWriteILb0EEEEvRT_
sLc:__ZNSt3__26vectorIN4core12basic_stringIcNS1_20StringStorageDefaultIcEEEE13stl_allocatorIS5_L18MemLabelIdentifier34ELi16EEEC2INS_11__wrap_iterIPS5_EEEET_SE_RKS8_PNS_9enable_ifIXaasr21__is_forward_iteratorISE_EE5valuesr16is_constructibleIS5_NS_15iterator_traitsISE_E9referenceEEE5valueEvE4typeE
P_:__ZL41AssemblyNameMatchesWithOrWithoutExtensionPKcS0_
HEc:__ZN23ColliderTilingExtension5ResetEv
G1i:_AssemblyIsEditorAssembly__ctor_m2639706522
YDa:__ZN14GfxContextGLES43AddRenderSurfaceToDeferredFBOInvalidateListEPK17RenderSurfaceGLES
qyd:__ZN6il2cpp6icalls8mscorlib6System9Threading6Thread15Thread_internalEP12Il2CppThreadP14Il2CppDelegate
afa:__ZN11NamedObject23VirtualRedirectTransferER14SafeBinaryRead
YNc:__ZNSt3__26vectorIN20TextRenderingPrivate8FontImpl13CharacterInfoE13stl_allocatorIS3_L18MemLabelIdentifier1ELi16EEE6insertENS_11__wrap_iterIPKS3_EERS9_
gma:__ZN23PreloadManagerOperation6IsDoneEv
ITg:__ZL102DataUtility_t4181890362_CustomAttributesCacheGenerator_DataUtility_INTERNAL_CALL_GetOuterUV_m121019172P21CustomAttributesCache
Gjd:__ZN6il2cpp2vm7Runtime15InvokeWithThrowEPK10MethodInfoPvPS5_
z3f:_X509Certificate_get_RawData_m3000055075
g6b:__Z33GetHasChangedDeprecatedSystemMaskv
QGd:__ZN6il2cpp5utils11StringUtils11Utf16ToUtf8ERKNSt3__212basic_stringIDsNS2_11char_traitsIDsEENS2_9allocatorIDsEEEE
TMf:_MonoIO_GetException_m2577367044
_xi:_Enumerator_VerifyState_m1165543189_AdjustorThunk
pqe:_DateTime_AddSeconds_m722082155_AdjustorThunk
yfe:_SynchronizedArrayListWrapper_CopyTo_m956887031
c$g:__ZL80GUIStyle_t1799908754_CustomAttributesCacheGenerator_GUIStyle_Cleanup_m1915255373P21CustomAttributesCache
Ovi:_Comparer_1__ctor_m1202126643_gshared
cVg:__ZL92Transform_t3275118058_CustomAttributesCacheGenerator_Transform_get_parentInternal_m927919099P21CustomAttributesCache
vqa:__ZN21LightProbeProxyVolume18HasHardwareSupportEv
HFc:__ZNK20b2SeparationFunction17FindMinSeparationEPiS0_f
pja:__ZN6prcoreL31inner_stretch_argb8888_bilinearEPKNS_9InnerInfoE
KNb:__Z18Transfer_BlittableI18StreamedBinaryReadILb1EELb1E8BitFieldEvRK29SerializationCommandArgumentsR31RuntimeSerializationCommandInfo
BQc:_UNITY_FT_Outline_Decompose
Edg:_TlsClientCertificate_get_ClientCertificate_m3062440489
O_d:_StrongNamePublicKeyBlob_ToString_m3721281223
VOd:_GC_init_size_map
nni:_InternalEnumerator_1_get_Current_m198513457_AdjustorThunk
jri:_InternalEnumerator_1__ctor_m1240086835_AdjustorThunk
lUa:__Z20scripting_object_new17ScriptingClassPtr
fS:__ZN11UnityEngine15CloudWebService10RestClientINS0_16WWWRestHeaderMapEED2Ev
qec:__Z31Display_CUSTOM_GetSystemExtImpl13Il2Cpp_IntPtrPiS0_
Ekc:__Z58Register_UnityEngine_Object_Internal_CloneSingleWithParentv
Xpd:__ZN24dense_hashtable_iteratorINSt3__24pairIK10KeyWrapperINS1_IPK9FieldInfoP11Il2CppClassEEEjEES9_17ReflectionMapHashIS8_EN14dense_hash_mapIS9_jSD_NS9_14EqualsComparerINS0_8equal_toIS8_EEEENS0_9allocatorISB_EEE9SelectKeyESI_SK_E30advance_past_empty_and_deletedEv
qE:__Z75AnimatorControllerPlayable_CUSTOM_INTERNAL_CALL_GetAnimatorClipInfoInternalP12Il2CppObjectR9HPlayableihS0_
oCf:_ReadOnlyCollection_1_System_Collections_IList_Contains_m4073811941_gshared
P_a:__ZN18ShadowMapJobHeaderD0Ev
HKe:_Graphic_OnRectTransformDimensionsChange_m1610753363
ooe:_Convert_ToUInt16_m3265369225
P:Math_exp
XTf:_MonoEnumInfo_get_Cache_m3551569711
Ko:FUNCTION_TABLE_iiifi
JGd:__ZN6il2cpp2os5posix13PosixAutoLockD2Ev
ATe:_Array_InternalArray__ICollection_Contains_TisVector3_t2243707580_m3625701788_gshared
Esa:__ZNSt3__26vectorINS_4pairIyP17VertexDeclarationEENS_9allocatorIS4_EEE6insertENS_11__wrap_iterIPKS4_EERS9_
eyh:_TypeFilter_BeginInvoke_m2395188690
JUc:_cff_get_advances
t4a:__ZN13MonoBehaviour9SetScriptERK4PPtrI10MonoScriptE18ScriptingObjectPtr
CMg:__ZL55g_Mono_Security_Assembly_CustomAttributesCacheGeneratorP21CustomAttributesCache
hQc:_UNITY_FT_Create_Class_sfnt_module_class
Cii:_Text_CalculateLayoutInputHorizontal_m1578553982
tUg:__ZL87Object_t1021602117_CustomAttributesCacheGenerator_Object_DestroyObject_m282495858____t1P21CustomAttributesCache
HBd:__ZNSt3__218uninitialized_copyIPNS_4pairIK10KeyWrapperIP14Il2CppIUnknownEjEES8_EET0_T_SA_S9_
caj:_AnimatorControllerPlayable_SetFloatString_m3937146789
Jse:_Decimal_IsZero_m3557909184_AdjustorThunk
cde:_Char_ToString_m1401375624
hVd:_MD5CryptoServiceProvider__cctor_m3309191799
MX:__ZNK10FileSystem16LastErrorMessageEv
tMd:__ZNK6il2cpp8metadata14Il2CppTypeLessclEPK10Il2CppTypeS4_
BIi:__Z51RuntimeInvoker_UInt32_t2149682021_Int16_t4041245914PK10MethodInfoPvPS2_
Ocd:__ZN15dense_hashtableINSt3__24pairIK10KeyWrapperIPK11Il2CppClassEPKcEES6_N6il2cpp5utils11PointerHashIS3_EEN14dense_hash_mapIS6_S9_SE_NS6_14EqualsComparerINS0_8equal_toIS5_EEEENS0_9allocatorISA_EEE9SelectKeyESJ_SL_E14squash_deletedEv
qgj:_ConfigHandler_ReadCustomProviderData_m784203316
kSg:__ZL87Input_t1785128008_CustomAttributesCacheGenerator_Input_get_compositionString_m636835668P21CustomAttributesCache
H8e:_Enumerator_System_Collections_IEnumerator_Reset_m3052395060_gshared
m9c:__ZN22UnityWebRequestManager10InitializeEv
fpf:_Collection_1_System_Collections_ICollection_get_SyncRoot_m1997144145_gshared
X5f:_Kernel_DwordDivMod_m3728402123
$Cb:__ZN13MonoBehaviour13AwakeFromLoadE17AwakeFromLoadMode
p1c:__ZZN2UI14CanvasRenderer15InitializeClassEvEN38FunctorImpl_810kCanvasHierarchyChanged4CallEPviR11MessageData
bJb:__ZL26Transfer_SimpleNativeClassI17RemapPPtrTransfer8GradientLb1EEvRK29SerializationCommandArgumentsR31RuntimeSerializationCommandInfo
u6b:__ZN12CachedWriter9InitWriteER15CacheWriterBase
a5b:__Z21UnsignedInt64ToStringy
sAh:_UTF7Decoder__ctor_m549434986
uWh:_Quaternion_ToString_m2638853272
Dti:_InternalEnumerator_1_get_Current_m1025321669_AdjustorThunk
ZUh:_Object_t1021602117_marshal_pinvoke
ehc:__Z36MonoBehaviour_CUSTOM_InvokeRepeatingP12Il2CppObjectP12Il2CppStringff
fkc:__Z66Register_UnityEngine_Transform_INTERNAL_CALL_InverseTransformPointv
fpi:_InternalEnumerator_1_get_Current_m1089848479_AdjustorThunk
Loi:_InternalEnumerator_1_MoveNext_m2720582493_gshared
eRd:__ZN6il2cpp2os9MutexImpl7TryLockEjb
qtj:_X509Crl_VerifySignature_m1390212587
Grg:_Group__ctor_m4103922028
cRa:__ZN6Camera26ClearIntermediateRenderersEj
oQa:_UNITY_png_write_pCAL
u0j:_glLinkProgram__wrapper
Wja:__ZN6prcoreL12RemapGenericI17TexFormatARGB888815TexFormatBGR888EEvPKNS_9InnerInfoE
nVd:_MD5CryptoServiceProvider_ProcessFinalBlock_m1052610785
sE:__Z79AnimatorControllerPlayable_CUSTOM_INTERNAL_CALL_GetNextAnimatorClipInfoInternalR9HPlayablei
Ofe:_BitArray_Set_m2878881714
QLj:__ZL25UnresolvedVirtualCall_201P12Il2CppObjectPK10MethodInfo
ctf:_Collection_1_get_Item_m4215988522_gshared
KHf:_Guid_CompareTo_m2203922782_AdjustorThunk
Ufi:_Selectable_get_colors_m3501193396
oCd:__ZN6il2cpp6icalls8mscorlib6System13Globalization11CultureInfo35construct_internal_locale_from_nameEP17Il2CppCultureInfoP12Il2CppString
jAi:__Z58RuntimeInvoker_Il2CppObject_Int32_t2071877448_Il2CppObjectPK10MethodInfoPvPS2_
PKb:__ZL22Transfer_ManagedObjectI24GenerateTypeTreeTransferLb1EEvRK29SerializationCommandArgumentsR31RuntimeSerializationCommandInfo
OUg:__ZL72SceneManager_t90660965_CustomAttributesCacheGenerator_activeSceneChangedP21CustomAttributesCache
zCg:__ZL55COMException_t1790481504_CustomAttributesCacheGeneratorP21CustomAttributesCache
p_f:_ASN1_get_Count_m404940548
Lhj:_ContextAttribute_Equals_m53324298
f4i:_Canvas_ForceUpdateCanvases_m2446828475
$j:_emscripten_set_main_loop_timing
rec:__Z34Display_CUSTOM_GetRenderingExtImpl13Il2Cpp_IntPtrPiS0_
hKh:_WeakReference_AllocateHandle_m1783929473
Cza:__ZN14DataBufferGLES12RecordRenderEv
Y5a:__ZN14ImageReference10FlipImageYEv
d7i:_DebugLogHandler_LogFormat_m177245518
gjb:__Z32TransferEnumWithNameForceIntSizeI14SafeBinaryRead13TargetEyeMaskEvRT_RT0_PKc17TransferMetaFlags
Nmc:__Z14GetDefaultSkini
fye:_CultureInfo_get_Name_m3316229893
fqe:_DateTime_get_Ticks_m310281298_AdjustorThunk
IF:__ZN4FMOD3DSP9setBypassEb
juf:_Collection_1_System_Collections_IList_get_Item_m287847793_gshared
Xab:__Z19NormalizeWheelInputf
srg:_CaptureCollection_CopyTo_m1982767892
e9a:__Z29StdTemplateConversionFunctionIsaEbPvR14SafeBinaryRead
ITe:_Array_InternalArray__ICollection_Remove_TisLink_t865133271_m1984184141_gshared
bwc:__Z29Transfer_Blittable_ArrayFieldI8JSONReadhEvRT_R9ArrayInfoRK23StaticTransferFieldInfo
ZRe:_LayoutRebuilder_IsDestroyed_m3442208294
G9b:__ZN11MonoManager25GetImageFromAssemblyIndexEi
qTd:__ZN6il2cpp2os20ThreadLocalValueImpl8SetValueEPv
PLd:__ZN6il2cpp2os11Environment17GetProcessorCountEv
YNa:__ZZ23InitPlayerLoopCallbacksvEN43PostLateUpdateClearImmediateRenderersstruct7ForwardEv
Hrc:__Z18Transfer_BlittableI9JSONWriteLb1EtEvRK29SerializationCommandArgumentsR31RuntimeSerializationCommandInfo
FNf:_FileLoadException__ctor_m918124939
rk:___syscall85
sTa:__ZNSt3__26__sortIRPFbP10GUIElementS2_EPS2_EEvT0_S7_T_
E6f:_SequentialSearchPrimeGeneratorBase_GenerateSearchBase_m2930465198
N3b:__ZN16GraphicsSettings12CleanupClassEv
$L:__ZNK11AudioSource26GetTypeInfoVirtualInternalEv
ibd:__ZN6il2cpp2vmL21SetupInterfacesLockedEP11Il2CppClassRKNS_2os12FastAutoLockE
VEb:__ZN11MonoManager23VirtualRedirectTransferER24GenerateTypeTreeTransfer
rA:__ZN23AnimationPlayableOutput17SetSourcePlayableEP8Playable
CJd:__ZN6il2cpp2gc16GarbageCollector22MakeDescriptorForArrayEv
HPh:_GUIStyle_set_clipOffset_m3871613343
RNe:_SubmitEvent__ctor_m222860306
lR:__ZN11UnityEngine15CloudWebService14DataDispatcher15SetupWebRequestEv
ZGi:__Z94RuntimeInvoker_Int32_t2071877448_Il2CppObject_Int32_t2071877448_Il2CppObject_Int32_t2071877448PK10MethodInfoPvPS2_
PRf:_TextWriter__cctor_m4047845042
Qfg:_ReceiveRecordAsyncResult_get_Record_m1336421357
i6c:__ZN11UnityEngine15PlatformWrapper13GetShaderCapsEv
U$a:__ZNSt3__211__sift_downIR26RenderDeferredObjectSorterP16RenderObjectDataEEvT0_S5_T_NS_15iterator_traitsIS5_E15difference_typeES5_
rJg:__ZL76Convert_t2607082565_CustomAttributesCacheGenerator_Convert_ToByte_m509311047P21CustomAttributesCache
jOe:_InputField_CaretBlink_m3960486606
bk:_emscripten_glGetProgramiv
s0f:_SmallXmlParser_ReadCharacters_m1966365555
CId:__ZN6il2cpp2os10ThreadImpl22SetNativeThreadCleanupEPFvPvE
w4b:__ZN21FixedBehaviourManager6UpdateEv
Xbc:__ZN9Transform9SetParentEPS_NS_15SetParentOptionE
XLe:_GridLayoutGroup_set_startCorner_m1660251450
f0:__ZN19ShaderPropertySheet8SetFloatEN9ShaderLab16FastPropertyNameEfNS_8SetFlagsE
g7g:__ZL68InputField_t1631627530_CustomAttributesCacheGenerator_m_AsteriskCharP21CustomAttributesCache
sna:__ZN19RuntimeSceneManager24BeginIntegrateMainThreadEP10UnityScene
oMi:__Z42RuntimeInvoker_RuntimePlatform_t1869584967PK10MethodInfoPvPS2_
yKi:__Z80RuntimeInvoker_Void_t1841601450_Il2CppObject_Int32_t2071877448_Int16_t4041245914PK10MethodInfoPvPS2_
fJd:__ZNSt3__2plIcNS_11char_traitsIcEENS_9allocatorIcEEEENS_12basic_stringIT_T0_T1_EERKS9_S6_
rFi:__Z53RuntimeInvoker_MonoEventInfo_t2190036573_Il2CppObjectPK10MethodInfoPvPS2_
GSf:_LocalDataStoreSlot__cctor_m1192669356
Fvd:__GLOBAL__sub_I_ArrayMetadata_cpp
RSj:_roundf
d4d:_String_CreateString_m2556700934
vib:__ZN18StreamedBinaryReadILb0EE21TransferSTLStyleArrayINSt3__26vectorI17SortingLayerEntryNS2_9allocatorIS4_EEEEEEvRT_17TransferMetaFlags
_fi:_Selectable_get_targetGraphic_m137842753
_r:__ZN8Animator15SetPrepareStageEv
nhi:_Slider_get_axis_m162140813
Lvh:_MonoEventInfo_t2190036573_marshal_pinvoke
jbd:__ZN6il2cpp2vmL24SetupTypeHierarchyLockedEP11Il2CppClassRKNS_2os12FastAutoLockE
cbb:__ZL11TextHandleriPK23EmscriptenKeyboardEventPv
dZa:__Z20CalculateLightMatrixRK15SharedLightDataP10Matrix4x4f
Lfi:_ScrollRect_SetLayoutHorizontal_m3486408020
wNc:_destroy_face
pHj:_GenericEqualityComparer_1_GetHashCode_m116190842_gshared
H9i:_AnimationOffsetPlayable_INTERNAL_CALL_GetPosition_m602003518
kAg:__ZL55StreamWriter_t3858580635_CustomAttributesCacheGeneratorP21CustomAttributesCache
jKc:__ZN5physx19PxAllocatorCallbackD2Ev
Nth:_TypeBuilder_IsAssignableTo_m3210661829
eNa:__ZN24dense_hashtable_iteratorINSt3__24pairIKN4core12basic_stringIcNS2_20StringStorageDefaultIcEEEEP20ArchiveStorageReaderEES6_20StringHash32FunctionIS6_EN14dense_hash_mapIS6_S9_SC_NS0_8equal_toIS6_EE13stl_allocatorISA_L18MemLabelIdentifier54ELi16EEE9SelectKeyESF_SI_EC2EPK15dense_hashtableISA_S6_SC_SK_SF_SI_EPSA_SQ_b
BQd:__ZN6il2cpp6icalls8mscorlib6System8Security12Cryptography24RNGCryptoServiceProvider13RngInitializeEP11Il2CppArray
cjf:_List_1_System_Collections_ICollection_get_IsSynchronized_m227393674_gshared
ilg:_IPAddress__cctor_m3624830012
kM:__ZN20SoundChannelInstance7setMuteEb
jmb:__ZN4PPtrI5LightE8TransferI19StreamedBinaryWriteILb0EEEEvRT_
tWg:__ZL115AnimatorStateInfo_t2577870592_CustomAttributesCacheGenerator_AnimatorStateInfo_t2577870592____nameHash_PropertyInfoP21CustomAttributesCache
ang:_AsnEncodedData_EnhancedKeyUsageExtension_m1452131166
FOb:__Z19TransferField_ArrayI18StreamedBinaryReadILb1EE27Converter_SimpleNativeClassI17AnimationCurveTplIfEEEvRK23StaticTransferFieldInfoR31RuntimeSerializationCommandInfoRT0_
KIc:__ZN7b2World18SetContactListenerEP17b2ContactListener
Nrg:_GroupCollection_get_IsSynchronized_m1100663675
kAa:__ZN18GfxFramebufferGLES22MakeCurrentFramebufferENS_7BuiltinE
tQd:__ZN6il2cpp2vm12MarshalAlloc4FreeEPv
msg:_Interpreter_Close_m1500459069
rKj:__ZL25UnresolvedVirtualCall_122P12Il2CppObject32ScriptableRenderContext_t4271526S0_PK10MethodInfo
vk:_JS_SystemInfo_GetWidth
Spa:__ZN12CachedReader4ReadEPvj
IXg:__ZL113AnimatorControllerPlayable_t4078305555_CustomAttributesCacheGenerator_AnimatorControllerPlayable_Play_m3114724599P21CustomAttributesCache
dVc:_cf2_blues_init
rni:_InternalEnumerator_1_System_Collections_IEnumerator_get_Current_m3600601141_gshared
TXd:_SHA1Internal_HashFinal_m3188468925
Uyj:_Vector3_op_Inequality_m799191452
vYa:__Z24CalculateLightShadowFadeRK6CamerafffR8Vector4f
E1:__ZN19RuntimeSceneManagerD2Ev
sMg:__ZL55HeaderHandler_t324204131_CustomAttributesCacheGeneratorP21CustomAttributesCache
wfj:_ChannelData_get_CustomProperties_m1470957369
oja:__ZN6prcore17GetIntegerBlitterE13TextureFormatS0_N14ImageReference8BlitModeE
v3i:_Camera_INTERNAL_CALL_ScreenPointToRay_m2752248646
krd:__ZN6il2cpp2gc19AppendOnlyGCHashMapINSt3__24pairIPK11Il2CppImageP11Il2CppClassEEP22Il2CppReflectionModule17ReflectionMapHashIS9_ENS2_8equal_toIS9_EEE11TryGetValueERKS9_PSB_
WZh:_Enumerator_VerifyState_m3173176371_AdjustorThunk
mkg:_TypeConverterAttribute__cctor_m506796812
T5d:_Encoding_get_IsReadOnly_m3729101432
Hbc:__ZN9BlobWrite14ReduceCopyImplERK14ReduceCopyDataj
DJh:_ValueType_t3507792607_marshal_pinvoke_back
Uvi:_Comparer_1_System_Collections_IComparer_Compare_m1790257529_gshared
m_i:__Z37RuntimeInvoker_Enumerator_t3220004478PK10MethodInfoPvPS2_
Puh:_MethodInfo_get_ContainsGenericParameters_m572340060
LAc:__ZNK12b2WheelJoint10GetAnchorAEv
xXj:_glShaderSource__wrapper
EKa:__ZN25MultiBlocksMemoryFileData17AdjustBlocksCountEj
Wyd:__ZNSt3__214__split_bufferIN6il2cpp2vm22EmbeddedResourceRecordERNS_9allocatorIS3_EEED2Ev
zbg:_TlsClientHello__ctor_m1699671541
d3b:__ZZN12MeshRenderer15InitializeClassEvEN29FunctorImpl_134kDidModifyMesh4CallEPviR11MessageData
BLc:__ZN13TextRendering4Font8TransferI24GenerateTypeTreeTransferEEvRT_
ehj:_Context_NotifyGlobalDynamicSinks_m2916447645
lNa:__ZN23ManagedAttributeManager15InitializeClassEv
gec:__Z27CullingGroup_CUSTOM_DisposeP12Il2CppObject
wWh:_Random_Range_m2884721203
XRa:__ZN13ComputeShader15SetTextureParamEjRKN9ShaderLab16FastPropertyNameE9TextureID16TextureDimension
Egi:_Shadow_set_effectDistance_m1951993364
EMh:_GUILayoutEntry_ApplyStyleSettings_m371609721
X3h:_Dictionary_2_ContainsKey_m416495915_gshared
Drf:_Collection_1_Remove_m1798559666_gshared
Bm:_glStencilMask
AId:__ZN6il2cpp2os10ThreadImpl16GetCurrentThreadEv
lcg:_TlsServerHelloDone__ctor_m2125611008
she:_Hashtable__ctor_m2337481811
BZh:_Enumerator_System_Collections_IEnumerator_get_Current_m2010873149_gshared
CIe:_Resources_t2975512894_marshal_pinvoke_cleanup
z0i:_AnimationEvent_get_messageOptions_m3547411650
rxg:__ZL88Type_t_CustomAttributesCacheGenerator_Type_MakeGenericType_m2765875033____typeArguments0P21CustomAttributesCache
g9g:__ZL74SpriteState_t1353336012_CustomAttributesCacheGenerator_m_HighlightedSpriteP21CustomAttributesCache
Zdh:_RealProxy__ctor_m2505535530
WNd:_GC_push_conditional_with_exclusions
AHh:_UInt32_System_IConvertible_ToUInt16_m2798641702_AdjustorThunk
_fh:_BinaryFormatter_get_DefaultSurrogateSelector_m219714691
Yx:__ZN21AnimationPosePlayableD0Ev
VTg:__ZL76Time_t31991979_CustomAttributesCacheGenerator_Time_get_deltaTime_m2233168104P21CustomAttributesCache
F7:__ZN15dense_hashtableINSt3__24pairIKiiEEi21InstanceIDHashFunctorN14dense_hash_mapIiiS4_NS0_8equal_toIiEE13stl_allocatorIS3_L18MemLabelIdentifier65ELi16EEE9SelectKeyES7_SA_E9copy_fromERKSD_j
huf:_Collection_1_System_Collections_IList_get_IsFixedSize_m3252091801_gshared
aVi:__Z57RuntimeInvoker_Boolean_t3825574718_LabelFixup_t4090909514PK10MethodInfoPvPS2_
NHe:_FloatTween_get_ignoreTimeScale_m4161298485_AdjustorThunk
pxh:_MonoProperty_GetOptionalCustomModifiers_m3827844355
t1h:_ValueCollection_System_Collections_ICollection_get_IsSynchronized_m45572582_gshared
vgj:__ZN21InterfaceFuncInvoker1IP8String_tS1_E6InvokeEjP11Il2CppClassP12Il2CppObjectS1_
BXf:_SimpleCollator_GetSortKey_m2188419329
_9g:__ZL56LayoutElement_t2808691390_CustomAttributesCacheGeneratorP21CustomAttributesCache
cdi:_Scrollbar_Set_m244028386
Qhc:__Z33Register_UnityEngine_Random_Rangev
ykc:__Z27Object_CUSTOM_DestroyObjectP12Il2CppObjectf
omb:__ZN14RenderSettings27UpdateIndirectSpecularColorEv
hzb:__ZN14PlayerSettings8TransferI18StreamedBinaryReadILb0EEEEvRT_
Ckd:__ZN6il2cpp6icalls8mscorlib6System8MonoType16GetMethodsByNameEP20Il2CppReflectionTypeP12Il2CppStringibS5_
doe:_Convert_ToSingle_m3186653037
hej:_GCHandle__ctor_m2952050298
$3e:_LayoutGroup_SetProperty_TisAxis_t1431825778_m2174054513_gshared
Qqb:__ZN4PPtrI10GameObjectE8TransferI14SafeBinaryReadEEvRT_
Mai:_Mask_IsRaycastLocationValid_m62488857
E$:__ZN17DirectorFrameTime10SampleTimeEfff
Jsa:__ZNSt3__27__sort3IRNS_4lessIN22BuiltinResourceManager8ResourceEEEPS3_EEjT0_S7_S7_T_
gvi:_DefaultComparer_Compare_m3472472212_gshared
dOf:_MonoIO_GetLength_m2812344043
NTc:_ps_hints_t2mask
$2g:__ZL68UsedByNativeCodeAttribute_t3212052468_CustomAttributesCacheGeneratorP21CustomAttributesCache
jF:__Z110Register_UnityEngine_Experimental_Director_AnimatorControllerPlayable_INTERNAL_CALL_GetParametersArrayInternalv
Xub:__ZN10BlendShape8TransferI19StreamedBinaryWriteILb0EEEEvRT_
cMj:__ZL25UnresolvedVirtualCall_215P12Il2CppObject40CustomAttributeTypedArgument_t1498197914PK10MethodInfo
Kcj:_PlayableHandle_INTERNAL_CALL_IsValidInternal_m2792360706
yxj:_Transform_IsChildOf_m10844547
mG:__Z32TransferEnumWithNameForceIntSizeI14SafeBinaryReadN10SampleClip8LoadTypeEEvRT_RT0_PKc17TransferMetaFlags
xLf:__Z21il2cpp_codegen_sizeofP11Il2CppClass
lba:__Z19GetTimeSinceStartupv
x0d:_SecurityFrame_get_Assembly_m2816566490
$Od:_GC_notify_or_invoke_finalizers
cZc:_TT_Load_Composite_Glyph
vMj:__ZL25UnresolvedVirtualCall_234P12Il2CppObjecti19Vector3_t2243707580PK10MethodInfo
Dzj:_NetFxCoreExtensions_CreateDelegate_m2492743074
Wyi:__Z51RuntimeInvoker_Boolean_t3825574718_Int64_t909078037PK10MethodInfoPvPS2_
c8d:_Array_Sort_m2994254654
Nkf:_List_1__ctor_m593058937_gshared
RVe:_Array_InternalArray__IEnumerable_GetEnumerator_TisColor32_t874517518_m2198639025_gshared
RWa:__ZN29RenderNodeQueuePrepareContextC2Ev
BTh:_Mesh_Clear_m231813403
XN:__ZN10SampleClipC2E18MemLabelIdentifier18ObjectCreationMode
DUb:__ZN9ShaderLab20SerializedSubProgram16TextureParameter8TransferI24GenerateTypeTreeTransferEEvRT_
mCh:_Thread_set_Name_m1343706609
cSd:__ZN6il2cpp2os11MutexHandle4WaitEj
Cac:__ZL34GetComponentsImplementationRecurseILb1ELi1ELi1EEbR10GameObjectbRK17CompareParametersRK39GetComponentsImplementation_ReturnValue
bSd:__ZN6il2cpp2os11MutexHandle4WaitEv
yde:_ArrayList_set_Capacity_m592558035
dla:__ZN6prcoreL17RemapGenericFloatI15TexFormatRGHalf18TexFormatARGBFloatEEvPKNS_9InnerInfoE
PTf:_MonoEnumInfo_t2335995564_marshal_pinvoke_cleanup
hda:__ZNK13RenderTexture13GetDataHeightEv
tKf:_Int64_System_IConvertible_ToDecimal_m3390697048_AdjustorThunk
TQa:__ZN13RenderManager23AddRemoveCamerasDelayedEv
qQa:_UNITY_png_write_pHYs
ima:__ZN23PreloadManagerOperation11GetPriorityEv
Fwe:_Exception_get_InnerException_m3722561235
aUe:_Array_InternalArray__ICollection_Remove_TisILTokenInfo_t149559338_m1523907845_gshared
a4c:__ZN11UnityEngine9Analytics15AnalyticsConfigC2Ev
n6i:_ContactFilter2D_CheckConsistency_m1391185667
ERg:__ZL84RectOffset_t3387826427_CustomAttributesCacheGenerator_RectOffset_get_left_m439065308P21CustomAttributesCache
Chf:_List_1_GetEnumerator_m4053501645_gshared
Fid:__ZN6il2cpp2gc9AllocatorIP17Il2CppAsyncResultE10deallocateEPvj
hOh:_GUISkin_set_toggle_m1758777401
tHj:_Enumerator_CheckState_m1761755727_gshared
Lhe:_Hashtable_Rehash_m2877670513
p3a:__ZN13RenderTexture8SetWidthEi
hQe:_InputField_Insert_m1593238693
O$b:__ZNK28RectTransformPropertyBinding12SetPPtrValueERKN11UnityEngine9Animation10BoundCurveEi
wPb:__Z18Transfer_BlittableI18StreamedBinaryReadILb0EELb0EfEvRK29SerializationCommandArgumentsR31RuntimeSerializationCommandInfo
jvb:__ZN10MeshFilterD0Ev
eZc:_UNITY_FT_GlyphLoader_CheckSubGlyphs
hHi:__Z132RuntimeInvoker_Int32_t2071877448_Il2CppObject_Int32_t2071877448_Int32_t2071877448_Il2CppObject_Int32_t2071877448_Int32U26_t455636984PK10MethodInfoPvPS2_
w2e:_Array_Sort_TisVector3_t2243707580_m3220373153_gshared
_Ye:_Array_InternalArray__ICollection_Add_TisCustomAttributeTypedArgument_t1498197914_m3260005285_gshared
ZYa:__Z25SetupObjectBakedOcclusionbRK15SharedLightDataRK26SharedLightmapSettingsDataRK15LightmapIndicesR17ShaderPassContext
Aie:_SyncHashtable_GetObjectData_m3774367030
skj:__ZN21InterfaceFuncInvoker4IP17Match_t3164245899P17Regex_t1803876613P8String_tiiE6InvokeEjP11Il2CppClassP12Il2CppObjectS3_S5_ii
NHf:_Guid_GetHashCode_m1401300871
gGj:_ListPool_1_U3Cs_ListPoolU3Em__0_m1243609651_gshared
xpc:__Z42Register_UnityEngine_GUIStyle_set_fontSizev
QJe:_FontData__ctor_m3822008992
z1i:_LogCallback__ctor_m898185969
iIj:__ZL23UnresolvedVirtualCall_5P12Il2CppObjectsPK10MethodInfo
bB:__ZN4PPtrI6AvatarE8TransferI19StreamedBinaryWriteILb0EEEEvRT_
ks:__ZN8Animator9BuildJobsERK13dynamic_arrayIP14PlayableOutputLj4EERS0_INS_11AnimatorJobELj4EEPS7_bb
H2h:_Dictionary_2_System_Collections_IDictionary_set_Item_m115188189_gshared
I$:__ZN9ShaderLab16FastPropertyName4InitEPKc
szc:__ZN11b2GearJointD0Ev
V_b:__Z13RegisterClassIN2UI13RectTransformEEvv
ZWf:_MSCompatUnicodeTable_ToWidthCompat_m2299599532
j6i:_Component_BroadcastMessage_m444672650
HVf:_NumberFormatter_get_IsFloatingSource_m2830957202
wsb:__ZN10VertexData8TransferI17RemapPPtrTransferEEvRT_
Nca:__ZN13RenderTexture9SetMipMapEb
ddd:__ZN15dense_hashtableINSt3__24pairIK10KeyWrapperIPK11Il2CppClassEPKcEES6_N6il2cpp5utils11PointerHashIS3_EEN14dense_hash_mapIS6_S9_SE_NS6_14EqualsComparerINS0_8equal_toIS5_EEEENS0_9allocatorISA_EEE9SelectKeyESJ_SL_E13set_empty_keyERKSA_
Lei:_ScrollRect_set_verticalScrollbarSpacing_m2356851539
PZ:__Z18GetDirectorManagerv
oWf:_OperatingSystem_GetObjectData_m2276196875
Uhb:__ZNK10TagManager26GetTypeInfoVirtualInternalEv
jZh:_ResourceRequest_t2560315377_marshal_pinvoke_back
QBb:__ZN21ArchiveStorageCreator13AppendRawNodeERKN4core12basic_stringIcNS0_20StringStorageDefaultIcEEEEN20ArchiveStorageHeader9NodeFlagsEyy
Ejc:__Z38Transform_CUSTOM_INTERNAL_get_rotationP12Il2CppObjectP11Quaternionf
K6h:_DefaultComparer_GetHashCode_m2596628120_gshared
Zbj:_AnimatorControllerPlayable_CrossFadeInFixedTime_m1082259778
uCg:__ZL66CriticalFinalizerObject_t1920899984_CustomAttributesCacheGeneratorP21CustomAttributesCache
FLj:__ZL25UnresolvedVirtualCall_190P12Il2CppObject20TimeSpan_t3430258949S1_PK10MethodInfo
$qd:__ZNK15dense_hashtableINSt3__24pairIK10KeyWrapperINS1_IPK10MethodInfoP11Il2CppClassEEEjEES9_17ReflectionMapHashIS8_EN14dense_hash_mapIS9_jSD_NS9_14EqualsComparerINS0_8equal_toIS8_EEEENS0_9allocatorISB_EEE9SelectKeyESI_SK_E5beginEv
yCa:__ZN7ApiGLES19UploadBufferSubDataEjN2gl12BufferTargetEllPKv
T1d:_String_System_IConvertible_ToInt32_m1927223638
wUe:_Array_InternalArray__ICollection_Remove_TisContentType_t1028629049_m3085152315_gshared
EOi:__Z62RuntimeInvoker_AnimatorStateInfo_t2577870592_Int32_t2071877448PK10MethodInfoPvPS2_
W3i:_Canvas_set_sortingOrder_m2922819993
BZi:__Z72RuntimeInvoker_KeyValuePair_2_t3749587448_Int32_t2071877448_Il2CppObjectPK10MethodInfoPvPS2_
wYi:__Z61RuntimeInvoker_ResourceCacheItem_t333236149_Int32_t2071877448PK10MethodInfoPvPS2_
Z3d:_ASCIIEncoding__ctor_m4127831672
jXg:__ZL117AnimatorControllerPlayable_t4078305555_CustomAttributesCacheGenerator_AnimatorControllerPlayable_CrossFade_m437921439P21CustomAttributesCache
GGb:__Z19TransferField_ArrayI14SafeBinaryRead27Converter_SimpleNativeClassI8GUIStyleEEvRK23StaticTransferFieldInfoR31RuntimeSerializationCommandInfoRT0_
BAh:_UTF8Encoding__ctor_m3336862259
mBd:__ZN15dense_hashtableINSt3__24pairIK10KeyWrapperIP14Il2CppIUnknownEjEES5_N6il2cpp5utils11PointerHashIS3_EEN14dense_hash_mapIS5_jSB_NS5_14EqualsComparerINS0_8equal_toIS4_EEEENS0_9allocatorIS7_EEE9SelectKeyESG_SI_ED2Ev
MQd:__ZN6il2cpp5utils10MemoryPoolC2Ej
ZQi:__Z54RuntimeInvoker_Boolean_t3825574718_HitInfo_t1761367055PK10MethodInfoPvPS2_
vpg:_X509Chain_GetAuthorityKeyIdentifier_m2607407678
IQd:__ZN6il2cpp5utils10MemoryPoolC2Ev
Qlb:__ZN14RenderSettings5ResetEv
qzd:__ZNSt3__212basic_stringIDsNS_11char_traitsIDsEENS_9allocatorIDsEEE6appendEPKDsj
fDe:_RaycastResult_set_gameObject_m1138581891_AdjustorThunk
U2i:_Bounds_get_extents_m4077324178_AdjustorThunk
YCi:__Z117RuntimeInvoker_Int32_t2071877448_Il2CppObject_Il2CppObject_Int32_t2071877448_Int32_t2071877448_BooleanU26_t3168250738PK10MethodInfoPvPS2_
xsi:_InternalEnumerator_1_get_Current_m3724267862_AdjustorThunk
r3e:_Dictionary_2_Do_ICollectionCopyTo_TisKeyValuePair_2_t3716250094_m1740410536_gshared
xLh:_GUI_CallWindowDelegate_m2039577415
kId:__ZN6il2cpp2os10ThreadImplD2Ev
y1f:_RSAManaged_Dispose_m3018788098
Mzc:__ZN12b2MouseJoint23InitVelocityConstraintsERK12b2SolverData
xqc:__ZN8Gradient8TransferI9JSONWriteEEvRT_
HBh:_Monitor_Monitor_pulse_m2135582245
Vcg:_Context_get_ReceivedConnectionEnd_m3369356276
Kjg:_NameObjectCollectionBase_get_Count_m2353593692
Cbb:__ZNK12TLSAllocatorI14StackAllocatorE22GetAllocatedMemorySizeEv
lBg:__ZL54AssemblyName_t894705941_CustomAttributesCacheGeneratorP21CustomAttributesCache
Boe:_Convert_ToUInt32_m3394039268
y5a:__ZN17RemapPPtrTransfer12PushMetaFlagE17TransferMetaFlags
hN:__ZNK7WeakPtrI20SoundChannelInstanceE10SharedData9GetRawPtrEv
tLa:__ZN12HandlerChain4NameEv
Ixb:__ZNSt3__26vectorI9InputAxisNS_9allocatorIS1_EEE10deallocateEv
Nfd:__ZNK15dense_hashtableINSt3__24pairIK10KeyWrapperI13dynamic_arrayIPK10Il2CppTypeLj4EEEPFvvEEES8_N6il2cpp8metadata19Il2CppSignatureHashEN14dense_hash_mapIS8_SB_SF_NS8_14EqualsComparerINSE_22Il2CppSignatureCompareEEENS0_9allocatorISC_EEE9SelectKeyESJ_SL_E10test_emptyERK30dense_hashtable_const_iteratorISC_S8_SF_SN_SJ_SL_E
LIf:_Int16_Equals_m3925135434_AdjustorThunk
w2c:__Z44Register_UnityEngine_CanvasRenderer_get_cullv
kad:__ZN15dense_hashtableINSt3__24pairIK10KeyWrapperIPK22Il2CppGenericParameterEP11Il2CppClassEES6_N6il2cpp5utils11PointerHashIS4_EEN14dense_hash_mapIS6_S9_SE_NS6_14EqualsComparerINS0_8equal_toIS5_EEEENS0_9allocatorISA_EEE9SelectKeyESJ_SL_ED2Ev
bzg:__ZL60IHashCodeProvider_t1980576455_CustomAttributesCacheGeneratorP21CustomAttributesCache
p$b:__ZN13ProduceHelperI13MonoBehaviourLb0EE7ProduceE18MemLabelIdentifier18ObjectCreationMode
X7e:_Enumerator_VerifyState_m1677639504_AdjustorThunk
G9a:__Z29StdTemplateConversionFunctionIbbEbPvR14SafeBinaryRead
OKd:__ZNK15dense_hashtableINSt3__24pairIK10KeyWrapperIPK19Il2CppGenericMethodEP10MethodInfoEES6_N6il2cpp8metadata23Il2CppGenericMethodHashEN14dense_hash_mapIS6_S9_SD_NS6_14EqualsComparerINSC_26Il2CppGenericMethodCompareEEENS0_9allocatorISA_EEE9SelectKeyESH_SJ_E12test_deletedEj
Jag:_CipherSuiteCollection_get_Item_m280627160
mFb:__Z44InitializeTransferFunctionScriptingTraitsForI17RemapPPtrTransferEvR31TransferFunctionScriptingTraits
qdh:_SerializationInfoEnumerator_MoveNext_m1876990879
TDh:_TimeSpan_Duration_m4205681645
X6a:__ZN14UnityWebStream24UpdateAllUnityWebStreamsEv
wof:_Collection_1_System_Collections_IList_get_IsReadOnly_m2329986891_gshared
Fxg:__ZL60ObsoleteAttribute_t3878847927_CustomAttributesCacheGeneratorP21CustomAttributesCache
npj:_Uri_ParseAsWindowsAbsoluteFilePath_m1108586962
gcg:_Context_get_HandshakeState_m3443153737
w_e:_Array_InternalArray__ICollection_CopyTo_TisRaycastHit2D_t4063908774_m3837098618_gshared
qna:__ZN18LoadSceneOperation21MustCompleteNextFrameEv
NK:__ZNK12AudioManager16GetAudioListenerEv
Svh:_MonoField_get_FieldType_m598011426
vof:_Collection_1_System_Collections_IList_get_IsFixedSize_m1624702704_gshared
DAe:_EventTrigger_OnScroll_m626934407
APg:__ZL48Camera_t189460977_CustomAttributesCacheGeneratorP21CustomAttributesCache
K2a:__ZNSt3__26vectorI11CameraStackNS_9allocatorIS1_EEE8__appendEj
Qyd:__ZNSt3__212basic_stringIcNS_11char_traitsIcEENS_9allocatorIcEEE6__initINS_11__wrap_iterIPcEEEENS_9enable_ifIXsr21__is_forward_iteratorIT_EE5valueEvE4typeESB_SB_
OBc:__ZNK11Rigidbody2D20GetAttachedCollidersER13dynamic_arrayIP10Collider2DLj4EE
qPe:_InputField_OnDisable_m1865339380
xHh:_UInt32_System_IConvertible_ToType_m747769316
Bx:__ZN7mecanim9animation12GetHumanPoseERKNS0_18ClipMuscleConstantEPKNS0_10ValueDeltaERNS_5human9HumanPoseE
M3c:__ZN11UnityEngine9Analytics15UserCustomEvent12CustomParams6InsertEPKcRNS1_11CustomValueE
XYj:_glDeleteVertexArrays__wrapper
KMb:__Z29Transfer_Blittable_ArrayFieldI19StreamedBinaryWriteILb0EEjEvRT_R9ArrayInfoRK23StaticTransferFieldInfo
AX:__Z13GetFileSystemv
d6:__ZNK5Unity4Type21FindAllDerivedClassesER13dynamic_arrayIPKS0_Lj4EENS0_17TypeFilterOptionsE
Y6:__ZN13RuntimeStaticI15GUIEventManagerLb0EE16StaticInitializeEPv
Gwb:__ZN14SafeBinaryRead8TransferIfEEvRT_PKc17TransferMetaFlags
qQb:__ZL12InvokeMethodI18StreamedBinaryReadILb0EEEvRK29SerializationCommandArgumentsR31RuntimeSerializationCommandInfo
bGf:_DaylightTime_get_Delta_m2316831491
eGc:__ZNSt3__27__sort5IR24RayHitsByDepthComparitorP12RaycastHit2DEEjT0_S5_S5_S5_S5_T_
xTe:_Array_InternalArray__ICollection_Contains_TisUILineInfo_t3621277874_m1175659630_gshared
hDh:_WaitHandle_WaitOne_m370363697
s4g:__ZL114PointerEventData_t1599784723_CustomAttributesCacheGenerator_PointerEventData_set_pointerCurrentRaycast_m2431897513P21CustomAttributesCache
Brg:_FactoryCache_Lookup_m1681894361
Jqe:_DateTime_Subtract_m698282245_AdjustorThunk
nwb:__ZThn32_N14SpriteRenderer15AddAsRenderNodeER15RenderNodeQueueRK20DeprecatedSourceData
Cvi:_DefaultComparer__ctor_m2470932885_gshared
Kzg:__ZL55BinaryReader_t2491843768_CustomAttributesCacheGeneratorP21CustomAttributesCache
SOb:__Z29Transfer_Blittable_ArrayFieldI18StreamedBinaryReadILb1EE5RectTIfEEvRT_R9ArrayInfoRK23StaticTransferFieldInfo
$Kg:__ZL79Convert_t2607082565_CustomAttributesCacheGenerator_Convert_ToUInt64_m1896191125P21CustomAttributesCache
iSa:__ZN19ShaderPropertySheet9SetMatrixEN9ShaderLab16FastPropertyNameERK10Matrix4x4fNS_8SetFlagsE
lWd:_RIPEMD160Managed_Initialize_m3365407578
zob:__Z29GetTextureSizeAllowedMultiple13TextureFormat
hlg:_IPAddress_HostToNetworkOrder_m1092199707
$Ue:_SetPropertyUtility_SetStruct_TisSpriteState_t1353336012_m2898060836_gshared
B_d:_SecurityAttribute__ctor_m3425755778
V4b:__ZN21IntermediateRenderers3AddEP20IntermediateRenderer
yld:_il2cpp_array_element_size
bPi:__Z80RuntimeInvoker_Int32_t2071877448_PlayableHandleU26_t3483893774_Int32_t2071877448PK10MethodInfoPvPS2_
uXg:__ZL139AnimatorControllerPlayable_t4078305555_CustomAttributesCacheGenerator_AnimatorControllerPlayable_INTERNAL_CALL_CrossFadeInternal_m698817831P21CustomAttributesCache
bg:_glCheckFramebufferStatus
DYg:__ZL55TextGenerator_t647235000_CustomAttributesCacheGeneratorP21CustomAttributesCache
nWe:_Array_compare_TisInt32_t2071877448_m840310202_gshared
sGi:__Z57RuntimeInvoker_Il2CppObject_Il2CppObject_Byte_t3683104436PK10MethodInfoPvPS2_
Fui:_InternalEnumerator_1_System_Collections_IEnumerator_get_Current_m442726479_AdjustorThunk
Ikh:_DESTransform_ECB_m2629024873
fti:_InternalEnumerator_1_System_Collections_IEnumerator_get_Current_m790514740_AdjustorThunk
Xyc:__ZNK15b2DistanceJoint17GetReactionTorqueEf
S3d:__Z37il2cpp_codegen_get_executing_assemblyPK10MethodInfo
ZXb:__ZN9Transform23VirtualRedirectTransferER17RemapPPtrTransfer
Zxg:__ZL57TypedReference_t1025199857_CustomAttributesCacheGeneratorP21CustomAttributesCache
tXe:_Array_InternalArray__IndexOf_TisByte_t3683104436_m3605266236_gshared
YQh:_GUIStyle_set_richText_m1853532836
Quf:_Collection_1_System_Collections_IList_Insert_m435904526_gshared
Pci:_RaycastAllCallback_Invoke_m981876639
ozh:_UnicodeEncoding__ctor_m72484327
awg:__ZL74Il2CppArray_CustomAttributesCacheGenerator_Array_GetUpperBound_m1352329707P21CustomAttributesCache
pBd:__ZN14dense_hash_mapI10KeyWrapperIP14Il2CppIUnknownEjN6il2cpp5utils11PointerHashIS1_EENS3_14EqualsComparerINSt3__28equal_toIS2_EEEENS9_9allocatorINS9_4pairIKS3_jEEEEE15set_deleted_keyERSF_
I6:__ZN22BuiltinResourceManager16StaticInitializeEPv
eFf:_NumberFormatter_ScaleOrder_m1915154678
xxd:__ZN6il2cpp2gc9AllocatorIP12Il2CppThreadE10deallocateEPvj
tyc:__ZN24b2ChainAndCapsuleContact8EvaluateEP10b2ManifoldRK11b2TransformS4_
GEj:_UnityEvent_1_GetDelegate_m2720691419_gshared
Ecg:_ClientSessionInfo_SetContext_m2649357891
CJf:_Int32_System_IConvertible_ToInt64_m3790029067_AdjustorThunk
BAi:__Z69RuntimeInvoker_Boolean_t3825574718_Il2CppObject_DoubleU26_t1208767207PK10MethodInfoPvPS2_
fAe:_RaycasterManager_GetRaycasters_m1154876874
Rhg:_SslStreamBase_InternalReadCallback_m2524917586
G5:__ZN8Remapper6RemoveEi
Wcf:_List_1_CheckCollection_m2608305187_gshared
KKa:__ZN10MemoryFile4ReadEyPvPy
KFh:_Type_get_ContainsGenericParameters_m505913180
dOc:__ZL36CleanupTextRenderingScriptingClassesv
rTg:__ZL82Material_t193706927_CustomAttributesCacheGenerator_Material_SetIntImpl_m4157631275P21CustomAttributesCache
l3a:__ZN15ReflectionProbe17UseRendererResultEP13ProbeRenderer
K7d:_Array_BinarySearch_m3270245097
Ggc:__Z34Mesh_CUSTOM_SetArrayForChannelImplP12Il2CppObject30InternalScriptingShaderChannel34InternalScriptingVertexChannelTypeiP11Il2CppArrayi
rNf:_MonoIO_DeleteFile_m3273821223
asi:_InternalEnumerator_1_Dispose_m3642485841_AdjustorThunk
JYf:_BigInteger_GenerateRandom_m2507308768
zpe:_DateTime_System_IConvertible_ToDouble_m1431748426_AdjustorThunk
CXi:__Z76RuntimeInvoker_Void_t1841601450_Int32_t2071877448_ContactPoint2D_t3659330976PK10MethodInfoPvPS2_
jTe:_Array_InternalArray__ICollection_Contains_TisUInt16_t986882611_m510319131_gshared
x$e:_Array_InternalArray__Insert_TisRaycastHit2D_t4063908774_m3174907903_gshared
Zse:_Decimal_ToString_m541380585
osg:_RepeatContext_get_Previous_m808449037
OHi:__Z60RuntimeInvoker_DateTime_t693205669_Il2CppObject_Il2CppObjectPK10MethodInfoPvPS2_
muh:_MemberFilter__ctor_m1775909550
w6e:_KeyValuePair_2_set_Key_m1307112735_AdjustorThunk
U8c:__ZZN18UnityConnectClient23RegisterGlobalCallbacksEvEN41EarlyUpdateUnityConnectClientUpdatestruct7ForwardEv
NB:__ZN11UnityEngine9Animation28GenericAnimationBindingCache25RegisterIAnimationBindingEPKN5Unity4TypeEiP17IAnimationBinding
ZE:__Z106Register_UnityEngine_Experimental_Director_AnimatorControllerPlayable_INTERNAL_CALL_GetLayerWeightInternalv
A2c:__Z70RectTransformUtility_CUSTOM_INTERNAL_CALL_RectangleContainsScreenPointP12Il2CppObjectRK13Vector2fIcallS0_
bwe:_Enum_ToObject_m2601523252
tTj:dynCall_viiffiii
qhg:_InternalAsyncResult_get_FromWrite_m2893408424
abd:__ZN6il2cpp2vm5Class15GetElementClassEP11Il2CppClass
QRe:_U3CDelayedSetDirtyU3Ec__Iterator0_System_Collections_IEnumerator_get_Current_m851854792
xVa:__Z20RenderSceneDepthPassRK19SharedRendererSceneRK17ShaderReplaceDatabR17ShaderPassContext
u3c:__ZN14UnityAnalytics25UnregisterGlobalCallbacksEv
o1a:__Z40ProcessCameraIndexListIsNodeVisibleInOutRK22SceneCullingParametersPK9SceneNodePK4AABBR9IndexList
Qkb:__ZN16GraphicsSettings8TransferI17RemapPPtrTransferEEvRT_
x6f:_BigInteger_op_LessThanOrEqual_m3528380540
yQf:_StreamReader__ctor_m2654332332
_$c:__ZN2UI6Canvas13UpdateBatchesEb
dFc:__ZN17PolygonCollider2D15TransformPointsERK13dynamic_arrayI8Vector2fLj4EERK10Matrix4x4fRKS1_fP6b2Vec2
Jnb:__ZN7Texture19SupportsAsyncUploadI19StreamedBinaryWriteILb0EEEEbRT_
abf:_List_1_CheckCollection_m3968030679_gshared
hBj:_Predicate_1_BeginInvoke_m3556950370_gshared
Uyh:_StringBuilder_ToString_m617673931
fua:__ZNK13GfxDeviceGLES12GetWireframeEv
Fzf:_ReadOnlyCollection_1_System_Collections_ICollection_get_IsSynchronized_m3127987432_gshared
H6c:__ZN11UnityEngine7Connect13ConfigHandler12GetListenersERKN4core12basic_stringIcNS2_20StringStorageDefaultIcEEEE
xva:__ZN9GfxDevice18AllocRenderSurfaceEb
wZb:__ZN10TagManager32GetSortingLayerUniqueIDFromValueEi
onj:_AnchorInfo_get_IsComplete_m1247624133
iJe:_Dropdown_Show_m324374589
LCe:_PointerInputModule_ShouldStartDrag_m4163638715
tQg:__ZL85Component_t3819376471_CustomAttributesCacheGenerator_Component_SendMessage_m913946877P21CustomAttributesCache
owf:_ReadOnlyCollection_1_System_Collections_ICollection_get_SyncRoot_m769863805_gshared
yCe:_RaycastResult_get_isValid_m2482925612
vgc:__Z26AnimationCurve_CUSTOM_InitP12Il2CppObjectP11Il2CppArray
$_j:_glUniform1uiv__wrapper
ayc:__ZNK14b2PolygonShape5CloneEP16b2BlockAllocator
ntd:__ZN6il2cpp2vm10Reflection7IsEventEP12Il2CppObject
ahd:__ZNSt3__26__treeINS_12__value_typeIPFvvEPK10MethodInfoEENS_19__map_value_compareIS3_S7_NS_4lessIS3_EELb1EEENS_9allocatorIS7_EEE16__insert_node_atEPNS_16__tree_node_baseIPvEERSI_SI_
n2:__ZN17PersistentManager26GetStreamNameSpaceInternalEi
uG:__ZN4FMOD6System11createSoundEPKcjP22FMOD_CREATESOUNDEXINFOPPNS_5SoundE
O4i:_CanvasRenderer_get_cull_m3577089379
Crf:__ZN23InterfaceActionInvoker2Ii22UICharInfo_t3056636800E6InvokeEjP11Il2CppClassP12Il2CppObjectiS0_
bo:FUNCTION_TABLE_iiifiiii
XPi:__Z66RuntimeInvoker_Void_t1841601450_Int32_t2071877448_Rect_t3681755626PK10MethodInfoPvPS2_
jVh:_Object_Destroy_m4145850038
HOi:__Z109RuntimeInvoker_Void_t1841601450_PlayableHandleU26_t3483893774_Int32_t2071877448_SByte_t454417549_Il2CppObjectPK10MethodInfoPvPS2_
God:__ZN6il2cpp2vm4Type14IsSystemDBNullEPK10Il2CppType
C0:__ZN9ShaderLab19CommonPropertyNames13StaticCleanupEPv
v3:__Z31scripting_method_get_returntype18ScriptingMethodPtr
Tei:_ScrollRect_UpdateBounds_m3266596336
Ipb:__ZN15SerializeTraitsI12LightmapDataE8TransferI24GenerateTypeTreeTransferEEvRS0_RT_
YPa:_unity_z_zcfree
RGe:_ColorBlock_GetHashCode_m649325222
zXj:_glStencilOpSeparate__wrapper
a8b:__ZN4Mesh5SetUvEiPKfjj
Tna:__ZN7Texture13SetAnisoLimitENS_20AnisotropicFilteringE
ioa:__ZN28LightProbeProxyVolumeManager25UpdateSHCoeffsTextureDataER21LightProbeProxyVolume
vJa:__Z18CreateDecompressor15CompressionType18MemLabelIdentifier
QO:__ZN11AudioModule16SetListenerPauseEb
Vh:_emscripten_glCompressedTexSubImage2D
ODa:__ZN13GfxDeviceGLES22MemoryBarrierImmediateEyN2gl17MemoryBarrierTypeE
Aoe:_Convert_ToUInt32_m1336475941
$Xg:__ZL132AnimatorControllerPlayable_t4078305555_CustomAttributesCacheGenerator_AnimatorControllerPlayable_INTERNAL_CALL_SetBoolID_m2987425503P21CustomAttributesCache
sla:__ZN6prcoreL26RemapGenericFloatToIntegerI18TexFormatARGBFloat17TexFormatARGB8888EEvPKNS_9InnerInfoE
b_b:__ZN6Object27GetOffsetOfInstanceIdMemberEv
lXc:_cff_ps_has_glyph_names
TCj:_InvokableCall_1__ctor_m2837611051_gshared
d7h:_EqualityComparer_1__ctor_m1389939323_gshared
B$h:_Transform_1_EndInvoke_m1025924012_gshared
_vg:__ZL81Il2CppArray_CustomAttributesCacheGenerator_Array_GetValue_m3550694941____indices0P21CustomAttributesCache
yMd:_GC_write
alj:_PatternCompiler_EmitPosition_m3013268572
Zqg:_X509SubjectKeyIdentifierExtension__ctor_m1109455121
QYb:__Z13tessTesselateP14TESStesselatoriiiiPKf
WIj:__ZL24UnresolvedVirtualCall_45P12Il2CppObject19DateTime_t693205669PK10MethodInfo
uLe:_Graphic_CreateColorFromAlpha_m2614574534
Izh:_UnicodeEncoding_GetHashCode_m2443440683
Jpc:__Z44Register_UnityEngine_GUIStyle_SetDefaultFontv
orh:_GenericTypeParameterBuilder_GetPropertyImpl_m3566422383
_6b:__ZN19SpriteMeshGenerator9MakeShapeEP11ColorRGBA32iifhbjfi
eNb:__Z18Transfer_BlittableI18StreamedBinaryReadILb1EELb1EiEvRK29SerializationCommandArgumentsR31RuntimeSerializationCommandInfo
Xs:__ZN9BlobWrite8TransferI22OffsetPtrArrayTransferIKN4math7_float3EEEEvRT_PKc17TransferMetaFlags
wZd:_TripleDES_IsWeakKey_m483013953
mog:_X509Certificate2_get_PrivateKey_m2662162956
A0h:_Enumerator__ctor_m3819430617_AdjustorThunk
csd:__ZN15dense_hashtableINSt3__24pairIK10KeyWrapperINS1_IPK12PropertyInfoP11Il2CppClassEEEjEES9_17ReflectionMapHashIS8_EN14dense_hash_mapIS9_jSD_NS9_14EqualsComparerINS0_8equal_toIS8_EEEENS0_9allocatorISB_EEE9SelectKeyESI_SK_E12maybe_shrinkEv
wNb:__Z18Transfer_BlittableI18StreamedBinaryReadILb1EELb1EsEvRK29SerializationCommandArgumentsR31RuntimeSerializationCommandInfo
oz:__ZN26AnimatorControllerPlayable17IsMultithreadableEv
$0d:_Single_System_IConvertible_ToSByte_m3757385387
XUi:__Z51RuntimeInvoker_Boolean_t3825574718_Slot_t2022531261PK10MethodInfoPvPS2_
rOf:_StreamAsyncResult_SetComplete_m2141125667
Yna:__ZL21SetAnisoLimitEnumImplN7Texture20AnisotropicFilteringEb
h5c:__ZN22BaseUnityConnectClient17OnEnterStateReadyEv
xY:__GLOBAL__sub_I_platformdependent_webgl_source_lump_cpp
S_:__Z21GetManagerFromContexti
cef:_List_1_get_Count_m634584594_gshared
ykb:__ZN14GrowableBufferD2Ev
nSh:_Keyframe_get_tangentMode_m1869200796_AdjustorThunk
Qfc:__Z29Input_CUSTOM_GetMouseButtonUpi
ald:__ZN6il2cpp6icalls8mscorlib6System8MonoType16InternalGetEventEP20Il2CppReflectionTypeP12Il2CppStringi
BHh:_UInt32_System_IConvertible_ToUInt32_m1257480358_AdjustorThunk
Xzg:__ZL50FileMode_t236403845_CustomAttributesCacheGeneratorP21CustomAttributesCache
DId:__ZN6il2cpp2osL23CleanupThreadIfCanceledEPv
$fc:__Z46Input_CUSTOM_INTERNAL_set_compositionCursorPosRK13Vector2fIcall
qu:__ZN7mecanim5human12FullBodyMaskEv
TIg:__ZL98Activator_t1850728717_CustomAttributesCacheGenerator_Activator_CreateInstance_m1465989661____args1P21CustomAttributesCache
lLj:__ZL25UnresolvedVirtualCall_170P12Il2CppObject19Vector3_t2243707580PK10MethodInfo
b0:__ZN19ShaderPropertySheet11ComputeHashEv
Med:__ZN30dense_hashtable_const_iteratorI10KeyWrapperIPK19Il2CppGenericMethodES4_N6il2cpp8metadata23Il2CppGenericMethodHashEN14dense_hash_setIS4_S7_NS4_14EqualsComparerINS6_26Il2CppGenericMethodCompareEEENSt3__29allocatorIS4_EEE8IdentityESB_SE_EppEv
Dyc:__ZN12b2EPCollider24ComputePolygonSeparationEv
jOb:__ZN4PPtrI6ObjectE8TransferI18StreamedBinaryReadILb1EEEEvRT_
lHe:_ColorTween_get_tweenMode_m2919867230_AdjustorThunk
n$e:_Array_InternalArray__Insert_TisUInt16_t986882611_m2263078_gshared
VFe:_CanvasScaler_HandleScaleWithScreenSize_m80056230
PR:__ZN11UnityEngine15CloudWebService16SessionContainer16GetJsonDataBlockEjRKN4core12basic_stringIcNS2_20StringStorageDefaultIcEEEERS6_PjSA_
mRg:__ZL89GameObject_t1756533147_CustomAttributesCacheGenerator_GameObject_AddComponent_m3757565614P21CustomAttributesCache
jkd:__ZNK6il2cpp5utils10functional6FilterINSt3__212basic_stringIcNS3_11char_traitsIcEENS3_9allocatorIcEEEENS0_11StringUtils21CaseSensitiveComparerEEclIPKcEEbRKT_
Brh:_GenericTypeParameterBuilder_get_AssemblyQualifiedName_m902593295
jAh:_UTF7Encoding_InternalGetBytes_m2772055844
I8h:_EqualityComparer_1__ctor_m831468288_gshared
jXf:_SimpleCollator__cctor_m2693747668
Sse:_Decimal_CompareTo_m2454501434_AdjustorThunk
C2:__ZN14SafeBinaryReadD2Ev
iGh:_UInt16_System_IConvertible_ToChar_m4055364664
O_b:__Z13RegisterClassI7TextureEvv
soj:_ExpressionCollection_OnValidate_m1703610065
DOb:__ZN8Gradient8TransferI18StreamedBinaryReadILb1EEEEvRT_
Z$h:_Enumerator_Dispose_m2369319718_AdjustorThunk
vKg:__ZL79Convert_t2607082565_CustomAttributesCacheGenerator_Convert_ToUInt16_m3991499696P21CustomAttributesCache
tpc:__Z45Register_UnityEngine_GUIStyle_SetFontInternalv
JEc:__ZN19CollisionListener2DD0Ev
$ze:_EventSystem_get_isFocused_m3253201558
ebd:__ZN6il2cpp2vmL17SetupEventsLockedEP11Il2CppClassRKNS_2os12FastAutoLockE
fAd:__ZN6il2cpp6icalls8mscorlib6System4Type15MakeGenericTypeEP20Il2CppReflectionTypeP11Il2CppArray
oj:_SDL_PauseAudio
Vld:_il2cpp_class_from_type
q8d:_Array_Sort_m2323017822
_md:__ZN6il2cpp2os4File11GetStdErrorEv
wNh:_GUILayoutUtility__cctor_m2957755459
x2i:_AudioConfigurationChangeHandler_EndInvoke_m2237100787
B0:__ZN9ShaderLab19CommonPropertyNames16StaticInitializeEPv
Asa:__ZN17ShaderPassContext8CopyFromERKS_
Cma:__ZN13MemoryManager31DisallowAllocationsOnThisThreadEv
DA:__ZN7mecanim9animation18CreateAvatarOutputEPKNS0_14AvatarConstantEbbRNS_6memory9AllocatorE
Tpc:__Z45GUIUtility_CUSTOM_Internal_GetKeyboardControlv
ikh:_CspParameters__ctor_m2546931874
dM:__ZN11AudioSource23VirtualRedirectTransferER24GenerateTypeTreeTransfer
g4c:__ZN14UnityAnalytics15SendCustomEventERN11UnityEngine9Analytics15UserCustomEventE
Zsb:__ZN14Texture2DArray23VirtualRedirectTransferER14SafeBinaryRead
qYa:__ZNK6Camera21CalculateCanDoShadowsEv
G4h:_Dictionary_2_make_pair_m2631942124_gshared
CLe:_Graphic__cctor_m1643894470
YHd:__ZN6il2cpp2os6Thread12SetStackSizeEj
Iog:_X509ChainElementEnumerator_get_Current_m2232618221
rFe:_U3COnFinishSubmitU3Ec__Iterator0_Reset_m2080388334
v8b:__ZNK8Renderer16IsVisibleInSceneEv
vOi:__Z44RuntimeInvoker_AnimatorStateInfo_t2577870592PK10MethodInfoPvPS2_
F2i:_Behaviour_get_isActiveAndEnabled_m3838334305
Nei:_ScrollRect_set_onValueChanged_m3957749575
_X:__Z13VFormatBufferPciPKcz
vPb:__Z18Transfer_BlittableI18StreamedBinaryReadILb0EELb1EhEvRK29SerializationCommandArgumentsR31RuntimeSerializationCommandInfo
MAj:_U3CCreateWhereIteratorU3Ec__Iterator1D_1_Dispose_m1879652802_gshared
YCg:__ZL90SafeHandle_t2733794115_CustomAttributesCacheGenerator_SafeHandle_get_IsInvalid_m3910183075P21CustomAttributesCache
BZb:__ZL24GenerateTilingJobCombineP22GenerateTilingAreaInfo
uNe:_Image_GenerateSimpleSprite_m4275440988
n7i:_Display_get_systemHeight_m3377672024
ZGh:_UInt16_ToString_m3280699191
zEj:_UnityEvent_1_GetDelegate_m2566156550_gshared
wla:__ZN6prcoreL27StretchGenericFloatBilinearI15TexFormatRFloatEEvPKNS_9InnerInfoE
TDg:__ZL62IDynamicMessageSink_t3056162262_CustomAttributesCacheGeneratorP21CustomAttributesCache
uBi:__Z33RuntimeInvoker_UInt32_t2149682021PK10MethodInfoPvPS2_
_zi:__Z130RuntimeInvoker_Int32_t2071877448_Il2CppObject_Int32_t2071877448_Int32_t2071877448_Il2CppObject_Int32_t2071877448_Int32_t2071877448PK10MethodInfoPvPS2_
eVe:_Array_InternalArray__IEnumerable_GetEnumerator_TisBoolean_t3825574718_m798244337_gshared
vif:_List_1_CopyTo_m158925060_gshared
$Ei:__Z102RuntimeInvoker_Il2CppObject_Int32_t2071877448_Int32_t2071877448_Il2CppObject_Il2CppObject_Il2CppObjectPK10MethodInfoPvPS2_
dXe:_Array_IndexOf_TisCustomAttributeNamedArgument_t94157543_m745056346_gshared
ZBa:__Z14PadImageBorderR14ImageReferenceii
Hqd:__ZN15dense_hashtableINSt3__24pairIK10KeyWrapperINS1_IPK10MethodInfoP11Il2CppClassEEEjEES9_17ReflectionMapHashIS8_EN14dense_hash_mapIS9_jSD_NS9_14EqualsComparerINS0_8equal_toIS8_EEEENS0_9allocatorISB_EEE9SelectKeyESI_SK_E4findERSA_
Whd:__ZN6il2cpp2vm13MetadataCache28GetFieldDefaultValueForFieldEPK9FieldInfo
nki:_ArrayReadOnlyList_1_ReadOnlyError_m2289309720_gshared
Hy:__ZN27AnimationLayerMixerPlayableD2Ev
RMf:_Path_IsPathRooted_m1347207448
s6h:_DefaultComparer_GetHashCode_m320514092_gshared
A8f:_PKCS1_Verify_v15_m478274703
tI:__ZN12AudioManager39HandlePendingAudioConfigurationCallbackEv
kk:_emscripten_glIsFramebuffer
NEa:__ZNK13TranslateGLES9GetFormatE13TextureFormat17TextureColorSpace
k4b:__ZN12_GLOBAL__N_16qAtan2Eff
bfi:_ScrollRect_OnEnable_m2748112742
Lne:_Convert_ToInt64_m954367741
WKj:__ZL25UnresolvedVirtualCall_153P12Il2CppObject40CustomAttributeTypedArgument_t1498197914S1_PK10MethodInfo
ok:_JS_Sound_SetLoopPoints
qde:_ArrayList__ctor_m1467563650
oN:__ZN12AudioManager17ShouldSourcePauseEb
bRd:__ZN6il2cpp2vm26MetadataAllocGenericMethodEv
pGa:__ZN19ConstantBuffersGLES12RecordRenderEv
iqa:__ZN18AsyncUploadManager22UploadStreamingTextureEP28FileTextureUploadInstruction
zsc:__ZN9JSONWrite8TransferI10RectOffsetEEvRT_PKc17TransferMetaFlags
FBa:__ZN4crnd12symbol_codec11decode_bitsEj
ftj:_X509Crl_get_Extensions_m1795830276
Eyc:__ZN15b2CircleContact8EvaluateEP10b2ManifoldRK11b2TransformS4_
d2e:_Array_Sort_TisRaycastResult_t21186376_TisRaycastResult_t21186376_m38820193_gshared
M0i:_Animator_ResetTriggerString_m1445965342
v4b:__ZN21FixedBehaviourManagerD0Ev
DVg:__ZL55RaycastHit2D_t4063908774_CustomAttributesCacheGeneratorP21CustomAttributesCache
BNf:_StreamReader__ctor_m3454466728
yI:__ZN4FMOD6System12createReverbEPPNS_6ReverbE
zIh:_UInt64_Equals_m1243465002
Pxj:_Vector2_get_Item_m2792130561
Ema:__Z16MarkDependenciesR27GarbageCollectorThreadStatej
Aqg:_X509ChainElementEnumerator_Reset_m3832280427
n3g:__ZL75EventSystem_t3466835263_CustomAttributesCacheGenerator_U3CU3Ef__mgU24cache0P21CustomAttributesCache
kVf:_MulticastDelegate_RemoveImpl_m2024746777
dGe:_CanvasUpdateRegistry_ParentCount_m2367607495
eVf:_MulticastDelegate_Equals_m3064081489
QSi:__Z54RuntimeInvoker_Void_t1841601450_ColorBlock_t2652774230PK10MethodInfoPvPS2_
u4f:_Activator_CreateInstance_m1465989661
w0:__ZNK9Transform11GetPositionEv
Poj:_PositionAssertion_GetWidth_m2294218483
O2g:__ZL111PlayerConnection_t3517219175_CustomAttributesCacheGenerator_PlayerConnection_MessageCallbackInternal_m267902474P21CustomAttributesCache
YSa:__ZN23SharedMeshRenderingData18UnloadVertexStreamEi
_yj:_Vector4_set_Item_m3077071044
Tmh:_AssemblyName_set_Version_m1012722441
U4b:__ZN31CanvasBatchIntermediateRenderer11AddSubBatchERK16DrawBuffersRangePK19ShaderPropertySheet
u3b:__ZN19RenderEventsContextC2Ei
bQ:__Z6simd4fRKf
r_e:_Array_InternalArray__ICollection_CopyTo_TisColor32_t874517518_m379086718_gshared
lhi:_Slider_ClampValue_m2851810895
Rk:_emscripten_glEnable
WNh:_GUISkin_set_font_m4009958323
yEj:_UnityEvent_1_FindMethod_Impl_m3813546_gshared
QDd:__ZN6il2cpp2gc16GarbageCollector29RegisterFinalizerForNewObjectEP12Il2CppObject
_hb:__ZN10TagManager23VirtualRedirectTransferER14SafeBinaryRead
Eej:_MarshalAsAttribute__ctor_m1892084128
qQc:_UNITY_FT_Init_Class_ft_grays_raster
SMi:__Z53RuntimeInvoker_Void_t1841601450_Vector3U26_t425862308PK10MethodInfoPvPS2_
h$a:__Z15InitLightMeshesv
OIg:__ZL97WaitHandle_t677569169_CustomAttributesCacheGenerator_WaitHandle_t677569169____Handle_PropertyInfoP21CustomAttributesCache
h6e:_KeyValuePair_2_ToString_m1391611625_AdjustorThunk
Cn:FUNCTION_TABLE_iifiii
Pgf:_List_1_Sort_m4156683373_gshared
Pme:_Double_Parse_m1617409931
HRa:__ZN22RenderingCommandBuffer36AcquireAndRegisterSharedMaterialDataEP8Material
ocf:_List_1_System_Collections_Generic_IEnumerableU3CTU3E_GetEnumerator_m1503548298_gshared
ILb:__Z18Transfer_BlittableI19StreamedBinaryWriteILb0EELb1E8Vector2fEvRK29SerializationCommandArgumentsR31RuntimeSerializationCommandInfo
lVc:_cf2_arrstack_init
CCg:__ZL65ClassInterfaceAttribute_t910653559_CustomAttributesCacheGeneratorP21CustomAttributesCache
KV:__Z15CleanLogHandler7LogTypePKcz
eVb:__ZN9ShaderLab19SerializedSubShader8TransferI19StreamedBinaryWriteILb0EEEEvRT_
CN:__ZN14AudioBehaviour15ThreadedCleanupEv
Ozh:_UTF32Encoding_GetBytes_m2290150495
vDb:__ZN6Camera17RemoveImageFilterERK11ImageFilter
oDa:__ZNSt3__218__insertion_sort_3IR25ValueParameterArraySorterPN20GpuProgramParameters14ValueParameterEEEvT0_S6_T_
wDc:__ZN10ClipperLib7Clipper27ProcessEdgesAtTopOfScanbeamEx
k0g:__ZL102GUIUtility_t3275770671_CustomAttributesCacheGenerator_GUIUtility_EndContainerGUIFromException_m8097082P21CustomAttributesCache
T0c:__ZZN2UI11CanvasGroup15InitializeClassEvEN38FunctorImpl_117kTransformParentChanged4CallEPviR11MessageData
jai:_LayoutUtility_GetLayoutProperty_m4052007472
XCj:_InvokableCall_1_Invoke_m3239892614_gshared
pTc:_Horizontal_Sweep_Init
FSa:__ZNSt3__214__split_bufferI20ComputeShaderVariantRNS_9allocatorIS1_EEED2Ev
pLc:__ZNSt3__26vectorIN4core12basic_stringIcNS1_20StringStorageDefaultIcEEEE13stl_allocatorIS5_L18MemLabelIdentifier34ELi16EEE7reserveEj
Hsd:__ZNK10KeyWrapperINSt3__24pairIPK9EventInfoP11Il2CppClassEEE14EqualsComparerINS0_8equal_toIS7_EEEclERKS8_SE_
adg:_Context_set_WriteSequenceNumber_m3356252710
LHf:_Guid_Equals_m2389236871
R0:__Z27LogRepeatingStringWithFlagsRKN4core12basic_stringIcNS_20StringStorageDefaultIcEEEE15LogMessageFlagsi
Tw:__ZNK8Playable11GetDurationEv
lx:__ZN17AnimationPlayable28ComputeNeedsBindingRebuildedEv
lvi:_DefaultComparer__ctor_m2859550749_gshared
v0i:_AnimationEvent_get_functionName_m4178006856
caf:_List_1_CheckIndex_m3609163576_gshared
vfd:__ZNK15dense_hashtableINSt3__24pairIK10KeyWrapperI13dynamic_arrayIPK10Il2CppTypeLj4EEEPFvvEEES8_N6il2cpp8metadata19Il2CppSignatureHashEN14dense_hash_mapIS8_SB_SF_NS8_14EqualsComparerINSE_22Il2CppSignatureCompareEEENS0_9allocatorISC_EEE9SelectKeyESJ_SL_E12test_deletedERK30dense_hashtable_const_iteratorISC_S8_SF_SN_SJ_SL_E
tzb:__ZN15ResourceManagerD0Ev
iog:_X509ExtensionCollection__ctor_m1324282194
p7c:__ZN18UnityConnectClient33OnPlayerSessionStateChangedStaticEPS_jyy
Hyg:__ZL74CaseInsensitiveHashCodeProvider_t2307530285_CustomAttributesCacheGeneratorP21CustomAttributesCache
TIh:_UIntPtr__ctor_m3900568171_AdjustorThunk
Qya:__ZN7ApiGLES4LoadE16GfxDeviceLevelGL
Vpb:__ZN18StreamedBinaryReadILb0EE21TransferSTLStyleArrayI13dynamic_arrayI31EnlightenSystemAtlasInformationLj8EEEEvRT_17TransferMetaFlags
yBa:__ZN4crnd12crn_unpacker22decode_color_endpointsEv
XCd:__ZN15dense_hashtableI10KeyWrapperIP18Il2CppGenericClassES3_N6il2cpp8metadata22Il2CppGenericClassHashEN14dense_hash_setIS3_S6_NS3_14EqualsComparerINS5_25Il2CppGenericClassCompareEEENSt3__29allocatorIS3_EEE8IdentityESA_SD_E15insert_noresizeERKS3_
nxf:_ReadOnlyCollection_1_System_Collections_IList_Clear_m3006875897_gshared
B2b:__ZZL31RegisterOtherRendererPropertiesR22GenericPropertyBindingEN30Wrapper_RendererReceiveShadows13GetFloatValueEPv
p9e:_Enumerator_System_Collections_IEnumerator_get_Current_m3866069145_gshared
wYf:_PreviousInfo_t581002487_marshal_pinvoke_cleanup
Hba:__ZN8Material11SetPassFastEPN9ShaderLab4PassER17ShaderPassContextP6Shaderib
o7a:__ZNK13ScreenManager13GetLockCursorEv
n7c:__ZN11UnityEngine7Connect20BasePersistentValues10SaveValuesER9JSONWrite
rXh:_Rect_get_max_m96665935_AdjustorThunk
x$g:__ZL87GUIStyle_t1799908754_CustomAttributesCacheGenerator_GUIStyle_set_fixedWidth_m2562018757P21CustomAttributesCache
Qdj:_RuntimeHelpers_InitializeArray_m3920580167
fBe:_ExecuteEvents_get_pointerDownHandler_m1172742772
wpf:_Collection_1_RemoveAt_m560005219_gshared
dGc:__ZNSt3__27__sort4IR24RayHitsByDepthComparitorP12RaycastHit2DEEjT0_S5_S5_S5_T_
g9b:__Z14ScaleCurveTimeR17AnimationCurveTplIfEf
Xpg:_X509CertificateEnumerator_System_Collections_IEnumerator_MoveNext_m3708362145
bVa:__Z12SetupLODFadeR9GfxDeviceR17ShaderPassContextf
BBc:__ZN26b2PolygonAndCapsuleContact6CreateEP9b2FixtureiS1_iP16b2BlockAllocator
Vrj:_X501_ToString_m3328169518
W_a:__ZL24CollectForwardObjectsJobP27CollectForwardObjectsHeader
WZ:__ZN8Playable13SetGameObjectEP10GameObject
bGg:__ZL53HMACSHA256_t2622794722_CustomAttributesCacheGeneratorP21CustomAttributesCache
D2a:__ZNK25CameraStackRenderingState24ResolveTempToEyeTexturesEv
O0a:__Z13IsNodeVisibleRK9SceneNodeRK4AABBRK22SceneCullingParameters
Vth:_EventInfo__ctor_m1190141300
fmi:_InternalEnumerator_1_MoveNext_m3585886944_gshared
C2c:__Z57RectTransformUtility_CUSTOM_INTERNAL_CALL_PixelAdjustRectP12Il2CppObjectS0_R5RectTIfE
Hfh:_DelayedFixupRecord_FixupImpl_m4249966635
Y0j:_emscripten_glStencilMask__wrapper
vOc:__ZZ29InitializeTextRenderingModulevEN40CleanUpTextRenderingGarbageCollectstruct7ForwardEv
J3:__ZN11TypeManager19ClassNameToTypeInfoEPKcb
VYf:_BigInteger_ToString_m3837784224
CRa:__ZN15RenderNodeQueue7CleanupEv
aMa:__ZNK17ArchiveFileSystem8PositionERK13FileEntryData
lKc:__ZN16NovodexAllocator8allocateEjPKcS1_i
sue:_DllNotFoundException__ctor_m267198482
v_a:__Z17PrepareShadowMapsRK11CullResultsRK11ActiveLightRK10MinMaxAABB
H7g:__ZL81U3CMouseDragOutsideRectU3Ec__Iterator1_t2599668326_CustomAttributesCacheGeneratorP21CustomAttributesCache
oBh:_NativeEventCalls_CreateEvent_internal_m1605829321
Waf:_List_1_GetIndex_m3409004147_gshared
k1g:__ZL73RuntimePlatform_t1869584967_CustomAttributesCacheGenerator_MetroPlayerX64P21CustomAttributesCache
qIj:__ZL24UnresolvedVirtualCall_13P12Il2CppObjectaPK10MethodInfo
Ppi:_InternalEnumerator_1_System_Collections_IEnumerator_get_Current_m3239681450_AdjustorThunk
_Sb:__ZNSt3__26vectorIN9ShaderLab20SerializedSubProgram15VectorParameterENS_9allocatorIS3_EEEC2ERKS6_
T_a:__ZN9ShaderLab10GrabPassesD2Ev
FUh:_MonoBehaviour_set_useGUILayout_m2666356651
itb:__ZN14Texture2DArray13UploadTextureEv
aTi:__Z69RuntimeInvoker_TextGenerationSettings_t2543476768_Vector2_t2243707579PK10MethodInfoPvPS2_
m0d:_SecurityFrame_t1002202659_marshal_pinvoke
ESc:_tt_cmap14_done
tna:__ZN18AwakeFromLoadQueue25RegisterObjectInstanceIDsEv
Iae:_Buffer_BlockCopy_m1586717258
BFg:__ZL93X509Certificate_t283079845_CustomAttributesCacheGenerator_X509Certificate_GetName_m2354987368P21CustomAttributesCache
lMc:__ZN20TextRenderingPrivate19NativeTextGenerator15InsertCharacterEiPj
Tni:_InternalEnumerator_1__ctor_m3589241961_AdjustorThunk
qDc:__ZTv0_n12_N10ClipperLib7ClipperD0Ev
Mxe:_CompareInfo_GetSortKey_m3691382873
yAc:__ZN11b2RopeJoint24SolveVelocityConstraintsERK12b2SolverData
Mre:_DBNull_ToString_m3228904745
nmg:_WebHeaderCollection_AddWithoutValidate_m1479880592
ZXd:_SHA1Managed_HashCore_m2658295635
TJi:__Z80RuntimeInvoker_Void_t1841601450_Int32_t2071877448_Int32_t2071877448_Il2CppObjectPK10MethodInfoPvPS2_
Xy:__ZN17AnimationPlayableD0Ev
R8f:_RC4_get_IV_m506011366
ctj:_X509Crl__ctor_m2469408229
pMb:__Z18Transfer_BlittableI19StreamedBinaryWriteILb0EELb0EyEvRK29SerializationCommandArgumentsR31RuntimeSerializationCommandInfo
QCg:__ZL82SafeHandle_t2733794115_CustomAttributesCacheGenerator_SafeHandle_Close_m1146946803P21CustomAttributesCache
wxi:_Enumerator_get_CurrentValue_m3562053380_AdjustorThunk
drg:_X509SubjectKeyIdentifierExtension_CopyFrom_m136762226
m7e:_Enumerator_System_Collections_IEnumerator_Reset_m610822832_AdjustorThunk
Kei:_ScrollRect_get_verticalScrollbarSpacing_m793718754
vhc:__Z41MonoBehaviour_Set_Custom_PropUseGUILayoutP12Il2CppObjecth
gNc:_UNITY_FT_Open_Face
PYj:_glGenRenderbuffers__wrapper
e3i:_Bounds_ToString_m1966597703
QZf:_BigInteger_op_Division_m1581119694
qRb:__ZN16ScriptingManagerD0Ev
C$i:_UnityAnalyticsHandler_CustomEvent_m2884790978
Ugh:_CallbackHandler_Invoke_m1498072969
Pkh:_DSACryptoServiceProvider__ctor_m701823690
mNh:_Mathf_Clamp_m2354025655
Hnh:_CustomAttributeData_GetCustomAttributes_m2421330738
mgg:_SecurityParameters_set_ClientWriteMAC_m1970377285
nFd:__ZN30dense_hashtable_const_iteratorINSt3__24pairIK10KeyWrapperINS1_IPKcS4_EEEiEES6_24NamespaceAndNamePairHashN14dense_hash_mapIS6_iS9_NS6_14EqualsComparerI26NamespaceAndNamePairEqualsEENS0_9allocatorIS8_EEE9SelectKeyESD_SF_EppEv
PEh:_Type_get_IsEnum_m313908919
Zdc:__Z44Register_UnityEngine_Component_get_transformv
Iif:_List_1_Reverse_m3395936565_gshared
Jpf:_Collection_1_System_Collections_ICollection_CopyTo_m1335644572_gshared
Dgf:_List_1_CheckMatch_m2830747427_gshared
oJa:__ZN17ArchiveFileSystem12MountArchiveEPKcS1_
bue:_StackFrame_GetMethod_m72881026
Jrc:__Z18Transfer_BlittableI9JSONWriteLb1E8Vector4fEvRK29SerializationCommandArgumentsR31RuntimeSerializationCommandInfo
C_:__Z11RequireTypePKcS0_S0_
Ixi:_Enumerator_System_Collections_IEnumerator_Reset_m70453843_gshared
zqb:__ZThn32_NK8Renderer14GetSubsetIndexEi
ryj:_Vector3_get_Item_m3616014016
b9g:__ZL59Slider_t297367283_CustomAttributesCacheGenerator_m_MinValueP21CustomAttributesCache
p1b:__ZN13ProduceHelperI15ResourceManagerLb0EE7ProduceE18MemLabelIdentifier18ObjectCreationMode
mwa:__ZN9GfxDevice15ImmediateVertexEfff
v_b:__Z13RegisterClassI8MaterialEvv
TGg:__ZL51Evidence_t1407710183_CustomAttributesCacheGeneratorP21CustomAttributesCache
Rjb:__ZN16GraphicsSettings13AwakeFromLoadE17AwakeFromLoadMode
Swe:_FieldAccessException__ctor_m3893881490
hQi:__Z82RuntimeInvoker_Int32_t2071877448_Rect_t3681755626_Il2CppObject_Vector2_t2243707579PK10MethodInfoPvPS2_
Hp:__ZN6Object13AwakeFromLoadE17AwakeFromLoadMode
_ta:__ZN13GfxDeviceGLES15SetStencilStateEPK18DeviceStencilStatei
lZi:__Z37RuntimeInvoker_UILineInfo_t3621277874PK10MethodInfoPvPS2_
WOj:_cycle
Tvj:_TextGenerator_Populate_m4139823822
QMg:__ZL72PKCS12_t1362584795_CustomAttributesCacheGenerator_U3CU3Ef__switchU24map5P21CustomAttributesCache
Ld:_emscripten_glUniform1iv
Iii:_Text_get_preferredHeight_m452532789
CFc:__ZN15b2DistanceProxy3SetEPK7b2Shapei
R1d:_String_System_IConvertible_ToDouble_m3860911722
X9a:__ZN16MemoryFileSystemD2Ev
O2h:_Dictionary_2_System_Collections_Generic_ICollectionU3CSystem_Collections_Generic_KeyValuePairU3CTKeyU2CTValueU3EU3E_Contains_m842343255_gshared
j7f:_ARC4Managed__ctor_m2922048522
xMc:__Z17dynamic_pptr_castIP9Texture2D7TextureET_RK4PPtrIT0_E
Jx:__ZN7mecanim14ValueArrayLoopERKNS_10ValueArrayES2_RS0_fRKNS_14ValueArrayMaskE
Eyf:_ReadOnlyCollection_1_System_Collections_IList_set_Item_m1272038804_gshared
rli:_InternalEnumerator_1_System_Collections_IEnumerator_get_Current_m1931522460_AdjustorThunk
x_d:_SecurityPermission_IsEmpty_m1869313067
Qpg:_X509CertificateCollection__ctor_m3709509050
Bdc:__Z37Register_UnityEngine_Camera_get_depthv
b1f:_EncryptedPrivateKeyInfo_get_Salt_m2734354394
AAf:_ReadOnlyCollection_1_System_Collections_Generic_IListU3CTU3E_set_Item_m1918537449_gshared
LCd:__ZNK15dense_hashtableI10KeyWrapperIP18Il2CppGenericClassES3_N6il2cpp8metadata22Il2CppGenericClassHashEN14dense_hash_setIS3_S6_NS3_14EqualsComparerINS5_25Il2CppGenericClassCompareEEENSt3__29allocatorIS3_EEE8IdentityESA_SD_E10test_emptyERK30dense_hashtable_const_iteratorIS3_S3_S6_SF_SA_SD_E
IGd:__ZN6il2cpp2os5posix15PosixWaitObject4WaitEjb
fQi:__Z115RuntimeInvoker_Void_t1841601450_Rect_t3681755626_Il2CppObject_Int32_t2071877448_Int32_t2071877448_Int32_t2071877448PK10MethodInfoPvPS2_
x9:__ZN15dense_hashtableINSt3__24pairIKPKcPK4RTTIEES3_N11TypeManager23ConstCharPtrHashFunctorEN14dense_hash_mapIS3_S7_SA_NS9_19ConstCharPtrEqualToE13stl_allocatorIS8_L18MemLabelIdentifier6ELi16EEE9SelectKeyESC_SF_E12resize_deltaEjj
RZb:__ZN15ApplicationInfo16GetInstallerNameEv
I9a:__Z23ConvertIntegerToTypePtrItEbPvR14SafeBinaryRead
Vaj:_AnimatorControllerPlayable_IsParameterControlledByCurveID_m4183631446
Gu:__ZN7mecanim5human29HumanGetGoalOrientationOffsetENS0_4GoalE
ae:_emscripten_glStencilFunc
mFi:__Z101RuntimeInvoker_Void_t1841601450_Il2CppObject_Il2CppObject_Il2CppObject_Il2CppObject_Int32_t2071877448PK10MethodInfoPvPS2_
gfe:_SynchronizedArrayListWrapper_get_Capacity_m2541698837
jIj:__ZL23UnresolvedVirtualCall_6P12Il2CppObjectiPK10MethodInfo
p5h:_DefaultComparer_GetHashCode_m3315096533_gshared
Jwh:_MonoMethod_MakeGenericMethod_impl_m2063853616
n0d:__Z46il2cpp_codegen_get_marshal_directive_exceptionPKc
gWb:__ZN9ShaderLab20SerializedSubProgram14AddMatrixParamEPKcii15ShaderParamTypei
ge:_glGetActiveUniformBlockName
lKe:_FontData_set_verticalOverflow_m4211463083
CD:__ZN26AnimatorControllerPlayable23ValidateParameterStringE17GetSetValueResultRKN4core12basic_stringIcNS1_20StringStorageDefaultIcEEEE
Owg:__ZL65Il2CppArray_CustomAttributesCacheGenerator_Array_Sort_m2090966156P21CustomAttributesCache
THf:_Guid_AppendByte_m2890893073
rsh:_MethodBuilder_Invoke_m1874904900
$kg:__ZN21InterfaceFuncInvoker1IbP13Uri_t19570940E6InvokeEjP11Il2CppClassP12Il2CppObjectS1_
Ube:_Char_System_IConvertible_ToType_m3106771703_AdjustorThunk
fLj:__ZL25UnresolvedVirtualCall_164P12Il2CppObject22UILineInfo_t3621277874PK10MethodInfo
gtg:_Interval_Intersects_m3480157390_AdjustorThunk
qgc:__Z39Quaternion_CUSTOM_INTERNAL_CALL_InverseRK11QuaternionfRS_
oej:_GCHandle_Alloc_m1063472408
qJ:__ZN4FMOD7Channel20set3DConeOrientationEP11FMOD_VECTOR
b5g:__ZL86StandaloneInputModule_t70867863_CustomAttributesCacheGenerator_m_InputActionsPerSecondP21CustomAttributesCache
rn:FUNCTION_TABLE_iiifii
Ywi:_Comparer_1__ctor_m4052560291_gshared
BWg:__ZL54SkeletonBone_t345082847_CustomAttributesCacheGeneratorP21CustomAttributesCache
Xjh:_CryptoConfig_CreateFromName_m391442950
mGd:__ZN6il2cpp2vm12GenericClass11SetupEventsEP11Il2CppClass
MYc:_tt_delta_interpolate
xSc:_tt_cmap12_get_info
Tie:_SortedList__ctor_m3698381356
UYi:__Z31RuntimeInvoker_Slot_t2022531261PK10MethodInfoPvPS2_
SBd:__ZN6il2cpp2vm15ReboxIReferenceEP14Il2CppIUnknownP11Il2CppClass
bRf:_StreamWriter_LowLevelWrite_m4205372900
T9c:__ZN6il2cpp6icalls8mscorlib6System7Decimal14decimalCompareEP19il2cpp_decimal_reprS5_
UPd:__ZThn4_N6il2cpp2vm13CachedCCWBaseINS0_13ManagedObjectEE7ReleaseEv
Tuh:_Module__ctor_m3853650010
yge:_CollectionBase_System_Collections_IList_get_Item_m2370387510
QEg:__ZL59RemotingException_t109604560_CustomAttributesCacheGeneratorP21CustomAttributesCache
U1e:_Array_Sort_TisCustomAttributeNamedArgument_t94157543_m3436077809_gshared
a_j:_glCopyTexImage2D__wrapper
lZh:_ResourceRequest__ctor_m3340010930
_Hg:__ZL88UTF7Encoding_t741406939_CustomAttributesCacheGenerator_UTF7Encoding_GetBytes_m3015176946P21CustomAttributesCache
ZQe:_LayoutElement__ctor_m789941073
D3g:__ZL77ExecuteEvents_t1693084770_CustomAttributesCacheGenerator_U3CU3Ef__mgU24cache9P21CustomAttributesCache
z3i:_Camera_FireOnPreCull_m1679634170
fCg:__ZL68TargetInvocationException_t4098620458_CustomAttributesCacheGeneratorP21CustomAttributesCache
XLg:__ZL56RankException_t1539875949_CustomAttributesCacheGeneratorP21CustomAttributesCache
Zia:__Z18ClearByDrawingQuad13GfxClearFlagsRK10ColorRGBAffjR17ShaderPassContext
_gj:_DynamicPropertyCollection_FindProperty_m1233265924
Uka:__ZN6prcoreL17RemapGenericFloatI14TexFormatRHalf15TexFormatRFloatEEvPKNS_9InnerInfoE
QUa:__Z16ShouldUseShadowsb
LZ:__ZN15DirectorManager21RebuildStageCallbacksEv
Vla:__ZN19RuntimeSceneManager9LoadSceneERKN4core12basic_stringIcNS0_20StringStorageDefaultIcEEEES6_S6_RK9UnityGUIDiNS_11LoadingModeE
IIj:__ZL24UnresolvedVirtualCall_31P12Il2CppObjectiS0_S0_PK10MethodInfo
vWi:__Z55RuntimeInvoker_Int32_t2071877448_UICharInfo_t3056636800PK10MethodInfoPvPS2_
rCa:__ZN7ApiGLES10DrawArraysE16GfxPrimitiveTypejjj
$7i:_Event_PopEvent_m1952528237
ZG:__ZN10SampleClip13LoadBaseSoundEv
MDi:__Z62RuntimeInvoker_Il2CppObject_Int32_t2071877448_SByte_t454417549PK10MethodInfoPvPS2_
cEd:__ZN15dense_hashtableINSt3__24pairIK10KeyWrapperIP12Il2CppObjectEN6il2cpp2gc9CachedCCWEEES5_NS7_5utils11PointerHashIS3_EEN14dense_hash_mapIS5_S9_SD_NS5_14EqualsComparerINS0_8equal_toIS4_EEEENS0_9allocatorISA_EEE9SelectKeyESI_SK_E15insert_noresizeERKSA_
Tsf:_Collection_1_Contains_m643401393_gshared
Yia:__ZN22DeviceMVPMatricesStateC2ER9GfxDevice
hIi:__Z48RuntimeInvoker_Int64_t909078037_Int64_t909078037PK10MethodInfoPvPS2_
J1d:_String__ctor_m372528291
bn:FUNCTION_TABLE_iifii
Vfc:__Z31Input_Get_Custom_PropTouchCountv
cna:__ZNSt3__26__treeIiNS_4lessIiEE13stl_allocatorIiL18MemLabelIdentifier1ELi16EEE7destroyEPNS_11__tree_nodeIiPvEE
oc:invoke_viiifi
m9i:_AnimationClipPlayable_GetSpeed_m668389965
$Tf:_LongComparer_Compare_m3981323622
kld:__ZNSt3__214__split_bufferIP11Il2CppClassRNS_9allocatorIS2_EEEC2EjjS5_
UGe:_ContentSizeFitter_get_horizontalFit_m892469688
Rah:__ZL109LayoutUtility_t4076838048_CustomAttributesCacheGenerator_LayoutUtility_U3CGetFlexibleHeightU3Em__7_m947156537P21CustomAttributesCache
r0f:__ZN23InterfaceActionInvoker2IP8String_tP12Il2CppObjectE6InvokeEjP11Il2CppClassS3_S1_S3_
xhi:_Slider_FindSelectableOnUp_m15474611
Ora:__ZNK11AssetBundle14GetPreloadDataEiR13dynamic_arrayIiLj4EE
j2f:_EncryptedData_get_EncryptedContent_m2732115576
wGi:__Z81RuntimeInvoker_Boolean_t3825574718_SByte_t454417549_Il2CppObject_SByte_t454417549PK10MethodInfoPvPS2_
qf:_JS_Sound_SetPosition
qmj:_Assertion_set_FalseExpression_m1781616372
$qg:_X509SubjectKeyIdentifierExtension_FromHexChars_m2515150420
apa:__ZNK9Texture3D26CanReuploadDataToGfxDeviceEv
xhd:__ZL13GetSharedInstPK17Il2CppGenericInst
vxg:__ZL51IReflect_t3412036974_CustomAttributesCacheGeneratorP21CustomAttributesCache
KDe:_StandaloneInputModule_SendSubmitEventToSelectedObject_m3421155293
OIc:__ZN13ProduceHelperI10Collider2DLb1EE7ProduceE18MemLabelIdentifier18ObjectCreationMode
Q5i:_Component_GetComponentsInChildren_m908027537
u5c:__ZN22BaseUnityConnectClient17SaveSessionValuesEv
Nij:_CallContextRemotingData_Clone_m2226242476
b2:__Z63ThreadAndSerializationSafeCheckSetMonoBehaviourBeingTransferredP13MonoBehaviour
Z_a:__Z24SetupActiveLightsContextR21ActiveLightingContextRK12ActiveLightsRK11CullResultsP14ShadowMapCacheRK10MinMaxAABB
E3h:_Dictionary_2_System_Collections_Generic_ICollectionU3CSystem_Collections_Generic_KeyValuePairU3CTKeyU2CTValueU3EU3E_Contains_m3400497673_gshared
Mic:__Z38Sprite_CUSTOM_INTERNAL_get_textureRectP12Il2CppObjectP5RectTIfE
Ire:_DBNull_System_IConvertible_ToUInt32_m2681284284
oud:__ZNK15dense_hashtableINSt3__24pairIK10KeyWrapperIPK22Il2CppGenericParameterEPK24MonoGenericParameterInfoEES6_N6il2cpp5utils11PointerHashIS4_EEN14dense_hash_mapIS6_SA_SF_NS6_14EqualsComparerINS0_8equal_toIS5_EEEENS0_9allocatorISB_EEE9SelectKeyESK_SM_E3endEv
ARh:_HumanBone_set_boneName_m2410239828_AdjustorThunk
hjb:__ZN6Camera8TransferI24GenerateTypeTreeTransferEEvRT_
k8h:_EqualityComparer_1__cctor_m416314417_gshared
Ka:invoke_iiiiiiif
Ga:invoke_iiiiiiii
YBb:__ZN24RingBufferMemoryFileData16ConsumeReadBytesEy
TTh:_Mesh_GetUVChannel_m364477864
spg:_X509ChainElementCollection_Contains_m3599995067
k2a:__ZN8Renderer17PendingAddToSceneEv
S1j:b123
R1j:b122
U1j:b125
T1j:b124
W1j:b127
V1j:b126
Y1j:b129
aic:__Z52Register_UnityEngine_RectTransform_INTERNAL_get_rectv
lyi:__Z53RuntimeInvoker_Il2CppObject_Il2CppObject_Il2CppObjectPK10MethodInfoPvPS2_
o_:__Z21PostprocessStacktracePKcRN4core12basic_stringIcNS1_20StringStorageDefaultIcEEEE
Ohf:_List_1_ToArray_m2390522926_gshared
ZCg:__ZL70TypeLibImportClassAttribute_t2390314680_CustomAttributesCacheGeneratorP21CustomAttributesCache
jca:__ZN19RenderBufferManager13GetTempBufferEii17DepthBufferFormat19RenderTextureFormatj22RenderTextureReadWrite14VRTextureUsagei
lzb:__ZN18StreamedBinaryReadILb0EE21TransferSTLStyleArrayI13dynamic_arrayI16SplashScreenLogoLj4EEEEvRT_17TransferMetaFlags
xOa:__ZNSt3__26vectorIPN9ShaderLab9SubShaderENS_9allocatorIS3_EEE21__push_back_slow_pathIKS3_EEvRT_
gUe:_Array_InternalArray__ICollection_Remove_TisX509ChainStatus_t4278378721_m4127982424_gshared
Mdc:__Z47Register_UnityEngine_Camera_get_allCamerasCountv
j_i:__Z37RuntimeInvoker_Enumerator_t2809602155PK10MethodInfoPvPS2_
Jad:___clang_call_terminate
x5c:__ZN22BaseUnityConnectClient20StartEventDispatcherEv
j8b:__ZNSt3__26vectorIj13stl_allocatorIjL18MemLabelIdentifier1ELi16EEE6assignIPKtEENS_9enable_ifIXaasr21__is_forward_iteratorIT_EE5valuesr16is_constructibleIjNS_15iterator_traitsIS9_E9referenceEEE5valueEvE4typeES9_S9_
zs:__ZN7mecanim9animation16EvaluateAvatarIKEPKNS0_14AvatarConstantEPKNS0_11AvatarInputEPNS0_12AvatarOutputEPNS0_12AvatarMemoryEPNS0_15AvatarWorkspaceEb
UCa:__ZL25ProgramUniformMatrix4x3fvPK7ApiGLESjiihPKv
$8a:__Z29StdTemplateConversionFunctionIsiEbPvR14SafeBinaryRead
nOi:__Z83RuntimeInvoker_Il2CppObject_RayU26_t3651946800_Single_t2076509932_Int32_t2071877448PK10MethodInfoPvPS2_
DOa:__ZN12InputManager13InputEndFrameEv
yie:_SyncHashtable__ctor_m2029869827
xkd:__ZNSt3__26__treeIP11Il2CppClassNS_4lessIS2_EENS_9allocatorIS2_EEE25__emplace_unique_key_argsIS2_JRKS2_EEENS_4pairINS_15__tree_iteratorIS2_PNS_11__tree_nodeIS2_PvEEiEEbEERKT_DpOT0_
Axd:__ZN6il2cpp2vm6Thread5SetupEP12Il2CppThread
PBf:_ReadOnlyCollection_1_System_Collections_IList_Remove_m2200089035_gshared
gof:_Collection_1_CheckWritable_m2756357359_gshared
$Pj:___munmap
sOe:_InputField_get_characterLimit_m2386380888
O5g:__ZL68ColorBlock_t2652774230_CustomAttributesCacheGenerator_m_PressedColorP21CustomAttributesCache
xne:_Convert_ToInt64_m1722087499
hg:_localtime_r
dNi:__Z74RuntimeInvoker_Vector3_t2243707580_Vector3_t2243707580_Vector3_t2243707580PK10MethodInfoPvPS2_
yMi:__Z80RuntimeInvoker_Il2CppObject_Ray_t2469606224_Single_t2076509932_Int32_t2071877448PK10MethodInfoPvPS2_
WIg:__ZL81AppDomain_t2719102437_CustomAttributesCacheGenerator_assembly_resolve_in_progressP21CustomAttributesCache
LCg:__ZL65InterfaceTypeAttribute_t4113096249_CustomAttributesCacheGeneratorP21CustomAttributesCache
jg:_strftime
tca:__ZN7Texture33SetStoredColorSpaceNoDirtyNoApplyE17TextureColorSpace
gY:__ZN12FileAccessorD2Ev
Uha:__ZN10ColorRGBAf8TransferI18StreamedBinaryReadILb0EEEEvRT_
Ttb:__ZN14VertexDataInfoC2Ev
qJd:__ZN6il2cpp2gc16GarbageCollector14CollectALittleEv
NSg:__ZL75Mesh_t1356156583_CustomAttributesCacheGenerator_Mesh_HasChannel_m3616583481P21CustomAttributesCache
yyj:_Vector3_Equals_m2692262876_AdjustorThunk
yoi:_InternalEnumerator_1_get_Current_m2415979394_gshared
aOb:__ZL17Transfer_GUIStyleI18StreamedBinaryReadILb1EELb1EEvRK29SerializationCommandArgumentsR31RuntimeSerializationCommandInfo
xei:_ScrollRect_SetDirtyCaching_m1491302821
Skd:__ZN6il2cpp6icalls8mscorlib6SystemL9IsPrivateEPK12PropertyInfo
Jnh:_CustomAttributeData_GetCustomAttributes_m3258419955
N0:__ZN9shadertag10InitializeEv
dVa:__ZN13BatchRenderer20RenderSingleWithPassER17ShaderPassContextPK18SharedMaterialDataP6ShaderPN9ShaderLab4PassEiPKNS7_10GrabPassesEjib15BatchBreakCause
EUg:__ZL80Object_t1021602117_CustomAttributesCacheGenerator_Object_Instantiate_m2489341053P21CustomAttributesCache
p5d:_EncoderFallback__ctor_m1639180960
YD:__Z92Register_UnityEngine_Experimental_Director_AnimationOffsetPlayable_INTERNAL_CALL_SetRotationv
$ui:_InternalEnumerator_1_MoveNext_m1441038493_gshared
Frb:__ZN15QualitySettings14QualitySetting8TransferI24GenerateTypeTreeTransferEEvRT_
VRd:__ZN6il2cpp5utils6Memory11AlignedFreeEPv
P4d:_DecoderReplacementFallback__ctor_m2344783488
j_h:_Enumerator_System_Collections_IDictionaryEnumerator_get_Key_m467957770_AdjustorThunk
KKe:_GraphicRegistry_UnregisterGraphicForCanvas_m820096873
xZc:__Z28Font_Get_Custom_PropMaterialP12Il2CppObject
aQd:__ZN6il2cpp6icalls8mscorlib6System9Threading16NativeEventCalls19ResetEvent_internalE12Il2CppIntPtr
t3g:__ZL65EventTrigger_t1967201810_CustomAttributesCacheGenerator_delegatesP21CustomAttributesCache
wxc:__ZL34CleanupModule_PerformanceReportingv
gqf:_Collection_1_Remove_m4136193368_gshared
zAe:_EventTrigger_OnPointerUp_m2791622548
Ggi:_Shadow_set_useGraphicAlpha_m141905402
C6b:__ZN22BlockMemoryCacheWriter14LockCacheBlockEjPPhS1_
dmc:__ZNSt3__218__insertion_sort_3IRPFbPKN5IMGUI9GUIWindowES4_EPPS2_EEvT0_SA_T_
kHj:_GenericEqualityComparer_1_Equals_m1109000020_gshared
keh:_RealProxy_InternalGetTransparentProxy_m3415358600
Suc:__Z22TransferField_NonArrayI8JSONRead27Converter_SimpleNativeClassI8GUIStyleEEvRK23StaticTransferFieldInfoR31RuntimeSerializationCommandInfoRT0_
Eed:__ZN15dense_hashtableI10KeyWrapperIPK19Il2CppGenericMethodES4_N6il2cpp8metadata23Il2CppGenericMethodHashEN14dense_hash_setIS4_S7_NS4_14EqualsComparerINS6_26Il2CppGenericMethodCompareEEENSt3__29allocatorIS4_EEE8IdentityESB_SE_E16reset_thresholdsEv
Naf:__ZN23InterfaceActionInvoker2IP24ObjectU5BU5D_t3614634134iE6InvokeEjP11Il2CppClassP12Il2CppObjectS1_i
QXg:__ZL131AnimatorControllerPlayable_t4078305555_CustomAttributesCacheGenerator_AnimatorControllerPlayable_PlayInternal_m3385259863____layer2P21CustomAttributesCache
Pg:_llvm_eh_typeid_for
B4b:__Z13RegisterClassI10GameObjectEvv
Xyg:__ZL53HashValues_t2390200547_CustomAttributesCacheGeneratorP21CustomAttributesCache
cog:_X509BasicConstraintsExtension_get_PathLengthConstraint_m3004531343
yAg:__ZL125GenericTypeParameterBuilder_t1370236603_CustomAttributesCacheGenerator_GenericTypeParameterBuilder_GetConstructors_m103067670P21CustomAttributesCache
iTf:_MissingMemberException__ctor_m4277447068
Uaf:_List_1_Find_m1881447651_gshared
Zxh:_StrongNameKeyPair_System_Runtime_Serialization_ISerializable_GetObjectData_m1693082120
$jg:_NameValueCollection__ctor_m1767369537
RPb:__Z18Transfer_BlittableI18StreamedBinaryReadILb0EELb1E8Vector4fEvRK29SerializationCommandArgumentsR31RuntimeSerializationCommandInfo
bai:_EqualityComparer_1__ctor_m3155445483_gshared
MId:__ZN6il2cpp2vm6Method8GetParamEPK10MethodInfoj
OKf:_Int64_CompareTo_m1953686218
HGj:_GenericComparer_1__ctor_m221205314_gshared
xKf:_Int64_System_IConvertible_ToInt16_m2022633688_AdjustorThunk
y0j:_glBindVertexArray__wrapper
Lkh:_DSA_Create_m3450041777
Oga:__ZN8Material8TransferI14SafeBinaryReadEEvRT_
_6i:_Debug_LogWarningFormat_m79553173
vnb:__ZN12CubemapArray17UploadToGfxDeviceEv
Zei:_ScrollRect_AdjustBounds_m1033723448
fla:__ZN6prcoreL17RemapGenericFloatI15TexFormatRGHalf17TexFormatRGBAHalfEEvPKNS_9InnerInfoE
l8e:_Enumerator_System_Collections_IEnumerator_Reset_m2200349770_gshared
Ptf:_Collection_1_get_Item_m3791221403_gshared
lGg:__ZL54PaddingMode_t3032142640_CustomAttributesCacheGeneratorP21CustomAttributesCache
kxd:__ZN24dense_hashtable_iteratorINSt3__24pairIK10KeyWrapperIP11Il2CppClassES4_EES5_N6il2cpp8metadata16SZArrayClassHashEN14dense_hash_mapIS5_S4_SA_NS5_14EqualsComparerINS9_19SZArrayClassCompareEEENS0_9allocatorIS7_EEE9SelectKeyESE_SG_E30advance_past_empty_and_deletedEv
mUi:__Z75RuntimeInvoker_Void_t1841601450_ConstraintU26_t2775779428_Int32_t2071877448PK10MethodInfoPvPS2_
qWf:_OrdinalComparer__ctor_m2952942058
hKi:__Z107RuntimeInvoker_Boolean_t3825574718_Int32_t2071877448_Int64U5BU5DU26_t2476256456_StringU5BU5DU26_t3730240492PK10MethodInfoPvPS2_
Qog:_X509Chain_CheckRevocationOnChain_m2441901351
cjd:__ZN6il2cpp2vm19SocketPollingThread9WritePipeEic
hZd:_SymmetricAlgorithm_CreateDecryptor_m4240570785
uFh:_Type_GetMethod_m3650909507
tH:__ZN11AudioSource4StopEb
COj:_frexp
KHb:__ZN14SafeBinaryRead21TransferSTLStyleArrayI13dynamic_arrayI10Matrix4x4fLj4EEEEvRT_17TransferMetaFlags
Utf:_Collection_1_CheckWritable_m732350052_gshared
Vae:_Byte_System_IConvertible_ToDecimal_m1036493607
MIg:__ZL47Timer_t791717973_CustomAttributesCacheGeneratorP21CustomAttributesCache
nba:__Z25GetSplashScreenBackgroundRK5RectTIfE
w9:__ZN14dense_hash_mapIPKcPK4RTTIN11TypeManager23ConstCharPtrHashFunctorENS5_19ConstCharPtrEqualToE13stl_allocatorINSt3__24pairIKS1_S4_EEL18MemLabelIdentifier6ELi16EEEixERSB_
V6g:__ZL65Image_t2042527209_CustomAttributesCacheGenerator_m_PreserveAspectP21CustomAttributesCache
t8c:__ZN13RuntimeStaticI19UnityConnectServiceLb0EE16StaticInitializeEPv
zvi:_DefaultComparer_Compare_m1247109616_gshared
myh:_ResourceManager__ctor_m498829021
XGa:__ZN18GlslGpuProgramGLESD2Ev
K6a:__ZN13RenderTexture14SetVolumeDepthEi
Vgh:_SerializationCallbacks__ctor_m722356782
wvc:__ZN10Matrix4x4f8TransferI8JSONReadEEvRT_
L3:__ZN14dense_hash_mapIPKcPK4RTTIN11TypeManager23ConstCharPtrHashFunctorENS5_19ConstCharPtrEqualToE13stl_allocatorINSt3__24pairIKS1_S4_EEL18MemLabelIdentifier6ELi16EEE5beginEv
MCg:__ZL49Marshal_t785896760_CustomAttributesCacheGeneratorP21CustomAttributesCache
R1:__ZN17PersistentManager18ReadObjectThreadedEi
_xa:__ZN25TransformFeedbackSkinning31CleanupTransformFeedbackShadersEv
qMd:__ZN6il2cpp6icalls8mscorlib6System7Runtime16CompilerServices14RuntimeHelpers15InitializeArrayEP11Il2CppArray12Il2CppIntPtr
Xpi:_InternalEnumerator_1_System_Collections_IEnumerator_get_Current_m2851415307_gshared
nMc:__ZNK20TextRenderingPrivate8FontImpl19GetCharacterAdvanceEjijfPj
Lzf:_ReadOnlyCollection_1_Contains_m3936562733_gshared
qkg:_DefaultUriParser__ctor_m4218024811
hph:_DerivedType_GetField_m3960169619
jse:_Decimal_System_IConvertible_ToInt16_m3159038792_AdjustorThunk
Asb:__ZN10VertexData8TransferI18StreamedBinaryReadILb0EEEEvRT_
hEf:_DateTimeFormatInfo_GetFormat_m3676195179
O2f:_PKCS12_GetExistingParameters_m2413397265
SAj:_Nullable_1_get_Value_m1743067844_gshared
fsf:_Collection_1_ClearItems_m4268731177_gshared
W6a:__ZN14PreloadManager16UpdatePreloadingEv
Bib:__ZN12BaseRendererD2Ev
Sqj:_X509CertificateCollection__ctor_m858704242
l9e:_Enumerator__ctor_m425576865_AdjustorThunk
RCi:__Z148RuntimeInvoker_Int32_t2071877448_Il2CppObject_Int32_t2071877448_Int32_t2071877448_Il2CppObject_Int32_t2071877448_Int32_t2071877448_Int32_t2071877448PK10MethodInfoPvPS2_
MBf:_ReadOnlyCollection_1_System_Collections_IList_Contains_m1545447998_gshared
ccb:__ZNK21UnityDefaultAllocatorI17LowLevelAllocatorE8ContainsEPKv
Eid:__ZNSt3__213__vector_baseI6pollfdNS_9allocatorIS1_EEED2Ev
xcg:_ClientSessionInfo_get_Id_m3046630969
Zh:_emscripten_get_main_loop_timing
hNf:_DirectoryInfo__ctor_m3750996792
bFe:_BaseMeshEffect_ModifyMesh_m2134816219
b1e:_Array_qsort_TisVector2_t2243707579_m3527759534_gshared
Erb:__ZN24GenerateTypeTreeTransfer21TransferSTLStyleArrayINSt3__26vectorIN15QualitySettings14QualitySettingENS1_9allocatorIS4_EEEEEEvRT_17TransferMetaFlags
kZh:_ResourceRequest_t2560315377_marshal_pinvoke_cleanup
_4a:__ZN23ManagedAttributeManager52CallManagedGetParentTypeDisallowingMultipleInclusionE17ScriptingClassPtr
U4e:_Array_InternalArray__get_Item_TisAnimatorClipInfo_t3905751349_m2163447872_gshared
Yhf:_List_1_System_Collections_Generic_IEnumerableU3CTU3E_GetEnumerator_m166627113_gshared
Exb:__ZNSt3__26vectorI9InputAxisNS_9allocatorIS1_EEE6resizeEj
QPd:__ZN6il2cpp2vm13ManagedObject7GetIidsEPjPP10Il2CppGuid
kVa:__ZN13BatchRendererC2ER15RenderLoopStatsRK15RenderNodeQueuebbb
E_d:_SecurityElement_IsValidAttributeValue_m483287146
N4d:_Decoder_set_Fallback_m1780632169
np:getTempRet0
iPi:__Z81RuntimeInvoker_Void_t1841601450_PlayableHandleU26_t3483893774_Vector3_t2243707580PK10MethodInfoPvPS2_
t9i:_AnimationClipPlayable_set_applyFootIK_m1054409049
B6d:_ArithmeticException__ctor_m104771799
AFi:__Z114RuntimeInvoker_Void_t1841601450_Il2CppObject_Il2CppObject_Int32_t2071877448_Il2CppObject_Il2CppObject_Il2CppObjectPK10MethodInfoPvPS2_
$mh:_AssemblyTitleAttribute__ctor_m1696431446
CNe:_Image_AddQuad_m1603575622
QKd:__ZN24dense_hashtable_iteratorINSt3__24pairIK10KeyWrapperIPK19Il2CppGenericMethodEP10MethodInfoEES6_N6il2cpp8metadata23Il2CppGenericMethodHashEN14dense_hash_mapIS6_S9_SD_NS6_14EqualsComparerINSC_26Il2CppGenericMethodCompareEEENS0_9allocatorISA_EEE9SelectKeyESH_SJ_E30advance_past_empty_and_deletedEv
M8f:_PrivateKeyInfo_RemoveLeadingZero_m3396807048
Bvf:_ReadOnlyCollection_1_System_Collections_Generic_ICollectionU3CTU3E_get_IsReadOnly_m1251192075_gshared
Laf:_List_1_GrowIfNeeded_m185971996_gshared
vyd:__ZN6il2cpp6icalls8mscorlib6System9ThreadingL21lookup_cached_cultureEP12Il2CppThreadi
V$a:__ZN18DeferredRenderLoopD2Ev
mrh:_GenericTypeParameterBuilder_GetMethods_m1243855818
E4:__ZNK16TypeTreeIterator4NameEv
FX:__ZN15FileSystemEntry3SetEPKc
Dmd:_il2cpp_method_has_attribute
Aui:_InternalEnumerator_1__ctor_m2808001655_gshared
SUd:_MACTripleDES__ctor_m884945242
$I:__ZN20SoundChannelInstance15ParameterBuffer5ApplyEPN4FMOD7ChannelE
bJj:__ZL24UnresolvedVirtualCall_52P12Il2CppObjectPK10MethodInfo
Qvb:__ZN23SharedMeshRenderingDataD0Ev
bF:__Z117Register_UnityEngine_Experimental_Director_AnimatorControllerPlayable_INTERNAL_CALL_GetAnimatorTransitionInfoInternalv
kMc:__ZN20TextRenderingPrivate19NativeTextGenerator9InsertTabEv
Jvg:__ZL73Enum_t2459695545_CustomAttributesCacheGenerator_Enum_ToObject_m1688724857P21CustomAttributesCache
CMh:_Rect_set_y_m4294916608
K5c:__ZN11UnityEngine15PlatformWrapper24GetRuntimePlatformStringEv
Hi:_glIsEnabled
ARb:__ZN15CacheWriterBaseD2Ev
e9g:__ZL56Slider_t297367283_CustomAttributesCacheGenerator_m_ValueP21CustomAttributesCache
$Db:__Z25scripting_class_get_image17ScriptingClassPtr
sTg:__ZL85Material_t193706927_CustomAttributesCacheGenerator_Material_GetTextureImpl_m623159197P21CustomAttributesCache
Li:_emscripten_glDrawElementsInstanced
Dz:__ZN26AnimatorControllerPlayable27SetupStateMachineBehavioursEv
m7f:_ARC4Managed_Dispose_m4102232694
G7f:_HMAC_Initialize_m3052649104
Jqa:__ZN18JobBatchDispatcherD2Ev
hXb:__ZN9Transform17MainThreadCleanupEv
AOd:_GC_clear_hdr_marks
wXj:_glScissor__wrapper
t1j:_emscripten_glCreateShader__wrapper
eOe:_InputField_get_caretSelectPositionInternal_m3523572533
PUc:_cff_fd_select_get
vXg:__ZL123AnimatorControllerPlayable_t4078305555_CustomAttributesCacheGenerator_AnimatorControllerPlayable_PlayInFixedTime_m172593751P21CustomAttributesCache
qCg:__ZL73CompilationRelaxationsAttribute_t238494011_CustomAttributesCacheGeneratorP21CustomAttributesCache
HZg:__ZL95CanvasRenderer_t261436805_CustomAttributesCacheGenerator_CanvasRenderer_SetMaterial_m1462355522P21CustomAttributesCache
Hii:_Text_get_minHeight_m1562513104
HYd:_SHA512Managed_processBlock_m3220567420
Fjg:_NameObjectCollectionBase_get_Keys_m446053925
Vi:_emscripten_glGetShaderiv
u$h:_Transform_1__ctor_m353209818_gshared
ENa:__ZZ23InitPlayerLoopCallbacksvEN41EarlyUpdateUpdateAllUnityWebStreamsstruct7ForwardEv
bK:__ZN4FMOD6System10getVersionEPj
INf:_FileLoadException_GetObjectData_m2047020314
Q0g:__ZL96RemoteSettings_t392466225_CustomAttributesCacheGenerator_RemoteSettings_CallOnUpdate_m1624968574P21CustomAttributesCache
VXe:_Array_InternalArray__IndexOf_TisSByte_t454417549_m1427585061_gshared
ozi:__Z75RuntimeInvoker_Byte_t3683104436_Il2CppObject_Int32_t2071877448_Il2CppObjectPK10MethodInfoPvPS2_
e_c:__ZN2UI6Canvas23VirtualRedirectTransferER24GenerateTypeTreeTransfer
Eke:_Decimal_u64_m3991988111
yzj:_YieldInstruction_t3462875981_marshal_pinvoke
xBj:_Predicate_1_BeginInvoke_m2959352225_gshared
F4h:_Dictionary_2_CopyToCheck_m2147716750_gshared
krj:_X509Certificate_Parse_m1764345628
bij:_SynchronizationAttribute_GetClientContextSink_m1264319894
SKc:__ZN13TextRendering4Font13AwakeFromLoadE17AwakeFromLoadMode
U0j:_emscripten_glCullFace__wrapper
vid:__ZN6il2cpp6icalls6System6System3Net7Sockets6Socket4SendE12Il2CppIntPtrP11Il2CppArrayiiNS4_11SocketFlagsEPi
b4f:_SmallXmlParser_Peek_m2814840810
uyb:__ZNSt3__27__sort5IRNS_6__lessINS_4pairIPKN5Unity4TypeE7Hash128EES8_EEPS8_EEjT0_SC_SC_SC_SC_T_
Yie:_Enumerator_Reset_m466659019
wdd:__ZNK15dense_hashtableINSt3__24pairIK10KeyWrapperIPKcEP11Il2CppClassEES5_N6il2cpp5utils11StringUtils12StringHasherIS4_EEN14dense_hash_mapIS5_S8_SE_NS5_14EqualsComparerINSC_21CaseSensitiveComparerEEENS0_9allocatorIS9_EEE9SelectKeyESI_SK_E10test_emptyEj
rDj:_UnityAction_1_EndInvoke_m2822290096_gshared
HNd:_GC_unreachable_finalize_mark_proc
zOi:__Z75RuntimeInvoker_Il2CppObject_PlayableHandleU26_t3483893774_Int32_t2071877448PK10MethodInfoPvPS2_
dPd:_maybe_finalize
Spf:_Collection_1_System_Collections_ICollection_get_SyncRoot_m2547259708_gshared
$ij:_ConstructionCall_GetObjectData_m3974358557
Uhc:__Z43RectTransform_CUSTOM_INTERNAL_get_anchorMaxP12Il2CppObjectP13Vector2fIcall
pre:_DateTimeOffset_get_DateTime_m229084964_AdjustorThunk
Bga:__ZN8Material28UpdateHashesOnPropertyChangeEN9ShaderLab16FastPropertyNameE
Gic:__Z53Register_UnityEngine_SortingLayer_GetLayerValueFromIDv
k8e:_Enumerator__ctor_m3512622280_AdjustorThunk
d9h:_EqualityComparer_1_System_Collections_IEqualityComparer_Equals_m349194518_gshared
cge:_CaseInsensitiveComparer_Compare_m1192858479
NFb:__Z18Transfer_BlittableI14SafeBinaryReadLb1E8Vector4fEvRK29SerializationCommandArgumentsR31RuntimeSerializationCommandInfo
qQf:_StreamAsyncResult_set_Done_m4272090534
WRe:_LayoutRebuilder_Clear_m2390054824
lrf:_Collection_1_System_Collections_IList_Insert_m2968289909_gshared
tnh:_Default_SelectMethod_m622251293
hM:__ZN11AudioSource12AddToManagerEv
Qr:__ZN8Animator23VirtualRedirectTransferER19StreamedBinaryWriteILb0EE
Dij:_AsyncResult_get_NextSink_m1172723924
Tv:__ZN11UnityEngine9Animation32CreateAnimatorGenericBindingsOptERKNS0_20AnimationSetBindingsER9TransformPKN7mecanim9animation14AvatarConstantEPKNS0_21AvatarBindingConstantEbRNS6_6memory9AllocatorER8Animator
NEd:__ZN6il2cpp2vm5Image13ClassFromNameEPK11Il2CppImagePKcS6_
yTj:dynCall_vdddddd
sUb:__ZN24GenerateTypeTreeTransfer21TransferSTLStyleArrayINSt3__26vectorIN9ShaderLab14SerializedPassENS1_9allocatorIS4_EEEEEEvRT_17TransferMetaFlags
w1:__ZL32MarkLevelGameManagerDependenciesR27GarbageCollectorThreadState
BLi:__Z49RuntimeInvoker_Void_t1841601450_UInt16_t986882611PK10MethodInfoPvPS2_
hxa:__ZNK13GfxDeviceGLES26HasActiveRandomWriteTargetEv
YYi:__Z37RuntimeInvoker_ILTokenInfo_t149559338PK10MethodInfoPvPS2_
nYj:_glGetActiveUniformsiv__wrapper
Dic:__Z43Register_UnityEngine_Material_EnableKeywordv
W2:__ZN13MonoBehaviour19SetupScriptingCacheE17ScriptingClassPtrP10MonoScript
Xid:__ZNSt3__214__split_bufferIP12Il2CppThreadRNS_9allocatorIS2_EEED2Ev
gr:__Z20AnimationEventToMonoRK14AnimationEventR18MonoAnimationEvent
OSg:__ZL85Mesh_t1356156583_CustomAttributesCacheGenerator_Mesh_ExtractArrayFromList_m1349408169P21CustomAttributesCache
KKi:__Z83RuntimeInvoker_Void_t1841601450_Il2CppObject_Il2CppObject_Il2CppObject_Il2CppObjectPK10MethodInfoPvPS2_
A1:__ZNK15dense_hashtableINSt3__24pairIKiiEEi21InstanceIDHashFunctorN14dense_hash_mapIiiS4_NS0_8equal_toIiEE13stl_allocatorIS3_L18MemLabelIdentifier1ELi16EEE9SelectKeyES7_SA_E13find_positionERS2_
Ibi:_Navigation_get_selectOnLeft_m3980387574_AdjustorThunk
Alf:_List_1_Sort_m2158253314_gshared
h2g:__ZL74UnityEventBase_t828812576_CustomAttributesCacheGenerator_m_PersistentCallsP21CustomAttributesCache
l5h:_DefaultComparer__ctor_m2265472997_gshared
yAd:__ZN6il2cpp2vm13LivenessState18ShouldProcessValueEP12Il2CppObjectP11Il2CppClass
Dwb:__ZN4PPtrI6SpriteE8TransferI14SafeBinaryReadEEvRT_
qwd:__ZN15dense_hashtableINSt3__24pairIK10KeyWrapperIP11Il2CppClassES4_EES5_N6il2cpp8metadata16SZArrayClassHashEN14dense_hash_mapIS5_S4_SA_NS5_14EqualsComparerINS9_19SZArrayClassCompareEEENS0_9allocatorIS7_EEE9SelectKeyESE_SG_E16reset_thresholdsEv
kFi:__Z45RuntimeInvoker_Il2CppObject_IntPtr_t_IntPtr_tPK10MethodInfoPvPS2_
QTb:__ZNSt3__26vectorIN9ShaderLab14SerializedPassENS_9allocatorIS2_EEE8__appendEj
hTb:__ZNSt3__26vectorIN9ShaderLab20SerializedSubProgram13BufferBindingENS_9allocatorIS3_EEEC2INS_11__wrap_iterIPS3_EEEET_SB_RKS5_PNS_9enable_ifIXaasr21__is_forward_iteratorISB_EE5valuesr16is_constructibleIS3_NS_15iterator_traitsISB_E9referenceEEE5valueEvE4typeE
Zcg:_Context_get_SupportedCiphers_m2172827298
vW:__ZNK13ScreenManager21IsMultiDisplayEnabledEv
SAc:__ZN12b2WheelJoint24SolveVelocityConstraintsERK12b2SolverData
_Ci:__Z170RuntimeInvoker_Int32_t2071877448_Il2CppObject_Int32_t2071877448_Int32_t2071877448_Il2CppObject_Int16_t4041245914_Int32_t2071877448_SByte_t454417549_ContextU26_t3131521781PK10MethodInfoPvPS2_
Oob:__ZN9Texture2D23VirtualRedirectTransferER18StreamedBinaryReadILb0EE
rCc:__ZN10Collider2D8TransferI24GenerateTypeTreeTransferEEvRT_
Sue:_Double_System_IConvertible_ToUInt16_m286326038_AdjustorThunk
dfh:_TypeInfo__ctor_m1475908211
xrj:_PKCS12__ctor_m997996062
nib:__ZNSt3__26__treeINS_12__value_typeIN4core12basic_stringIcNS2_20StringStorageDefaultIcEEEEjEENS_19__map_value_compareIS6_S7_NS_4lessIS6_EELb1EEE13stl_allocatorIS7_L18MemLabelIdentifier6ELi16EEE7destroyEPNS_11__tree_nodeIS7_PvEE
C3:__ZN16ScriptingManager27NativeTypeForScriptingClassE17ScriptingClassPtr
Rog:_X509Chain_WrapUp_m1072032285
Gsj:_X509CertificateEnumerator_System_Collections_IEnumerator_MoveNext_m1448966539
RRc:_get_sfnt_table
r5e:_Object_FindObjectOfType_TisIl2CppObject_m2967490724_gshared
Uof:_Collection_1_IsSynchronized_m3261594010_gshared
GPa:_unity_z_tr_stored_block
wyi:__Z46RuntimeInvoker_Single_t2076509932_Il2CppObjectPK10MethodInfoPvPS2_
pWe:_Array_compare_TisIl2CppObject_m1481822507_gshared
NBe:_PointerEventData_set_pressPosition_m2094137883
oqb:__ZN8Renderer20RendererAddedToSceneEv
LXg:__ZL132AnimatorControllerPlayable_t4078305555_CustomAttributesCacheGenerator_AnimatorControllerPlayable_Play_m1100499576____normalizedTime2P21CustomAttributesCache
h1a:__ZL22ScheduleSceneNodesJobsP25ScheduleSceneNodesJobDataj
Jk:_emscripten_set_canvas_size
Hwg:__ZL65Il2CppArray_CustomAttributesCacheGenerator_Array_Sort_m3645766612P21CustomAttributesCache
Pmg:_AsnEncodedData__ctor_m1611830939
vhe:_Hashtable__ctor_m741952536
Rwi:_Comparer_1__cctor_m2253684996_gshared
zTb:__ZNSt3__26vectorIN9ShaderLab20SerializedSubProgramENS_9allocatorIS2_EEE8__appendEj
XU:__ZN20DynamicHeapAllocatorI17LowLevelAllocatorE8AllocateEji
I3c:__ZN11UnityEngine9Analytics15UserCustomEvent12ToJsonStringER9JSONWrite
MVa:__ZN20DynamicPropertySheet15SetVectorQueuedERKN9ShaderLab16FastPropertyNameERK8Vector4fN19ShaderPropertySheet8SetFlagsE
o3d:_String_Format_m1263743648
e2i:_DefaultExecutionOrder_get_order_m1561221759
xzf:_ReadOnlyCollection_1_System_Collections_IEnumerable_GetEnumerator_m4248982967_gshared
xs:__ZN7mecanim9animation22EvaluateAvatarRetargetEPKNS0_14AvatarConstantEPKNS0_11AvatarInputEPNS0_12AvatarOutputEPNS0_12AvatarMemoryEPNS0_15AvatarWorkspaceEb
eSe:_LayoutRebuilder_GetHashCode_m2745108660
Slb:__ZN14RenderSettings23VirtualRedirectTransferER19StreamedBinaryWriteILb0EE
Yrc:__ZL26Transfer_SimpleNativeClassI9JSONWrite10RectOffsetLb0EEvRK29SerializationCommandArgumentsR31RuntimeSerializationCommandInfo
$Nd:_GC_push_conditional
V3c:__ZN21UnityAnalyticsManager23VirtualRedirectTransferER24GenerateTypeTreeTransfer
JAa:__ZN17GenericDynamicVBO10AllocateVBEjR21DynamicVBOChunkHandle
jcf:_List_1_get_Item_m1547593893_gshared
KWi:__Z70RuntimeInvoker_Void_t1841601450_CustomAttributeNamedArgument_t94157543PK10MethodInfoPvPS2_
UMf:_Path_GetPathRoot_m1269357080
JCd:__ZN30dense_hashtable_const_iteratorI10KeyWrapperIP18Il2CppGenericClassES3_N6il2cpp8metadata22Il2CppGenericClassHashEN14dense_hash_setIS3_S6_NS3_14EqualsComparerINS5_25Il2CppGenericClassCompareEEENSt3__29allocatorIS3_EEE8IdentityESA_SD_EppEv
bhe:_KeyNotFoundException__ctor_m264393096
cAe:_EventSystem_SetSelectedGameObject_m2211816110
G$h:_Transform_1__ctor_m4161450529_gshared
fl:_glMapBufferRange
Hob:__ZN9Texture2D8TransferI18StreamedBinaryReadILb0EEEEvRT_
Pfc:__Z31Input_CUSTOM_GetMouseButtonDowni
Mwg:__ZL65Il2CppArray_CustomAttributesCacheGenerator_Array_Sort_m1730553742P21CustomAttributesCache
m5b:__ZN13PlayableGraph4PlayEv
wTa:__ZNK9Transform16GetLocalPositionEv
iSg:__ZL89Input_t1785128008_CustomAttributesCacheGenerator_Input_get_imeCompositionMode_m4250689464P21CustomAttributesCache
S6d:_Array_System_Collections_ICollection_get_Count_m2897196527
Tra:__ZN13LoadOperation19IntegrateTimeSlicedEi
nrb:__ZNK15QualitySettings26GetTypeInfoVirtualInternalEv
Fsg:_InterpreterFactory__ctor_m3331468903
t3f:_X501__cctor_m3795360380
uxa:__ZN13GfxDeviceGLES22DispatchComputeProgramE12ObjectHandleI18ComputeProgram_TagPvE15ComputeBufferIDj
PQh:_GUIStyle_set_contentOffset_m2138084868
Yof:_Collection_1_System_Collections_ICollection_CopyTo_m4193844941_gshared
qne:_Convert_ToInt32_m2297793940
nqa:__Z17TransformAABBSlowRK4AABBRK10Matrix4x4fRS_
Apb:__ZN15SerializeTraitsI13dynamic_arrayI7Hash128Lj8EEE19ResizeSTLStyleArrayERS2_i18MemLabelIdentifier
kvd:__ZN13Il2CppHashMapINSt3__24pairIPK9FieldInfoP11Il2CppClassEEj17ReflectionMapHashIS7_ENS0_8equal_toIS7_EENS0_9allocatorINS1_IK10KeyWrapperIS7_EjEEEEEC2EjRKS9_RKSB_
oSb:__ZN9ShaderLab21SerializedShaderState8TransferI14SafeBinaryReadEEvRT_
HQj:_ftruncate
FXd:_RSAPKCS1SignatureFormatter_SetKey_m2365816458
MIf:_Int16_GetHashCode_m304503362_AdjustorThunk
MVc:_cf2_stack_pushInt
jB:__ZN7mecanim9animation20DestroyLayerConstantEPNS0_13LayerConstantERNS_6memory9AllocatorE
cBh:_CompressedStack__ctor_m276924800
rBe:_ExecuteEvents_get_cancelHandler_m1964324668
Mha:__ZN15SerializeTraitsINSt3__24pairIN4core12basic_stringIcNS2_20StringStorageDefaultIcEEEES6_EEE8TransferI24GenerateTypeTreeTransferEEvRS7_RT_
H_j:b89
G_j:b88
w_g:__ZL70GUISettings_t622856320_CustomAttributesCacheGenerator_m_SelectionColorP21CustomAttributesCache
_Zj:b81
ZZj:b80
g_j:b83
f4:__ZN18ResourceImageGroup7CleanupEv
o_j:b85
Eaj:_AnimatorControllerPlayable_SetTrigger_m3144166126
F_j:b87
v_j:b86
fq:__ZN11Quaternionf8TransferI24GenerateTypeTreeTransferEEvRT_
Tii:_ToggleGroup_RegisterToggle_m3118973598
l3b:__ZN13ProduceHelperI4MeshLb0EE7ProduceE18MemLabelIdentifier18ObjectCreationMode
K8f:_PrivateKeyInfo_Decode_m1053025782
vqg:_X509ChainElementCollection_System_Collections_ICollection_CopyTo_m1467895312
w2f:_PKCS12_Decrypt_m2457743414
yWg:__ZL87Animator_t69676727_CustomAttributesCacheGenerator_Animator_SetTriggerString_m2002790359P21CustomAttributesCache
Fmb:__ZN8Playable19SetOutputConnectionEPS_i
Pcd:__ZN15dense_hashtableINSt3__24pairIK10KeyWrapperIPK11Il2CppClassEPKcEES6_N6il2cpp5utils11PointerHashIS3_EEN14dense_hash_mapIS6_S9_SE_NS6_14EqualsComparerINS0_8equal_toIS5_EEEENS0_9allocatorISA_EEE9SelectKeyESJ_SL_EC2ERKSO_j
Vl:_glDeleteShader
Iwe:_Exception_GetType_m3898489832
ala:__ZN6prcoreL17RemapGenericFloatI15TexFormatRGHalf16TexFormatRGFloatEEvPKNS_9InnerInfoE
Zlf:_Stack_1_Peek_m1548778538_gshared
Wuf:_Collection_1_System_Collections_IList_get_Item_m1995028750_gshared
zNa:__ZZ23InitPlayerLoopCallbacksvEN38EarlyUpdateExecuteMainThreadJobsstruct7ForwardEv
ezj:_Vector4_Dot_m2285943745
Dgi:_Shadow_set_effectColor_m3110056844
_Vh:_Physics2D_GetColliderFromInstanceID_m95920619
xbc:__Z27scripting_add_internal_callPKcPKv
q$e:_Array_InternalArray__Insert_TisUriScheme_t1876590943_m2728325409_gshared
Wud:__ZN13Il2CppHashMapINSt3__24pairIPK9EventInfoP11Il2CppClassEEj17ReflectionMapHashIS7_ENS0_8equal_toIS7_EENS0_9allocatorINS1_IK10KeyWrapperIS7_EjEEEEEC2EjRKS9_RKSB_
nDd:__GLOBAL__sub_I_GarbageCollector_cpp
k0:__Z17GetPlayerSettingsv
KTi:__Z65RuntimeInvoker_KeyValuePair_2_t38854645_Il2CppObject_Il2CppObjectPK10MethodInfoPvPS2_
at:__ZN34BlobWriteTransferSTLStyleArrayImplI22OffsetPtrArrayTransferIiEEclERS1_17TransferMetaFlagsR9BlobWrite
Tsj:_X509Store_CheckStore_m1027496478
CVi:__Z87RuntimeInvoker_Int32_t2071877448_UIVertex_t1204258818_UIVertex_t1204258818_Il2CppObjectPK10MethodInfoPvPS2_
MBg:__ZL82MethodBase_t904190842_CustomAttributesCacheGenerator_MethodBase_Invoke_m1075809207P21CustomAttributesCache
tPi:__Z93RuntimeInvoker_TextGenerationError_t780770201_Il2CppObject_TextGenerationSettings_t2543476768PK10MethodInfoPvPS2_
Vu:__ZN26AnimatorControllerPlayable18SetLayerAutoWeightEv
Kb:invoke_vffff
hRj:__ZNSt3__212basic_stringIcNS_11char_traitsIcEENS_9allocatorIcEEEC2ERKS5_jjRKS4_
_2d:_String_Contains_m4017059963
E2e:_Array_swap_TisCustomAttributeNamedArgument_t94157543_TisCustomAttributeNamedArgument_t94157543_m3600072996_gshared
dvi:_DefaultComparer_Compare_m1606207039_gshared
o0c:__ZN2UI14CanvasRenderer12SyncMaterialENS0_8SyncFlagE
ZRd:__ZN6il2cpp2vm9Parameter30GetDefaultParameterValueObjectEPK10MethodInfoPK13ParameterInfoPb
c0e:_Array_InternalArray__set_Item_TisLabelData_t3712112744_m2253365137_gshared
lvh:_MonoCMethod_get_Attributes_m3914742834
psi:_InternalEnumerator_1__ctor_m142220063_AdjustorThunk
mUh:_MonoBehaviour_Invoke_m666563676
Moh:_ConstructorBuilder_get_DeclaringType_m4264602248
iRf:_StringReader__ctor_m643998729
llg:_IPv6Address_TryParse_m2220524278
dJi:__Z75RuntimeInvoker_DateTime_t693205669_DateTime_t693205669_TimeSpan_t3430258949PK10MethodInfoPvPS2_
PRe:_U3CDelayedSetDirtyU3Ec__Iterator0_System_Collections_Generic_IEnumeratorU3CobjectU3E_get_Current_m2210283424
YTg:__ZL86Time_t31991979_CustomAttributesCacheGenerator_Time_get_realtimeSinceStartup_m357614587P21CustomAttributesCache
IRc:_UNITY_tt_face_done_kern
Rgj:_Context_get_DefaultContext_m2211922324
Fnh:_CustomAttributeData_get_NamedArguments_m708818174
Hoc:__Z59GUIStyle_CUSTOM_Internal_GetNumCharactersThatFitWithinWidth13Il2Cpp_IntPtrP12Il2CppStringf
$8f:_RSAManaged_GetPaddedValue_m2972141669
mfi:_ScrollRect_OnDrag_m1424848249
reg:_TlsServerCertificate_ProcessAsSsl3_m277089231
MVe:_Array_InternalArray__IEnumerable_GetEnumerator_TisUInt16_t986882611_m3665860884_gshared
Daa:__Z19scripting_gc_enablev
jnj:_AnchorInfo__ctor_m617409099
E8a:__Z29StdTemplateConversionFunctionIihEbPvR14SafeBinaryRead
nrh:_GenericTypeParameterBuilder_GetMethodImpl_m528545634
i2c:__Z55Register_UnityEngine_CanvasRenderer_DisableRectClippingv
ktg:_Interval_CompareTo_m2909556284_AdjustorThunk
Ptb:__ZN14SafeBinaryRead21TransferSTLStyleArrayI13dynamic_arrayI11ColorRGBA32Lj4EEEEvRT_17TransferMetaFlags
Ymi:_InternalEnumerator_1_System_Collections_IEnumerator_Reset_m1090540230_AdjustorThunk
F2g:__ZL83Logger_t3328995178_CustomAttributesCacheGenerator_Logger_get_logHandler_m4190583509P21CustomAttributesCache
wbi:_Navigation_t1571958496_marshal_pinvoke
bsg:_Interpreter_GetLastDefined_m2450713313
Amj:_Parser_ParseAssertionType_m3316669790
egi:_Selectable_get_isPointerDown_m774209881
Nvg:__ZL73Enum_t2459695545_CustomAttributesCacheGenerator_Enum_ToObject_m2460371738P21CustomAttributesCache
bXb:__ZNSt3__27__sort4IRNS_6__lessIN4core12basic_stringIcNS2_20StringStorageDefaultIcEEEES6_EEPS6_EEjT0_SA_SA_SA_T_
cUj:dynCall_viiiifii
dWh:_Plane_get_distance_m1834776091_AdjustorThunk
ytd:__ZN6il2cpp2gc19AppendOnlyGCHashMapINSt3__24pairIPK11Il2CppImageP11Il2CppClassEEP22Il2CppReflectionModule17ReflectionMapHashIS9_ENS2_8equal_toIS9_EEEC2Ev
O1:__Z20GetPersistentManagerv
ZYc:_UNITY_TT_Set_Var_Design
Qgj:_Context_Finalize_m1386439645
eaa:__ZN21SystemInfoStringCache16StaticInitializeEPv
wag:_TlsStream__ctor_m4117943603
Vhi:_Text_FontTextureChanged_m4236993972
AJd:__ZN6il2cpp2gc16GarbageCollector23MakeDescriptorForObjectEPji
uDd:__ZNK10KeyWrapperIP12Il2CppObjectE14EqualsComparerINSt3__28equal_toIS1_EEEclERKS2_S9_
Oxh:_ParameterModifier_t1820634920_marshal_pinvoke
cDb:__ZNK13MonoBehaviour7GetNameEv
AAd:__ZN13dynamic_arrayIP12Il2CppObjectLj4EE9push_backEv
Jyd:__ZN6il2cpp6icalls8mscorlib6System10Reflection8Assembly13get_code_baseEP24Il2CppReflectionAssemblyb
VCd:__ZN15dense_hashtableI10KeyWrapperIP18Il2CppGenericClassES3_N6il2cpp8metadata22Il2CppGenericClassHashEN14dense_hash_setIS3_S6_NS3_14EqualsComparerINS5_25Il2CppGenericClassCompareEEENSt3__29allocatorIS3_EEE8IdentityESA_SD_E6insertERKS3_
Dye:_AbstractEventData_Use_m1797212290
hlb:__Z20RenderMultipleMeshesRK15RenderNodeQueueRK18RenderMultipleData17ShaderChannelMask
tod:__ZN6il2cpp2vm4Type19GetGenericParameterEPK10Il2CppType
K1c:__Z51Register_UnityEngine_CanvasGroup_get_blocksRaycastsv
Iti:_InternalEnumerator_1_get_Current_m2826780083_gshared
O1j:b119
tvc:__ZN8JSONRead21TransferSTLStyleArrayI13dynamic_arrayI11ColorRGBA32Lj4EEEEvRT_18MemLabelIdentifier17TransferMetaFlags
Oah:__ZL105LayoutUtility_t4076838048_CustomAttributesCacheGenerator_LayoutUtility_U3CGetMinHeightU3Em__4_m1769295917P21CustomAttributesCache
llf:_List_1_Contains_m2184078187_gshared
bXh:_RaycastHit2D_get_collider_m2568504212
Lui:_InternalEnumerator_1__ctor_m2782443954_AdjustorThunk
Ad:_glBeginQuery
hmh:_Assembly_GetCustomAttributes_m95309865
NLh:_GUILayoutUtility_INTERNAL_CALL_Internal_GetWindowRect_m3236664463
CMj:_BackgroundController__ctor_m3863892641
hJc:__ZN10Effector2D25CheckEffectorColliderMaskEP10Collider2DS1_
_Qa:__ZN6Camera12RenderStereoENS_10RenderFlagE8CullFlagPNS_24PerformEyeRenderFunctionE
OW:__ZN20LocalFileSystemPosix10ToAbsoluteEPKc
ULe:_GridLayoutGroup__ctor_m1099847132
XCi:__Z136RuntimeInvoker_Boolean_t3825574718_Il2CppObject_Il2CppObject_Int32_t2071877448_Int32_t2071877448_SByte_t454417549_ContextU26_t3131521781PK10MethodInfoPvPS2_
wLd:__ZN6il2cpp2vm13ComObjectBase16DisconnectObjectEj
DQa:_UNITY_png_default_flush
op:__ZN6Object17MainThreadCleanupEv
iee:_ArrayListWrapper_set_Capacity_m2792463350
Ckb:__Z32TransferEnumWithNameForceIntSizeI14SafeBinaryRead7HDRModeEvRT_RT0_PKc17TransferMetaFlags
xPj:_getcwd
_yh:_StringBuilder_Append_m1128243247
xBc:__ZN16b2CapsuleContact6CreateEP9b2FixtureiS1_iP16b2BlockAllocator
knj:_AnchorInfo_get_Offset_m142119297
Nbb:__ZN25ThreadsafeLinearAllocatorD2Ev
G0e:_Array_InternalArray__set_Item_TisVector4_t2243707581_m3878172417_gshared
aba:__Z21SendMessageToEveryoneRK17MessageIdentifier11MessageData
MOh:_GUISkin_get_settings_m626844463
s7:__ZN21BillboardBatchManager16StaticInitializeEPv
QOh:_Object_get_name_m2079638459
M1j:b117
uZ:__ZN12_GLOBAL__N_138ArchiveRedirectFileSystemStaticDestroyEPv
rCj:_InvokableCall_1_add_Delegate_m3048312905_gshared
zwe:_EventHandler_Invoke_m1137722757
Jfd:__ZNK15dense_hashtableINSt3__24pairIK10KeyWrapperI13dynamic_arrayIPK10Il2CppTypeLj4EEEPFvvEEES8_N6il2cpp8metadata19Il2CppSignatureHashEN14dense_hash_mapIS8_SB_SF_NS8_14EqualsComparerINSE_22Il2CppSignatureCompareEEENS0_9allocatorISC_EEE9SelectKeyESJ_SL_E5beginEv
FUf:_MonoType_IsSubclassOf_m2211166238
fyh:_TypeFilter_EndInvoke_m997625354
uqf:_Collection_1_System_Collections_ICollection_CopyTo_m2859266050_gshared
Qu:__ZN7mecanim14ValueArrayCopyEPKNS_10ValueArrayEPS0_PKNS_14ValueArrayMaskE
Wvi:_Comparer_1__ctor_m2876014041_gshared
gee:_ArrayListWrapper_get_Count_m2207944952
wqg:_X509ChainElementCollection_System_Collections_IEnumerable_GetEnumerator_m2559704689
KMg:__ZL86BigInteger_t925946153_CustomAttributesCacheGenerator_BigInteger_op_Implicit_m622924526P21CustomAttributesCache
Y5g:__ZL59Dropdown_t1985816271_CustomAttributesCacheGenerator_m_ValueP21CustomAttributesCache
Jsg:_InterpreterFactory_set_Gap_m2761943153
Mng:_PublicKey_get_Key_m126090744
eNc:__ZNSt3__23mapIN20TextRenderingPrivate7FontRefEP11FT_FaceRec_NS_4lessIS2_EENS_9allocatorINS_4pairIKS2_S4_EEEEEixERS9_
tJa:__ZN17ArchiveFileSystem10AddStorageEP20ArchiveStorageReader
$Jj:__ZL25UnresolvedVirtualCall_104P12Il2CppObjectS0_S0_S0_iPK10MethodInfo
v5i:_Color_Equals_m661618137
yzc:__ZNK12b2MotorJoint16GetReactionForceEf
VEa:__ZN12_GLOBAL__N_112UploadFormatE13TextureFormat
k7h:_EqualityComparer_1_System_Collections_IEqualityComparer_GetHashCode_m1203798961_gshared
j$g:__ZL89GUIStyle_t1799908754_CustomAttributesCacheGenerator_GUIStyle_AssignRectOffset_m2998103580P21CustomAttributesCache
bbd:__ZN6il2cpp2vm5Class15GetEnumBaseTypeEP11Il2CppClass
eNf:_DirectoryNotFoundException__ctor_m3713860966
Dwi:_Comparer_1_get_Default_m4282764954_gshared
$nb:__ZNK9Texture2D16GetNpotTexelSizeEv
yni:_InternalEnumerator_1__ctor_m245588437_gshared
mrg:_Capture_get_Text_m3472127896
Bai:_Mask_get_rectTransform_m3304369086
j4i:_WillRenderCanvases_EndInvoke_m3215676440
qwj:_TooltipAttribute__ctor_m2640804852
$Li:__Z35RuntimeInvoker_Category_t1984577050PK10MethodInfoPvPS2_
ncj:_AnimatorControllerPlayable_INTERNAL_CALL_PlayInFixedTimeInternal_m847261734
OAa:__ZN9GfxDevice22GetDefaultVertexBufferE26GfxDefaultVertexBufferTypej
jtj:_X509Crl_get_NextUpdate_m45665244
Wof:_Collection_1__ctor_m3903788797_gshared
Uyf:_ReadOnlyCollection_1_System_Collections_ICollection_CopyTo_m1129689124_gshared
PPj:___fseeko_unlocked
nTi:__Z162RuntimeInvoker_Void_t1841601450_Il2CppObject_Int32_t2071877448_SByte_t454417549_SByte_t454417549_SingleU26_t4173844468_SingleU26_t4173844468_SingleU26_t4173844468PK10MethodInfoPvPS2_
i_j:_glGetActiveUniform__wrapper
HPj:_sscanf
Etf:_Collection_1_Contains_m1999290510_gshared
gub:__ZN14SafeBinaryRead21TransferSTLStyleArrayINSt3__26vectorI17BlendShapeChannelNS1_9allocatorIS3_EEEEEEvRT_17TransferMetaFlags
aja:__Z17BeginSplashScreenv
nyj:_Vector3__ctor_m2638739322_AdjustorThunk
SSe:_Array_InternalArray__ICollection_Contains_TisInt16_t4041245914_m698926112_gshared
RGh:_UInt32_Parse_m2400360707
AA:__ZN7mecanim9animation18CreateAvatarMemoryEPKNS0_14AvatarConstantERNS_6memory9AllocatorE
Rje:_Stack_Pop_m3788808882
zxi:_Enumerator_VerifyCurrent_m4246196125_AdjustorThunk
S3h:_Dictionary_2_pick_value_m3484897877_gshared
Qqe:_DateTime_op_Equality_m1867073872
Pt:__ZN7mecanim8skeleton16SkeletonPoseCopyIN4math4trsXENS2_7affineXEEEvPKNS0_13SkeletonPoseTIT_EEPNS5_IT0_EE
Kdf:_List_1_CopyTo_m1916701891_gshared
lMb:__Z18Transfer_BlittableI19StreamedBinaryWriteILb0EELb0EaEvRK29SerializationCommandArgumentsR31RuntimeSerializationCommandInfo
uAa:__ZN18GfxFramebufferGLES18GetFramebufferNameERK20GfxRenderTargetSetup
DSj:_saveSetjmp
SAd:__ZN6il2cpp6icalls8mscorlib6System2IO6MonoIO11GetFileTypeE12Il2CppIntPtrPi
hnc:__Z30Event_Get_Custom_PropCharacterP12Il2CppObject
UZ:__ZN13PlayableGraph27SchedulePlayableDestructionERK9HPlayable
qXj:_glGetFramebufferAttachmentParameteriv__wrapper
FGb:__Z22scripting_array_length17ScriptingArrayPtr
A_d:_SecurityElement_GetAttribute_m4288291176
cqj:_UriParser_get_DefaultPort_m1377931533
kFj:_IndexedSet_1_get_Count_m2839545138_gshared
Ppa:__ZN14SafeBinaryRead20TransferTypelessDataEjPvi
nKh:_RenderPipelineManager_get_currentPipeline_m679160301
tCg:__ZL66StringFreezingAttribute_t2691375565_CustomAttributesCacheGeneratorP21CustomAttributesCache
Wqc:__ZN9rapidjson13GenericReaderINS_4UTF8IcEES2_13JSONAllocatorE10ParseFalseILj1ENS_25GenericInsituStringStreamIS2_EENS_15GenericDocumentIS2_S3_S3_EEEEvRT0_RT1_
qhf:_List_1_AddCollection_m3284813601_gshared
aeb:__ZN33AssetBundleLoadFromAsyncOperation7PerformEv
v9g:__ZL102ToggleGroup_t1030026315_CustomAttributesCacheGenerator_ToggleGroup_U3CActiveTogglesU3Em__1_m4052653494P21CustomAttributesCache
lNi:__Z69RuntimeInvoker_Single_t2076509932_Int32_t2071877448_Int32_t2071877448PK10MethodInfoPvPS2_
i0:__Z19GetActiveColorSpacev
y7h:_EqualityComparer_1__cctor_m1672307556_gshared
hdh:_SoapTypeAttribute_get_IsInteropXmlElement_m2941294827
gxb:__ZN14SpriteRenderer18UpdateCachedSpriteEv
V8e:_Enumerator_System_Collections_IEnumerator_get_Current_m3542273247_gshared
yce:_Char_System_IConvertible_ToUInt32_m1557991717_AdjustorThunk
J3d:_Encoding_get_UTF8Unmarked_m628720656
YEf:_NumberFormatter_RoundBits_m1545255255
Q0:__Z6StrCmpPKcS0_
Psi:_InternalEnumerator_1_MoveNext_m2906956792_gshared
xWb:__Z21CheckGpuProgramUsable20ShaderGpuProgramType
nVi:__Z55RuntimeInvoker_Boolean_t3825574718_Keyframe_t1449471340PK10MethodInfoPvPS2_
cnh:_Binder__cctor_m3736115807
cJd:__ZN6il2cpp2os9Directory20GetFileSystemEntriesERKNSt3__212basic_stringIcNS2_11char_traitsIcEENS2_9allocatorIcEEEESA_iiPi
Bad:__ZN30dense_hashtable_const_iteratorINSt3__24pairIK10KeyWrapperIPK22Il2CppGenericParameterEP11Il2CppClassEES6_N6il2cpp5utils11PointerHashIS4_EEN14dense_hash_mapIS6_S9_SE_NS6_14EqualsComparerINS0_8equal_toIS5_EEEENS0_9allocatorISA_EEE9SelectKeyESJ_SL_EppEv
P4h:_Dictionary_2_OnDeserialization_m2160537783_gshared
T8d:_Attribute_GetHashCode_m2653962112
bMc:__ZN20TextRenderingPrivate19NativeTextGenerator5SetupEv
Fij:_AsyncResult_GetReplyMessage_m262842621
j7e:_Enumerator__ctor_m3021143890_AdjustorThunk
jzb:__ZN12AspectRatios8TransferI18StreamedBinaryReadILb0EEEEvRT_
oyg:__ZL66X509ExtensionCollection_t1640144839_CustomAttributesCacheGeneratorP21CustomAttributesCache
M4b:__ZN10GameObject14CopyPropertiesERS_
kpc:__Z44Register_UnityEngine_GUIStyle_get_fixedWidthv
_Wd:_RSACryptoServiceProvider_Common_m2581564813
tId:__ZNSt3__214__split_bufferIN6il2cpp2os10ThreadImpl10APCRequestERNS_9allocatorIS4_EEEC2EjjS7_
jPf:_MemoryStream_CheckIfClosedThrowDisposed_m2253054610
yki:_ArrayReadOnlyList_1_GetEnumerator_m634288642_gshared
r7a:__ZNK13ScreenManager12IsFullScreenEv
iQj:_rand
TXj:_emscripten_glFramebufferRenderbuffer__wrapper
ZBf:_ReadOnlyCollection_1_GetEnumerator_m2481390116_gshared
nbj:_AnimatorControllerPlayable_INTERNAL_CALL_GetNextAnimatorStateInfoInternal_m1550960895
uHb:__ZN14SafeBinaryRead21TransferSTLStyleArrayINSt3__26vectorI17AnimationCurveTplIfE13stl_allocatorIS4_L18MemLabelIdentifier1ELi16EEEEEEvRT_17TransferMetaFlags
Scc:__Z60Register_UnityEngine_AsyncOperation_set_allowSceneActivationv
Frd:__ZN15dense_hashtableINSt3__24pairIK10KeyWrapperINS1_IPK11Il2CppImageP11Il2CppClassEEEjEES9_17ReflectionMapHashIS8_EN14dense_hash_mapIS9_jSD_NS9_14EqualsComparerINS0_8equal_toIS8_EEEENS0_9allocatorISB_EEE9SelectKeyESI_SK_E12expand_arrayEjN21dense_hash_map_traits17integral_constantIbLb0EEE
pgh:_ObjectManager_RegisterObject_m872610295
R0a:__Z22PrepareOptimizedPlanesPK5PlaneiPKN4math7_float4E
u_i:__Z47RuntimeInvoker_Vector3_t2243707580_Il2CppObjectPK10MethodInfoPvPS2_
WXh:_RectOffset_t3387826427_marshal_pinvoke
FKe:_Graphic_SetVerticesDirty_m1607014370
q7:__ZN17UniqueIDGenerator15CreatePureIndexEv
D7b:__ZN14dense_hash_mapI12TriangleEdgei16TriangleEdgeHashNSt3__28equal_toIS0_EENS2_9allocatorINS2_4pairIKS0_iEEEEEixERS7_
J7f:_MD2__ctor_m3133818738
AB:__ZN11UnityEngine9Animation28GenericAnimationBindingCache15DidReloadDomainEv
H4f:_AppDomain_InternalGetProcessGuid_m1278588156
XPe:_InputField_MoveRight_m386206014
oie:_HashValues_get_Count_m234926373
XTe:_Array_InternalArray__ICollection_Remove_TisIl2CppObject_m2425110446_gshared
qei:_ScrollRect_set_inertia_m2575649134
kMf:_BinaryReader_ReadBoolean_m2892291883
qad:__ZN15dense_hashtableINSt3__24pairIK10KeyWrapperIPK22Il2CppGenericParameterEP11Il2CppClassEES6_N6il2cpp5utils11PointerHashIS4_EEN14dense_hash_mapIS6_S9_SE_NS6_14EqualsComparerINS0_8equal_toIS5_EEEENS0_9allocatorISA_EEE9SelectKeyESJ_SL_E14squash_deletedEv
Wzb:__ZNSt3__26__treeINS_12__value_typeIN4core12basic_stringIcNS2_20StringStorageDefaultIcEEEE4PPtrI6ObjectEEENS_19__map_value_compareIS6_SA_NS_4lessIS6_EELb1EEE13stl_allocatorISA_L18MemLabelIdentifier51ELi16EEE7destroyEPNS_11__tree_nodeISA_PvEE
Izc:__ZNK12b2MouseJoint17GetReactionTorqueEf
lyd:__ZN6il2cpp6icalls8mscorlib6System9Threading6Thread22CurrentThread_internalEv
nlc:__Z14GUIClipTextureP9Texture2DPhiiii
emi:_InternalEnumerator_1_Dispose_m1064404287_AdjustorThunk
_Ca:__ZNSt3__26vectorI27ComputeShaderBuiltinSamplerNS_9allocatorIS1_EEE21__push_back_slow_pathIKS1_EEvRT_
HTi:__Z95RuntimeInvoker_Void_t1841601450_ObjectU5BU5DU26_t3223402458_Int32_t2071877448_Int32_t2071877448PK10MethodInfoPvPS2_
ueg:_TlsServerCertificate_validateCertificates_m1988583701
PHi:__Z52RuntimeInvoker_DateTime_t693205669_Int16_t4041245914PK10MethodInfoPvPS2_
Gxg:__ZL61DllImportAttribute_t3000813225_CustomAttributesCacheGeneratorP21CustomAttributesCache
MKj:__ZL25UnresolvedVirtualCall_143P12Il2CppObjectaaPK10MethodInfo
x0:__ZNK9Transform18TransformDirectionERK8Vector3f
AMa:__ZNK17ArchiveFileSystem12GetAssetGUIDERK13FileEntryData
oWb:__ZNSt3__26vectorIN9ShaderLab20SerializedSubProgram15MatrixParameterENS_9allocatorIS3_EEE21__push_back_slow_pathIKS3_EEvRT_
yMh:_GUILayoutEntry_SetHorizontal_m1828181654
W0j:_emscripten_glClearStencil__wrapper
V7h:_EqualityComparer_1_get_Default_m1852501307_gshared
AKi:__Z94RuntimeInvoker_Void_t1841601450_Il2CppObject_ByteU5BU5DU26_t790777611_ByteU5BU5DU26_t790777611PK10MethodInfoPvPS2_
Dgd:__ZN15dense_hashtableINSt3__24pairIK10KeyWrapperIPK11Il2CppClassEPKcEES6_N6il2cpp5utils11PointerHashIS3_EEN14dense_hash_mapIS6_S9_SE_NS6_14EqualsComparerINS0_8equal_toIS5_EEEENS0_9allocatorISA_EEE9SelectKeyESJ_SL_E12resize_deltaEjj
URj:__ZNK10__cxxabiv120__si_class_type_info27has_unambiguous_public_baseEPNS_19__dynamic_cast_infoEPvi
IGf:_NumberFormatInfo_get_PercentNegativePattern_m1162448153
Yyg:__ZL56SyncHashtable_t1343674558_CustomAttributesCacheGeneratorP21CustomAttributesCache
lCb:__ZN24RingBufferMemoryFileData9SetLengthEy
EVj:_glTexSubImage3D__wrapper
yrg:_FactoryCache_Add_m2602974721
UOa:__Z21WriteImageAsyncThreadPv
u6:__ZL16GetInterfaceImpl18UnityInterfaceGUID
ubd:__ZN6il2cpp2vmL17SetupFieldOffsetsENS0_15FieldLayoutKindEP11Il2CppClassjRKNSt3__26vectorIjNS4_9allocatorIjEEEE
qpf:_Collection_1_GetEnumerator_m2816357893_gshared
qVg:__ZL105RectTransform_t3349966182_CustomAttributesCacheGenerator_RectTransform_INTERNAL_get_anchorMin_m3180545469P21CustomAttributesCache
Iaf:_List_1_System_Collections_IList_get_Item_m936612973_gshared
jU:__ZN13EmscriptenWWW7GetSizeEv
lLd:__ZN6il2cpp6icalls8mscorlib6System15MonoCustomAttrs27GetCustomAttributesInternalEP12Il2CppObjectP20Il2CppReflectionTypeb
fZc:_UNITY_TT_Set_MM_Blend
zgh:_ObjectReader_ReadAssembly_m869834280
xkb:__ZN22RenderingCommandBufferD0Ev
rBf:_ReadOnlyCollection_1_System_Collections_IList_get_Item_m1831743662_gshared
Guf:_Collection_1_IsSynchronized_m971497175_gshared
s_:__ZNK18ScriptingObjectPtr17ToScriptingStringEv
bBe:_ExecuteEvents_Execute_m1617536317
Shi:_Text_get_cachedTextGeneratorForLayout_m1357670532
wI:__ZL31InitializeAudioScriptingClassesv
rTa:__Z14SortGUIByDepthP10GUIElementS0_
jJf:_NumberFormatter_NumberToString_m126384393
wZj:_emscripten_glVertexAttrib4fv__wrapper
A6:__ZN13RuntimeStaticI13dynamic_arrayIPK31TransferFunctionScriptingTraitsLj4EELb0EE16StaticInitializeEPv
ujj:_LogicalCallContext__ctor_m3173272863
Saj:_AnimatorControllerPlayable_IsParameterControlledByCurveString_m4036987523
rTf:_MonoCustomAttrs__cctor_m2608447972
YIf:_Int32_FindSign_m3803672540
Kxi:_Enumerator_System_Collections_IEnumerator_Reset_m70453843_AdjustorThunk
IOh:_GUISkin_get_scrollView_m2941173958
xX:__ZNK20LocalFileSystemPosix21GetAvailableDiskSpaceEPKcRy
haa:__ZNSt3__26__treeIiNS_4lessIiEENS_9allocatorIiEEE7destroyEPNS_11__tree_nodeIiPvEE
XBj:_Predicate_1__ctor_m2995226103_gshared
mag:_CipherSuite_InitializeCipher_m229247572
fog:_X509Certificate2__ctor_m1095336775
mua:__ZNK9GfxDevice14GetWorldMatrixEv
dxh:_MonoProperty_GetGetMethod_m1100580870
t3h:_Dictionary_2__ctor_m1950568359_gshared
FKd:__ZN15dense_hashtableINSt3__24pairIK10KeyWrapperIPK19Il2CppGenericMethodEP10MethodInfoEES6_N6il2cpp8metadata23Il2CppGenericMethodHashEN14dense_hash_mapIS6_S9_SD_NS6_14EqualsComparerINSC_26Il2CppGenericMethodCompareEEENS0_9allocatorISA_EEE9SelectKeyESH_SJ_E13set_empty_keyERKSA_
bWa:__Z19scripting_array_new17ScriptingClassPtrjj
lN:__ZN11SoundHandle13CreateChannelEb
mpb:__ZN14SafeBinaryRead21TransferSTLStyleArrayI13dynamic_arrayI12LightmapDataLj4EEEEvRT_17TransferMetaFlags
$4f:_ArgumentException__ctor_m3312963299
lgb:__ZN21AssetBundleFileSystem11CreateAsDirER13FileEntryData
GTb:__ZNSt3__26vectorIN9ShaderLab20SerializedSubProgram16TextureParameterENS_9allocatorIS3_EEE6assignIPS3_EENS_9enable_ifIXaasr21__is_forward_iteratorIT_EE5valuesr16is_constructibleIS3_NS_15iterator_traitsISA_E9referenceEEE5valueEvE4typeESA_SA_
sAf:_ReadOnlyCollection_1_get_Item_m1696267180_gshared
uId:__ZNSt3__26vectorIN6il2cpp2os10ThreadImpl10APCRequestENS_9allocatorIS4_EEE26__swap_out_circular_bufferERNS_14__split_bufferIS4_RS6_EE
LAj:_U3CCreateWhereIteratorU3Ec__Iterator1D_1_MoveNext_m3533253043_gshared
eud:__ZN15dense_hashtableINSt3__24pairIK10KeyWrapperIPK22Il2CppGenericParameterEPK24MonoGenericParameterInfoEES6_N6il2cpp5utils11PointerHashIS4_EEN14dense_hash_mapIS6_SA_SF_NS6_14EqualsComparerINS0_8equal_toIS5_EEEENS0_9allocatorISB_EEE9SelectKeyESK_SM_E15set_deleted_keyERKSB_
moi:_InternalEnumerator_1_System_Collections_IEnumerator_Reset_m2726857860_AdjustorThunk
q_g:__ZL124GUILayoutUtility_t996096873_CustomAttributesCacheGenerator_GUILayoutUtility_INTERNAL_CALL_Internal_GetWindowRect_m3236664463P21CustomAttributesCache
brg:_X509SubjectKeyIdentifierExtension__ctor_m3887138480
b7e:_Enumerator_System_Collections_IEnumerator_get_Current_m2853089017_AdjustorThunk
TAc:__ZN12b2WheelJoint24SolvePositionConstraintsERK12b2SolverData
Ng:_emscripten_exit_fullscreen
VNe:_InputField_get_mesh_m3276583786
rej:_GCHandle_Free_m1639542352_AdjustorThunk
edg:_Context_set_ClientRandom_m631392719
Iej:_OutAttribute__ctor_m1447235100
IHd:__ZN6il2cpp6icalls8mscorlib6System6String19InternalAllocateStrEi
Rvc:__Z29Transfer_Blittable_ArrayFieldI8JSONRead11QuaternionfEvRT_R9ArrayInfoRK23StaticTransferFieldInfo
vEg:__ZL65SoapParameterAttribute_t2780084514_CustomAttributesCacheGeneratorP21CustomAttributesCache
$W:__ZN20LocalFileSystemPosix8SetFlagsER13FileEntryDatajj
Hdc:__Z45Register_UnityEngine_Camera_get_targetDisplayv
T2b:__ZNK24RendererAnimationBinding15GenerateBindingERKN4core12basic_stringIcNS0_20StringStorageDefaultIcEEEEbRN11UnityEngine9Animation14GenericBindingE
jkb:__Z15GetFlareManagerv
PZb:__ZN15ApplicationInfo24GetApplicationIdentifierEv
cAf:_ReadOnlyCollection_1_System_Collections_IList_Contains_m927375828_gshared
Fcb:__ZN9Behaviour8TransferI18StreamedBinaryReadILb0EEEEvRT_
Gkj:_Enumerator_System_Collections_IEnumerator_get_Current_m1429268283
Bwf:_ReadOnlyCollection_1_System_Collections_Generic_ICollectionU3CTU3E_Clear_m388357963_gshared
TXg:__ZL121AnimatorControllerPlayable_t4078305555_CustomAttributesCacheGenerator_AnimatorControllerPlayable_PlayInternal_m4018423479P21CustomAttributesCache
vT:__ZN19CloudServiceHandler10QueueEventEPN11UnityEngine15CloudWebService14CloudEventInfoE
vSj:___cxa_is_pointer_type
p3d:_String_Concat_m56707527
vu:__ZN7mecanim9animation16EvaluateAvatarDXEPKNS0_14AvatarConstantEPKNS0_11AvatarInputEPNS0_12AvatarMemoryEPNS0_15AvatarWorkspaceEPNS0_12AvatarOutputE
_Da:__ZN4gles20DestroyRenderSurfaceEP7ApiGLESP17RenderSurfaceGLES
a7e:_Enumerator_System_Collections_IEnumerator_get_Current_m2853089017_gshared
Qjc:__Z34Transform_CUSTOM_SetAsFirstSiblingP12Il2CppObject
_od:__ZNK15dense_hashtableINSt3__24pairIK10KeyWrapperINS1_IPK14Il2CppAssemblyP11Il2CppClassEEEjEES9_17ReflectionMapHashIS8_EN14dense_hash_mapIS9_jSD_NS9_14EqualsComparerINS0_8equal_toIS8_EEEENS0_9allocatorISB_EEE9SelectKeyESI_SK_E10test_emptyEj
k9e:_Enumerator_get_Current_m827571811_AdjustorThunk
NYg:__ZL62Font_t4239498691_CustomAttributesCacheGenerator_textureRebuiltP21CustomAttributesCache
zia:__ZN17PersistentManager40GlobalToLocalSerializedFileIndexInternalERK26SerializedObjectIdentifier
hR:__ZN11UnityEngine15CloudWebService17SessionEventQueue14ParseEventDataERKN4core12basic_stringIcNS2_20StringStorageDefaultIcEEEE
Nye:_BaseEventData_get_selectedObject_m3551206992
NXf:_SimpleCollator_CompareOrdinal_m2176988387
E1g:__ZL47Rect_t3681755626_CustomAttributesCacheGeneratorP21CustomAttributesCache
mxe:_CCGregorianCalendar_GetYear_m1289900195
wPi:__Z441RuntimeInvoker_Boolean_t3825574718_Il2CppObject_Il2CppObject_Il2CppObject_ColorU26_t3402129837_Int32_t2071877448_Single_t2076509932_Single_t2076509932_Int32_t2071877448_SByte_t454417549_SByte_t454417549_Int32_t2071877448_Int32_t2071877448_Int32_t2071877448_Int32_t2071877448_SByte_t454417549_Int32_t2071877448_Single_t2076509932_Single_t2076509932_Single_t2076509932_Single_t2076509932_SByte_t454417549_SByte_t454417549_UInt32U26_t2197289955PK10MethodInfoPvPS2_
hJf:_Int16_ToString_m2592645088
Sya:__ZN13TranslateGLES4InitERK12GraphicsCaps16GfxDeviceLevelGL
dRb:__Z29Transfer_Blittable_ArrayFieldI18StreamedBinaryReadILb0EE10ColorRGBAfEvRT_R9ArrayInfoRK23StaticTransferFieldInfo
_hh:_SerializationInfoEnumerator_Reset_m2206466680
IWi:__Z48RuntimeInvoker_Void_t1841601450_Slot_t2267560602PK10MethodInfoPvPS2_
_Na:__ZZ23InitPlayerLoopCallbacksvEN33PostLateUpdateInputEndFramestruct7ForwardEv
D4c:__Z32CustomEventData_CUSTOM_AddUInt32P12Il2CppObjectP12Il2CppStringj
d_g:__ZL78Event_t3028476042_CustomAttributesCacheGenerator_Event_get_keyCode_m3364681288P21CustomAttributesCache
qHj:_GenericEqualityComparer_1_Equals_m1934771410_gshared
hzg:__ZL57DebuggingModes_t2073970606_CustomAttributesCacheGeneratorP21CustomAttributesCache
gCb:__ZN24RingBufferMemoryFileDataD0Ev
prf:_Collection_1_System_Collections_IList_get_IsFixedSize_m993584401_gshared
AAb:__ZNSt3__26vectorIN30RuntimeInitializeOnLoadManager15ClassMethodInfoE13stl_allocatorIS2_L18MemLabelIdentifier12ELi16EEE8__appendEj
F0b:__ZN13ProduceHelperI10TagManagerLb0EE7ProduceE18MemLabelIdentifier18ObjectCreationMode
CKi:__Z84RuntimeInvoker_Il2CppObject_Il2CppObject_Il2CppObject_Il2CppObject_Int32_t2071877448PK10MethodInfoPvPS2_
Mri:_InternalEnumerator_1__ctor_m691972083_gshared
sMd:__ZN6il2cpp8metadataL7CompareEPK10Il2CppTypeS3_
UIb:__Z18Transfer_BlittableI17RemapPPtrTransferLb0E11ColorRGBA32EvRK29SerializationCommandArgumentsR31RuntimeSerializationCommandInfo
gRg:__ZL84GameObject_t1756533147_CustomAttributesCacheGenerator_GameObject_get_tag_m1425941094P21CustomAttributesCache
WKh:_GameObject_set_layer_m2712461877
T8f:_RSAManaged__ctor_m1370411656
LDd:__ZNSt3__218uninitialized_fillIPNS_4pairIK10KeyWrapperIP12Il2CppObjectEN6il2cpp2gc9CachedCCWEEESA_EEvT_SC_RKT0_
knb:__ZN12CubemapArray23VirtualRedirectTransferER17RemapPPtrTransfer
Gac:__ZL27GetComponentsImplementationILb0ELi0EEbR10GameObjectbRK17CompareParametersRK39GetComponentsImplementation_ReturnValue
smg:_WebHeaderCollection_GetObjectData_m3940120977
LDb:__ZN9Scripting36IsSystemCollectionsGenericDictionaryE17ScriptingClassPtr
Nci:_Raycast3DCallback_EndInvoke_m3234280377
Gnj:_BalancingGroup__ctor_m2474435406
xHe:_ColorTweenCallback__ctor_m3619686788
J4:__ZL16ReadTypeTreeImplILb0EEbR8TypeTreeRK16TypeTreeIteratorRPKhS6_i
ebe:_Byte_System_IConvertible_ToInt32_m1032609763_AdjustorThunk
AWb:__ZN9ShaderLab7ProgramD0Ev
kmb:__ZNK22BuiltinResourceManager21GetResourceInstanceIDEPKN5Unity4TypeERKN4core12basic_stringIcNS4_20StringStorageDefaultIcEEEE
Cwa:__ZN9GfxDevice15BeginFrameStatsEv
Sec:__Z42Register_UnityEngine_RectOffset_set_bottomv
see:_ArrayListWrapper_IndexOf_m3574835167
Inc:__Z28GUIStyleState_CUSTOM_CleanupP12Il2CppObject
mWa:__ZN28LightProbeProxyVolumeContext8CopyFromERKS_
Udf:_List_1_Remove_m2660527978_gshared
oFe:_U3COnFinishSubmitU3Ec__Iterator0_System_Collections_Generic_IEnumeratorU3CobjectU3E_get_Current_m1823105495
A2a:__ZN23TransformChangeDispatch32QueueTransformChangeIfHasChangedER18TransformHierarchy
ZYd:_SymmetricAlgorithm_get_FeedbackSize_m544664262
e$a:__ZN18DeferredRenderLoop15RenderFinalPassEP13RenderTextureS1_
$Da:__ZN7ApiGLES18DeleteRenderbufferERj
VCa:__ZL23ProgramUniformMatrix4fvPK7ApiGLESjiihPKv
JIg:__ZL67ThreadInterruptedException_t63303933_CustomAttributesCacheGeneratorP21CustomAttributesCache
lsi:_InternalEnumerator_1_MoveNext_m3629145604_gshared
oTb:__ZN9ShaderLab20SerializedSubProgram15MatrixParameter8TransferI14SafeBinaryReadEEvRT_
e9d:_BitConverter_AmILittleEndian_m2716658112
Iac:__ZL27GetComponentsImplementationILb0ELi1EEbR10GameObjectbRK17CompareParametersRK39GetComponentsImplementation_ReturnValue
hYc:_Round_Down_To_Grid
WAh:_UTF8Decoder__ctor_m1460357288
sea:__ZN13RenderTexture7ReleaseEv
qvb:__ZN10MeshFilter23VirtualRedirectTransferER14SafeBinaryRead
a$a:__ZN19ShaderPropertySheet26SetTextureWithExplicitSizeEN9ShaderLab16FastPropertyNameE9TextureIDiiff
Kke:_Convert_ToByte_m1201588964
Avb:__ZN12MeshRenderer17MainThreadCleanupEv
Gcc:__Z36AsyncOperation_Get_Custom_PropIsDoneP12Il2CppObject
KGa:__ZN22CreateGpuProgramOutput12CreateParamsEv
zih:_RuntimeMethodHandle_GetHashCode_m2682236001_AdjustorThunk
nfj:_ActivationServices_AllocateUninitializedClassInstance_m3410698501
Jnd:__ZNSt3__26vectorIiNS_9allocatorIiEEE21__push_back_slow_pathIiEEvOT_
Iya:__ZNK14GfxContextGLES13GetDefaultFBOEv
fUe:_Array_InternalArray__ICollection_Remove_TisSByte_t454417549_m2474211570_gshared
W_d:_Evidence_get_IsSynchronized_m1427392003
jba:__ZN14GraphicsHelper5ClearE13GfxClearFlagsRK10ColorRGBAffjR17ShaderPassContext
Yld:_il2cpp_class_is_enum
Gxd:__ZN6il2cpp2vm6Thread49CheckCurrentThreadForInterruptAndThrowIfNecessaryEv
n5e:_GameObject_AddComponent_TisIl2CppObject_m3813873105_gshared
xga:__ZNSt3__23mapIN9ShaderLab16FastPropertyNameEN18UnityPropertySheet11UnityTexEnvENS_4lessIS2_EENS_9allocatorINS_4pairIKS2_S4_EEEEEixERS9_
xta:__ZNK13TranslateGLES25GetTextureTargetDimensionEj
uWf:_Locale_GetText_m1954433032
WOe:_InputField_SetToCustom_m250029371
J$e:_Array_InternalArray__set_Item_TisByte_t3683104436_m1694926640_gshared
Urf:_Collection_1_System_Collections_IList_Contains_m1897568526_gshared
Tqh:_FieldBuilder_get_FieldType_m2267463269
B8d:_SimpleEnumerator_Clone_m3032847657
tlj:_PatternCompiler_EmitInfo_m597931026
i6f:_ModulusRing_Multiply_m3113924743
hjc:__Z47Texture2D_CUSTOM_INTERNAL_CALL_GetPixelBilinearP12Il2CppObjectffR10ColorRGBAf
Tcg:_Context_get_ServerSettings_m225713600
Mi:_emscripten_glVertexAttrib4f
QCj:_InvokableCall_1_remove_Delegate_m3576859071_gshared
fwf:_ReadOnlyCollection_1_System_Collections_IEnumerable_GetEnumerator_m531171980_gshared
_Vb:__ZNSt3__26vectorIN20GpuProgramParameters14ConstantBufferENS_9allocatorIS2_EEE8__appendEj
n2e:_Array_Sort_TisUILineInfo_t3621277874_m3105833015_gshared
TYb:__Z15tessGetElementsP14TESStesselator
DUa:__ZN11HaloManager21ReleaseGeometryJobMemEP25DynamicVBOGeometryJobData
Oaf:_List_1_AddEnumerable_m2489692396_gshared
FYg:__ZL93TextGenerator_t647235000_CustomAttributesCacheGenerator_TextGenerator_Dispose_cpp_m1755131202P21CustomAttributesCache
vzj:_WaitForSecondsRealtime__ctor_m1734539010
nBh:_WaitHandle__ctor_m1256161634
zza:__ZN4gles10SetTextureER15DeviceStateGLESjjj19BuiltinSamplerState
Hwa:__ZN9GfxDevice18SetGlobalDepthBiasEff
kij:_Identity_get_ChannelSink_m3989446673
Rjd:__ZN6il2cpp6icalls8mscorlib6System8MonoType12get_AssemblyEP20Il2CppReflectionType
gKe:_FontData_get_richText_m2013560754
f0d:_SecurityException_get_PermissionType_m3543350822
Zi:_emscripten_glGetPointerv
hu:__ZN8Animator22ApplyBuiltinRootMotionEv
DCd:__ZN15dense_hashtableI10KeyWrapperIP18Il2CppGenericClassES3_N6il2cpp8metadata22Il2CppGenericClassHashEN14dense_hash_setIS3_S6_NS3_14EqualsComparerINS5_25Il2CppGenericClassCompareEEENSt3__29allocatorIS3_EEE8IdentityESA_SD_E5clearEv
DBd:__ZN30dense_hashtable_const_iteratorINSt3__24pairIK10KeyWrapperIP14Il2CppIUnknownEjEES5_N6il2cpp5utils11PointerHashIS3_EEN14dense_hash_mapIS5_jSB_NS5_14EqualsComparerINS0_8equal_toIS4_EEEENS0_9allocatorIS7_EEE9SelectKeyESG_SI_EppEv
Kqb:__ZN8Renderer23VirtualRedirectTransferER14SafeBinaryRead
Iph:_DerivedType_get_UnderlyingSystemType_m3904230233
WBe:_PointerEventData_get_rawPointerPress_m448871540
ybh:__ZL76BackgroundController_t3717954812_CustomAttributesCacheGenerator_leftBoundaryP21CustomAttributesCache
HEi:__Z135RuntimeInvoker_IntPtr_t_Il2CppObject_Int32_t2071877448_Int32_t2071877448_Int32_t2071877448_Int32_t2071877448_MonoIOErrorU26_t1029615899PK10MethodInfoPvPS2_
XSa:__Z27ConvertSubMeshesToTrianglesR13dynamic_arrayI7SubMeshLj4EERS_ItLj2EE
mmc:__ZN5IMGUI14GUIWindowStateD2Ev
Vab:__ZL13MotionHandleriPK27EmscriptenDeviceMotionEventPv
Fpg:_X509Certificate2Collection__ctor_m819526826
IUg:__ZL114PlayableHandle_t1502856514_CustomAttributesCacheGenerator_PlayableHandle_INTERNAL_CALL_IsValidInternal_m2792360706P21CustomAttributesCache
ZH:__ZN12AudioManager5ResetEv
v7f:_KeyBuilder_Key_m3814433741
a5f:_ArgumentException__ctor_m158205422
PWe:_Array_compare_TisVector3_t2243707580_m3709184876_gshared
yMe:_HorizontalLayoutGroup_SetLayoutHorizontal_m3237355818
_t:__ZN7mecanim5human14RetargetToTDoFEPKNS0_5HumanEPNS0_9HumanPoseEPNS_8skeleton13SkeletonPoseTIN4math4trsXEEESB_
LJd:__ZN6il2cpp6icalls8mscorlib6System11Environment20GetWindowsFolderPathEi
w9g:__ZL60AspectRatioFitter_t3114550109_CustomAttributesCacheGeneratorP21CustomAttributesCache
zy:__ZN7mecanim5human18HumanPoseBlendNodeERNS0_9HumanPoseEPS1_f
ZTc:_UNITY_FT_RoundFix
hWb:__ZN9ShaderLab20SerializedSubProgram15AddTextureParamEPKcii16TextureDimension
Pr:__ZNK8Animator26GetTypeInfoVirtualInternalEv
tQ:__ZN23CloudWebServicesManager23VirtualRedirectTransferER17RemapPPtrTransfer
pof:__ZN21InterfaceFuncInvoker1Ib40CustomAttributeTypedArgument_t1498197914E6InvokeEjP11Il2CppClassP12Il2CppObjectS0_
upj:_Uri_get_Parser_m2250631932
T7i:_Event_GetHashCode_m2214628668
mJj:__ZL24UnresolvedVirtualCall_63P12Il2CppObjectS0_S0_S0_PK10MethodInfo
yKe:_Graphic_set_color_m646149893
p4h:_Dictionary_2_System_Collections_ICollection_get_IsSynchronized_m960517203_gshared
Rga:__ZN14SafeBinaryRead19TransferSTLStyleMapINSt3__23mapIN4core12basic_stringIcNS3_20StringStorageDefaultIcEEEES7_NS1_4lessIS7_EE13stl_allocatorINS1_4pairIKS7_S7_EEL18MemLabelIdentifier1ELi16EEEEEEvRT_17TransferMetaFlags
VFh:_Type_MakeByRefType_m1323101575
X$c:__ZN2UI6Canvas27UpdateEventIndexesRecursiveERi
wx:__ZN7mecanim9animation18EvaluateRootMotionERKNS0_18ClipMuscleConstantERKNS0_15ClipMuscleInputEPKfS8_RNS0_12MotionOutputEb
nR:__ZN11UnityEngine15CloudWebService16SessionContainer21PrepareDataErrorEventERN4core12basic_stringIcNS2_20StringStorageDefaultIcEEEE
_Pc:_UNITY_FT_Outline_New
DKd:__ZNSt3__218uninitialized_copyIPNS_4pairIK10KeyWrapperIPK19Il2CppGenericMethodEP10MethodInfoEESB_EET0_T_SD_SC_
j_g:__ZL85GUI_t4082743951_CustomAttributesCacheGenerator_GUI_set_nextScrollStepTime_m2724006954P21CustomAttributesCache
DMb:__Z19TransferField_ArrayI19StreamedBinaryWriteILb0EE27Converter_SimpleNativeClassI8GUIStyleEEvRK23StaticTransferFieldInfoR31RuntimeSerializationCommandInfoRT0_
bPg:__ZL101AssetBundleRequest_t2674559435_CustomAttributesCacheGenerator_AssetBundleRequest_get_asset_m624603186P21CustomAttributesCache
lW:__ZNK13ScreenManager12GetIsFocusedEv
h9g:__ZL70SpriteState_t1353336012_CustomAttributesCacheGenerator_m_PressedSpriteP21CustomAttributesCache
Peh:_RemotingServices_RegisterInternalChannels_m1827304423
mPh:_GUIStyle_get_onNormal_m1675201777
kr:__ZL32CleanupAnimationScriptingClassesv
rid:__ZNSt3__213__vector_baseIN6il2cpp2os19SocketHandleWrapperENS_9allocatorIS3_EEED2Ev
r_f:_ASN1_get_Length_m3359111015
COh:_GUISkin_get_verticalScrollbarThumb_m649633186
jRh:_GUIStyleState_Cleanup_m705006206
ic:invoke_viiffi
A7a:__ZN13sorted_vectorINSt3__24pairIN4core12basic_stringIcNS2_20StringStorageDefaultIcEEEEPK17MessageIdentifierEEN10vector_mapIS6_S9_NS0_4lessIS6_EENS0_9allocatorISA_EEE13value_compareESF_E10insert_oneERKSA_
fu:__ZNSt3__227__insertion_sort_incompleteIRPFbPKN8Animator11AnimatorJobES4_EPS4_EEbT0_S9_T_
dCh:_Thread_GetCachedCurrentUICulture_m5590127
hnb:__ZNK12CubemapArray20GetRuntimeMemorySizeEv
Eyj:_Vector3_Dot_m3161182818
Zfj:_CrossAppDomainSink_get_TargetDomainId_m775204051
dUb:__Z14resize_trimmedINSt3__26vectorIN9ShaderLab18SerializedPropertyENS0_9allocatorIS3_EEEEEvRT_j
$Kj:__ZL25UnresolvedVirtualCall_158P12Il2CppObject18Color32_t874517518PK10MethodInfo
rkf:_List_1_CheckMatch_m4018158235_gshared
AVi:__Z91RuntimeInvoker_Int32_t2071877448_UICharInfo_t3056636800_UICharInfo_t3056636800_Il2CppObjectPK10MethodInfoPvPS2_
oYf:_Context_t2636657155_marshal_pinvoke_back
lgd:__ZN6il2cpp2vm13MetadataCache38GetMethodInfoFromMethodDefinitionIndexEi
Tae:_Byte_System_IConvertible_ToDateTime_m1583041031
rJj:__ZL24UnresolvedVirtualCall_68P12Il2CppObjectS0_iS0_S0_S0_S0_S0_S0_PK10MethodInfo
tsb:__ZN10VertexData8TransferI24GenerateTypeTreeTransferEEvRT_
TZg:__ZL98CanvasRenderer_t261436805_CustomAttributesCacheGenerator_CanvasRenderer_get_absoluteDepth_m4243141P21CustomAttributesCache
iKd:__ZN13Il2CppHashMapIPK19Il2CppGenericMethodP10MethodInfoN6il2cpp8metadata23Il2CppGenericMethodHashENS6_26Il2CppGenericMethodCompareENSt3__29allocatorINS9_4pairIK10KeyWrapperIS2_ES4_EEEEEC2EjRKS7_RKS8_
i2f:_EncryptedData_get_EncryptionAlgorithm_m1301274243
h8h:_EqualityComparer_1_System_Collections_IEqualityComparer_Equals_m1089835085_gshared
r0a:__ZL10CullLightsRK22SceneCullingParametersR11CullResults
EJe:_Dropdown__cctor_m264401557
KXi:__Z94RuntimeInvoker_Void_t1841601450_Int32U5BU5DU26_t1341332175_Int32_t2071877448_Int32_t2071877448PK10MethodInfoPvPS2_
U7d:_Array_IndexOf_m2819632474
Jwi:_Comparer_1__cctor_m3996541505_gshared
cz:__ZN7mecanim12statemachine20GetBlendTreeConstantERKNS0_13StateConstantEi
M5b:__Z40GetTemporaryCachePathApplicationSpecificv
Uua:__ZN9GfxDevice16EndAsyncJobFrameEv
GNe:_Image_get_minWidth_m1809071077
psd:__ZNK15dense_hashtableINSt3__24pairIK10KeyWrapperINS1_IPK12PropertyInfoP11Il2CppClassEEEjEES9_17ReflectionMapHashIS8_EN14dense_hash_mapIS9_jSD_NS9_14EqualsComparerINS0_8equal_toIS8_EEEENS0_9allocatorISB_EEE9SelectKeyESI_SK_E10test_emptyERK30dense_hashtable_const_iteratorISB_S9_SD_SM_SI_SK_E
UQc:_UNITY_tt_face_load_hhea
cCb:__ZN24RingBufferMemoryFileData11SetGrowableEb
A8i:_PersistentCall__ctor_m2079279187
ike:_Convert_ToBase64String_m1936815455
Sk:___syscall3
Vk:___syscall6
iwa:__ZN9GfxDevice15GetNextCPUFenceEv
Xk:___syscall4
$se:_Decimal_ToString_m759431975
Lsf:_Collection_1_System_Collections_IList_get_IsFixedSize_m2204750039_gshared
nFe:_ColorBlock_get_fadeDuration_m987725262
J7g:__ZL195U3CMouseDragOutsideRectU3Ec__Iterator1_t2599668326_CustomAttributesCacheGenerator_U3CMouseDragOutsideRectU3Ec__Iterator1_System_Collections_Generic_IEnumeratorU3CobjectU3E_get_Current_m2602955272P21CustomAttributesCache
_Dd:__ZN6il2cpp2vm3RCW14QueryInterfaceILb1EEEP14Il2CppIUnknownP15Il2CppComObjectRK10Il2CppGuid
Ojh:_CryptographicException__ctor_m2415891459
VFc:__ZNSt3__26__sortIR24RayHitsByDepthComparitorP12RaycastHit2DEEvT0_S5_T_
Uwc:__ZN27PerformanceReportingManager23VirtualRedirectTransferER14SafeBinaryRead
zef:_List_1_AddCollection_m3266731889_gshared
Tac:__ZN9Scripting25BroadcastScriptingMessageER10GameObjectPKc18ScriptingObjectPtr
kl:_emscripten_glShaderBinary
kpf:_Collection_1_System_Collections_IList_set_Item_m150887383_gshared
a1e:_Array_qsort_TisVector2_t2243707579_TisVector2_t2243707579_m3308480721_gshared
W6d:_Array_InternalArray__RemoveAt_m1126483634
E3i:_Camera_INTERNAL_CALL_RaycastTry_m1030092423
mX:__ZNK20LocalFileSystemPosix6ExistsERK13FileEntryData
mpi:_InternalEnumerator_1_Dispose_m4038440306_AdjustorThunk
AWh:_RangeInt_get_end_m913869897
wjg:_DictionaryNodeEnumerator_get_DictionaryNode_m3521889822
Nu:__ZN7mecanim5human19MaskHasLeftFootGoalERKNS_6bitsetILj70EEE
bUh:_Mesh_get_colors32_m4153271224
nHc:__ZNK17Physics2DSettings26GetTypeInfoVirtualInternalEv
p3c:__Z58Register_UnityEngine_Canvas_GetETC1SupportedCanvasMaterialv
WVh:_Physics2D_INTERNAL_CALL_GetRayIntersectionAll_m161475998
GOb:__ZN17AnimationCurveTplIfE8TransferI18StreamedBinaryReadILb1EEEEvRT_
jre:_DateTimeOffset_GetHashCode_m3312197462_AdjustorThunk
Y6c:__ZN18UnityConnectClientD2Ev
_lg:_ServicePoint_set_UseNagleAlgorithm_m2618011464
pld:_il2cpp_set_data_dir
ppj:_Uri_get_IsUnc_m2111738174
Ahb:__ZN16LevelGameManager23VirtualRedirectTransferER19StreamedBinaryWriteILb0EE
psb:__Z32TransferEnumWithNameForceIntSizeI14SafeBinaryRead16GfxPrimitiveTypeEvRT_RT0_PKc17TransferMetaFlags
rvi:_DefaultComparer__ctor_m1961329658_gshared
zGf:_NumberFormatInfo_get_NumberDecimalDigits_m3706097953
Hwj:_TouchScreenKeyboard_get_done_m406461410
Luj:_DataUtility_INTERNAL_CALL_GetPadding_m1621366113
gOh:_GUISkin_get_toggle_m4153935270
BLj:__ZL25UnresolvedVirtualCall_186P12Il2CppObject20TimeSpan_t3430258949PK10MethodInfo
h6c:__ZN11UnityEngine15PlatformWrapper30GetGraphicsDriverLibraryStringEv
XYg:__ZL51UIVertex_t1204258818_CustomAttributesCacheGeneratorP21CustomAttributesCache
Uxj:_Vector2_ToString_m775491729
$ef:_List_1_get_Count_m1752597149_gshared
D8f:_EncryptedPrivateKeyInfo_Decode_m1706190306
IPb:__Z18Transfer_BlittableI18StreamedBinaryReadILb0EELb0E4AABBEvRK29SerializationCommandArgumentsR31RuntimeSerializationCommandInfo
qoe:_Convert_ToUInt16_m1665900934
JDf:_Converter_2_BeginInvoke_m898151494_gshared
V2a:__Z14DrawGUITextureRK5RectTIfEP7Texture11ColorRGBA32P8Materiali
Zhi:_Text_get_supportRichText_m3291105891
GYh:_RectTransform_GetParentSize_m1571597933
Ys:__ZN9BlobWrite8TransferI22OffsetPtrArrayTransferIKN4math7_float4EEEEvRT_PKc17TransferMetaFlags
$Qe:_LayoutElement_set_ignoreLayout_m1530090081
xxc:__ZNK11b2EdgeShape7RayCastEP15b2RayCastOutputRK14b2RayCastInputRK11b2Transformi
jBi:__Z52RuntimeInvoker_Decimal_t724701077_Double_t4078015681PK10MethodInfoPvPS2_
Dkj:_MatchCollection_GetEnumerator_m3516985966
ntc:__ZN9JSONWrite8TransferI4AABBEEvRT_PKc17TransferMetaFlags
dAh:_UTF7Encoding__ctor_m2365939916
BKa:__ZN25MultiBlocksMemoryFileData9SetLengthEy
_M:__Z30GetAudioSpatializerDefinitionsR13dynamic_arrayIP29AudioEffectInternalDefinitionLj4EE
uvj:_TextGenerationSettings_Equals_m3944651893_AdjustorThunk
Sai:_MatEntry__ctor_m3650167335
gSi:__Z143RuntimeInvoker_Void_t1841601450_Il2CppObject_Vector2_t2243707579_Vector2_t2243707579_Color32_t874517518_Vector2_t2243707579_Vector2_t2243707579PK10MethodInfoPvPS2_
WFj:_ListPool_1_U3Cs_ListPoolU3Em__0_m441310157_gshared
XBc:__ZN10Collider2D13AwakeFromLoadE17AwakeFromLoadMode
GAb:__ZNSt3__26vectorIN30RuntimeInitializeOnLoadManager9ClassInfoE13stl_allocatorIS2_L18MemLabelIdentifier12ELi16EEE8__appendEj
Rnb:__ZNK9Texture2D20GetRuntimeMemorySizeEv
$Fh:_TypeInitializationException__ctor_m2993591639
M7h:_EqualityComparer_1__ctor_m3788663378_gshared
HJd:__ZN6il2cpp2gc16GarbageCollector16InvokeFinalizersEv
RFg:__ZL46DES_t1353513560_CustomAttributesCacheGeneratorP21CustomAttributesCache
uIf:_Int16_System_IConvertible_ToInt64_m733340257
jKg:__ZL79Convert_t2607082565_CustomAttributesCacheGenerator_Convert_ToSingle_m2156102599P21CustomAttributesCache
RMc:_UNITY_FT_Outline_Transform
UOh:_SkinChangedDelegate_BeginInvoke_m4259161711
bjc:__Z60Register_UnityEngine_Sprites_DataUtility_Internal_GetMinSizev
Ibd:__ZN6il2cpp2vm5Class10GetMethodsEP11Il2CppClassPPv
eXh:_Rect_get_x_m1393582490_AdjustorThunk
eYa:__Z30AddDefaultStreamsToMeshBuffersR9GfxDeviceR11MeshBuffersRK16DrawBuffersRange17ShaderChannelMaskS6_
Jwg:__ZL65Il2CppArray_CustomAttributesCacheGenerator_Array_Sort_m3500510484P21CustomAttributesCache
i$d:_Hash_GetObjectData_m315532943
bza:__ZN7ApiGLES17DeleteFramebufferERN2gl6HandleILNS0_10ObjectTypeE9EEES3_
xbd:__ZN13dynamic_arrayIP11Il2CppClassLj4EE7reserveEj
PFa:__ZN15UniformTFMethod13MapBoneBufferEj
Qbg:_RecordProtocol_SendAlert_m2816808523
Z_c:__ZN2UI14CanvasRendererD2Ev
Ijj:_MethodCall_get_LogicalCallContext_m3769562079
eyd:__ZN6il2cpp6icalls8mscorlib6System5Array8SetValueEP11Il2CppArrayP12Il2CppObjectS5_
vRf:_SynchronizedReader_Read_m1399666181
Fvh:_MonoEvent_get_Name_m2796714646
naa:__Z9SetupArgviPPKc
XVe:_Array_InternalArray__IEnumerable_GetEnumerator_TisHitInfo_t1761367055_m2486283755_gshared
jCe:_PointerEventData_set_worldNormal_m2025727441
Xcg:_Context_get_SentConnectionEnd_m3114190867
Kcb:__ZN12ImmediatePtrI10GameObjectE8TransferI19StreamedBinaryWriteILb0EEEEvRT_
lnb:__ZN12CubemapArray23VirtualRedirectTransferER24GenerateTypeTreeTransfer
zIj:__ZL24UnresolvedVirtualCall_22P12Il2CppObjectS0_iS0_S0_S0_PK10MethodInfo
l5:__ZN12FileAccessor4OpenER15FileSystemEntry14FilePermission16FileAutoBehavior
Fxf:_ReadOnlyCollection_1__ctor_m2364452928_gshared
bJd:__ZN6il2cpp2os9Directory6CreateERKNSt3__212basic_stringIcNS2_11char_traitsIcEENS2_9allocatorIcEEEEPi
Pha:__ZN4PPtrI6ShaderE8TransferI18StreamedBinaryReadILb0EEEEvRT_
z2a:__ZN23TransformChangeDispatch32QueueTransformChangeIfHasChangedERK15TransformAccess
OBe:_PointerEventData_set_clickTime_m3931922487
YLh:_WindowFunction__ctor_m977095815
QEf:_NumberFormatter_AppendNonNegativeNumber_m629862866
Dia:__ZNSt3__26vectorINS_4pairIN9ShaderLab16FastPropertyNameEN18UnityPropertySheet11UnityTexEnvEEENS_9allocatorIS6_EEE21__push_back_slow_pathIKS6_EEvRT_
PMa:__ZN15ArchiveReadFile5WriteEyPKvPy
odj:_ResourceInfo__ctor_m2401359321_AdjustorThunk
ohe:_Hashtable__ctor_m392789568
OBh:_Mutex_CreateMutex_internal_m2352956576
eAh:_UTF7Encoding__cctor_m4192443836
ooc:__Z31GUIStyle_CUSTOM_SetFontInternalP12Il2CppObjectS0_
B:tempValue
r9a:__Z29StdTemplateConversionFunctionIaiEbPvR14SafeBinaryRead
yIf:_Int16_System_IConvertible_ToSingle_m3277935657
J_:__Z29scripting_class_from_fullnamePKcS0_S0_
YQg:__ZL97GameObject_t1756533147_CustomAttributesCacheGenerator_GameObject_GetComponentInParent_m1235194528P21CustomAttributesCache
Lci:_Raycast3DCallback_Invoke_m2271859924
Bz:__ZN26AnimatorControllerPlayable18DeallocateBindingsEv
vN:__ZN11AudioSource19CreateOpenALRolloffEfff
Igd:__ZN15dense_hashtableINSt3__24pairIK10KeyWrapperIPKcEP11Il2CppClassEES5_N6il2cpp5utils11StringUtils12StringHasherIS4_EEN14dense_hash_mapIS5_S8_SE_NS5_14EqualsComparerINSC_21CaseSensitiveComparerEEENS0_9allocatorIS9_EEE9SelectKeyESI_SK_E12resize_deltaEjj
HRc:_UNITY_FT_Stream_ReadAt
kUg:__ZL111Object_t1021602117_CustomAttributesCacheGenerator_Object_DestroyImmediate_m3563317232____allowDestroyingAssets1P21CustomAttributesCache
fpa:__ZN9Texture3D34UpdateFileTextureUploadInstructionEP28FileTextureUploadInstructionj
OPh:_GUIStyle_get_lineHeight_m2132859383
PVi:__Z102RuntimeInvoker_Int32_t2071877448_Il2CppObject_UIVertex_t1204258818_Int32_t2071877448_Int32_t2071877448PK10MethodInfoPvPS2_
FVg:__ZL82Physics2D_t2540166467_CustomAttributesCacheGenerator_Physics2D_Raycast_m1220041042P21CustomAttributesCache
W8i:_UnityEvent_FindMethod_Impl_m3303953986
eGh:_UInt16_System_IConvertible_ToBoolean_m887616848
sPg:__ZL120ScriptableObject_t1975622470_CustomAttributesCacheGenerator_ScriptableObject_Internal_CreateScriptableObject_m1778903390P21CustomAttributesCache
ZO:__ZN11AudioModule22CreateAudioClipFromWWWEP10IWWWStreamPKcbbi
czi:__Z142RuntimeInvoker_Boolean_t3825574718_Il2CppObject_Int32_t2071877448_Il2CppObject_SByte_t454417549_UInt32U26_t2197289955_ExceptionU26_t1467204777PK10MethodInfoPvPS2_
Qyh:_StringBuilder_set_Length_m3039225444
Esf:_Collection_1_System_Collections_IList_Contains_m3870109702_gshared
qTe:_Array_InternalArray__ICollection_Contains_TisRaycastResult_t21186376_m3188614988_gshared
$oe:_CultureAwareComparer_GetHashCode_m3681260951
W0c:__Z13RegisterClassIN2UI11CanvasGroupEEvv
zFj:_U3CStartU3Ec__Iterator0__ctor_m951808111_gshared
vf:_emscripten_glClear
Uci:_Selectable__ctor_m1440593935
UOd:_GC_initialize_offsets
k5b:__ZNK8Playable6HandleEv
rwg:__ZL65Il2CppArray_CustomAttributesCacheGenerator_Array_Clear_m782967417P21CustomAttributesCache
sSj:___cxa_guard_abort
_nh:_CustomAttributeTypedArgument_t1498197914_marshal_pinvoke_back
y3:__ZN14MessageHandler28MessageIDToMessageIdentifierEi
Pkg:_HttpRequestCreator_Create_m3607509610
y_g:__ZL50GUISkin_t1436893342_CustomAttributesCacheGeneratorP21CustomAttributesCache
VJj:__ZL24UnresolvedVirtualCall_98P12Il2CppObject8IntPtr_tPK10MethodInfo
slf:_List_1_Shift_m3824049528_gshared
Afh:_ArrayFixupRecord__ctor_m3659990982
hdg:_Context_get_RandomCS_m3946020109
nvg:__ZL72IntPtr_t_CustomAttributesCacheGenerator_IntPtr_op_Inequality_m3044532593P21CustomAttributesCache
QIe:_Dropdown_get_onValueChanged_m3334401942
VQd:__ZN6il2cpp2vm10WaitHandle19NewManualResetEventEb
Yyf:_ReadOnlyCollection_1_System_Collections_IList_Contains_m3707723158_gshared
bKh:_Version_GetHashCode_m880841176
Q$i:_CustomEventData_Add_m4160204358
cE:__Z51Register_UnityEngine_Animator_get_hasBoundPlayablesv
aBj:_Nullable_1_ToString_m1238126148_AdjustorThunk
Md:emscriptenWebGLGetUniform
Ao:FUNCTION_TABLE_iiiiiiiiiii
Npa:__Z32TransferEnumWithNameForceIntSizeI14SafeBinaryRead13TextureFormatEvRT_RT0_PKc17TransferMetaFlags
j8g:__ZL86Scrollbar_t3248359358_CustomAttributesCacheGenerator_Scrollbar_ClickRepeat_m3403943364P21CustomAttributesCache
U1a:__ZL10CleanUpJobP20CullingGroupsJobData
Dce:_Char_CompareTo_m3044885427_AdjustorThunk
xNf:_FileStream_GetSecureFileName_m508045384
dYa:__Z20IsRunningNativeTestsv
nri:_InternalEnumerator_1_System_Collections_IEnumerator_get_Current_m2035754659_AdjustorThunk
pvb:__ZN10MeshFilter23VirtualRedirectTransferER24GenerateTypeTreeTransfer
O2a:__ZN13RenderManager15BatchModeUpdateEv
CBj:_Predicate_1_EndInvoke_m973058386_gshared
nSg:__ZL52LayerMask_t3188175821_CustomAttributesCacheGeneratorP21CustomAttributesCache
lpf:_Collection_1_Add_m3985367602_gshared
qtb:__ZN14SafeBinaryRead21TransferSTLStyleArrayI13dynamic_arrayI8Vector2fLj4EEEEvRT_17TransferMetaFlags
yia:__ZN17PersistentManager51InstanceIDToLocalSerializedObjectIdentifierInternalEiR31LocalSerializedObjectIdentifier
$Dc:__ZN10ClipperLib7Clipper15SetWindingCountERNS_5TEdgeE
_xh:_StrongNameKeyPair_System_Runtime_Serialization_IDeserializationCallback_OnDeserialization_m2330221363
LWc:_UNITY_FT_Create_Class_cff_services
pvi:_DefaultComparer__ctor_m1661558765_gshared
pd:_glVertexAttribIPointer
vJh:_UnhandledExceptionEventHandler_EndInvoke_m2207457167
U1h:_Dictionary_2_System_Collections_ICollection_get_IsSynchronized_m304009368_gshared
Blh:_HMAC_set_HashName_m457235014
z8b:__ZNK6Sprite10GetPaddingE20SpriteRenderDataMode
BSe:_Array_InternalArray__ICollection_Contains_TisTableRange_t2011406615_m605506746_gshared
o2h:_Dictionary_2_Add_m1296007576_gshared
Bbh:__ZL76BacteriaController_t268947989_CustomAttributesCacheGenerator_horizontalSpeedP21CustomAttributesCache
_ne:_Decimal_op_Explicit_m729046406
Yjh:_CryptoConfig_CreateFromName_m2169102076
YKe:_Graphic_OnEnable_m2900261811
$jh:_CryptographicUnexpectedOperationException__ctor_m3552441227
zbj:_AnimatorControllerPlayable_GetAnimatorClipInfoCountInternal_m826336390
oee:_ArrayListWrapper_Clear_m321161741
$Pe:_InputField_LineDownCharacterPosition_m2690468785
GRc:_UNITY_ft_glyphslot_alloc_bitmap
JYi:__Z56RuntimeInvoker_ContentType_t1028629049_Int32_t2071877448PK10MethodInfoPvPS2_
r2e:_Array_Sort_TisVector2_t2243707579_TisVector2_t2243707579_m2582252549_gshared
eIh:_UInt64_System_IConvertible_ToDouble_m2828923873
iEi:__Z45RuntimeInvoker_Il2CppObject_Int16_t4041245914PK10MethodInfoPvPS2_
ked:__ZN15dense_hashtableI10KeyWrapperIPK17Il2CppGenericInstES4_N6il2cpp8metadata21Il2CppGenericInstHashEN14dense_hash_setIS4_S7_NS4_14EqualsComparerINS6_24Il2CppGenericInstCompareEEENSt3__29allocatorIS4_EEE8IdentityESB_SE_E16reset_thresholdsEv
L$b:__ZZN2UI13RectTransform15InitializeClassEvEN31FunctorImpl_62kTransformChanged4CallEPviR11MessageData
qgf:_List_1_System_Collections_IList_set_Item_m1129584681_gshared
aTc:_ft_raster1_render
eic:__Z57Register_UnityEngine_RectTransform_INTERNAL_set_anchorMaxv
kbf:_List_1_set_Capacity_m491101164_gshared
cRj:__ZNKSt3__221__basic_string_commonILb1EE20__throw_length_errorEv
mzh:_StringBuilder_Insert_m1733097906
EKi:__Z88RuntimeInvoker_Void_t1841601450_Il2CppObject_Int32_t2071877448_Il2CppObject_Il2CppObjectPK10MethodInfoPvPS2_
Mwi:_Comparer_1__ctor_m1157133632_gshared
Ehg:_SslStreamBase_get_HashStrength_m480059173
uEa:__ZN18GfxFramebufferGLES13ReadbackImageER14ImageReferenceiiiiii
M0h:_ValueCollection_System_Collections_Generic_ICollectionU3CTValueU3E_Clear_m3271993638_gshared
Vje:_Enumerator_MoveNext_m1419609883
mJ:__ZN4FMOD7Channel19setReverbPropertiesEPK29FMOD_REVERB_CHANNELPROPERTIES
Z2:__ZN13MonoBehaviour22GetScriptFullClassNameEv
Emd:_il2cpp_object_get_class
sAg:__ZL111DerivedType_t1016359113_CustomAttributesCacheGenerator_DerivedType_MakeGenericType_m742223168____typeArguments0P21CustomAttributesCache
tBf:_ReadOnlyCollection_1_Contains_m1816350632_gshared
Zkg:_ServicePointManager_FindServicePoint_m3137356168
$yh:_StringBuilder_Append_m3541816491
Eoa:__ZN20SphericalHarmonicsL211AddWeightedERKS_f
BCe:_PointerInputModule_GetPointerData_m1695674453
yJb:__Z19TransferField_ArrayI17RemapPPtrTransfer27Converter_SimpleNativeClassI8GUIStyleEEvRK23StaticTransferFieldInfoR31RuntimeSerializationCommandInfoRT0_
d1:__ZL22StaticInitializeShaderPv
Woe:_Convert_ToUInt64_m345450801
dBj:_Predicate_1_BeginInvoke_m2559992383_gshared
LXe:_Array_InternalArray__IndexOf_TisIl2CppObject_m2440219229_gshared
yqc:__ZN9JSONWrite8TransferI10ColorRGBAfEEvRT_PKc17TransferMetaFlags
XWi:__Z52RuntimeInvoker_Void_t1841601450_Keyframe_t1449471340PK10MethodInfoPvPS2_
axf:_ReadOnlyCollection_1_get_Item_m1909688500_gshared
s3:__Z25scripting_method_get_name18ScriptingMethodPtr
nic:__Z35Register_UnityEngine_Resources_Loadv
hIb:__Z19TransferField_ArrayI14SafeBinaryRead16Converter_StringEvRK23StaticTransferFieldInfoR31RuntimeSerializationCommandInfoRT0_
xQj:_rename
WOd:_GC_exit_check
sVf:_NotSupportedException__ctor_m3232764727
nkg:_TypeConverterAttribute_Equals_m2330345916
m$g:__ZL86GUIStyle_t1799908754_CustomAttributesCacheGenerator_GUIStyle_get_alignment_m3513439031P21CustomAttributesCache
X1:__Z20UnlockObjectCreationv
YLi:__Z55RuntimeInvoker_Il2CppObject_RegexOptionsU26_t3063574985PK10MethodInfoPvPS2_
ZMf:_MonoIO_CreateDirectory_m379525469
IWe:__ZN21InterfaceFuncInvoker2Ii22UILineInfo_t3621277874S0_E6InvokeEjP11Il2CppClassP12Il2CppObjectS0_S0_
Ps:__ZN9BlobWrite8TransferI22OffsetPtrArrayTransferI9OffsetPtrIN7mecanim12statemachine18StateMachineMemoryEEEEEvRT_PKc17TransferMetaFlags
bPc:_UNITY_ft_smooth_renderer_class_pic_free
ajf:_List_1_System_Collections_IList_Remove_m3763718607_gshared
J2i:_Bounds_get_center_m129401026
mf:_emscripten_glStencilOpSeparate
l2d:_String_Concat_m2000667605
s4i:_CanvasRenderer_GetColor_m3395389094
rId:__ZN6il2cpp2os10ThreadImpl12QueueUserAPCEPFvPvES2_
nG:__Z32TransferEnumWithNameForceIntSizeI14SafeBinaryReadN10SampleClip17CompressionFormatEEvRT_RT0_PKc17TransferMetaFlags
P6c:__ZN22BaseUnityConnectClient10QueueEventERN11UnityEngine15CloudWebService17CloudServiceEventEPKcjb
UTh:_Mesh_DefaultDimensionForChannel_m153181993
ugf:__ZN23InterfaceActionInvoker2IP28UICharInfoU5BU5D_t2749705857iE6InvokeEjP11Il2CppClassP12Il2CppObjectS1_i
gSg:__ZL81Input_t1785128008_CustomAttributesCacheGenerator_Input_get_touchCount_m2050827666P21CustomAttributesCache
xYd:_SHA384Managed_unpackWord_m2501009050
BYc:_UNITY_FT_Hypot
h9d:_BitConverter_ToInt64_m1329623425
r0b:__ZN8RendererC2E12RendererType18MemLabelIdentifier18ObjectCreationMode
xHg:__ZL95ASCIIEncoding_t3022927988_CustomAttributesCacheGenerator_ASCIIEncoding_GetByteCount_m1396020051P21CustomAttributesCache
Sld:_il2cpp_class_is_abstract
V3g:__ZL92PointerEventData_t1599784723_CustomAttributesCacheGenerator_U3CpointerDragU3Ek__BackingFieldP21CustomAttributesCache
Ff:_emscripten_glGetError
$J:__Z14FMOD_FILE_SeekPvjS_
cjj:_MethodCall_get_Properties_m1893707917
Kvg:__ZL72Enum_t2459695545_CustomAttributesCacheGenerator_Enum_ToObject_m604645223P21CustomAttributesCache
y_h:_ShimEnumerator_get_Entry_m2387156530_gshared
J4c:__Z56Register_UnityEngine_Analytics_CustomEventData_AddStringv
w3a:__ZNK13RenderTexture32CalculateNeedsInvertedProjectionEv
hbb:__ZN10systeminfo18GetOperatingSystemEv
Nf:emscriptenWebGLGet
RXh:_Rect_GetHashCode_m559954498_AdjustorThunk
r5:__Z19CanReplaceComponentRN5Unity9ComponentEPKNS_4TypeEPN4core12basic_stringIcNS5_20StringStorageDefaultIcEEEE
Y1b:__ZN12CubemapArray11InitTextureEiii13TextureFormatb
phf:_List_1_GrowIfNeeded_m2433342921_gshared
hwj:_Texture_INTERNAL_get_texelSize_m3180609662
qac:__Z17GetSceneBuildInfoRKN4core12basic_stringIcNS_20StringStorageDefaultIcEEEEiR14SceneBuildInfo
ZNi:__Z36RuntimeInvoker_Matrix4x4_t2933234003PK10MethodInfoPvPS2_
AJa:__ZNK15Lz4Decompressor20DecompressStreamInitEPPv
Bqd:__ZN24dense_hashtable_iteratorINSt3__24pairIK10KeyWrapperIPK10Il2CppTypeEjEES6_N6il2cpp8metadata14Il2CppTypeHashEN14dense_hash_mapIS6_jSB_NS6_14EqualsComparerINSA_26Il2CppTypeEqualityComparerEEENS0_9allocatorIS8_EEE9SelectKeyESF_SH_E30advance_past_empty_and_deletedEv
Pof:_Collection_1_set_Item_m3803272710_gshared
gUh:_Mesh_SetUVs_m841280343
Qwh:_MonoMethodInfo_t3646562144_marshal_pinvoke_cleanup
pog:_X509Certificate2_get_SignatureAlgorithm_m3069898012
Okg:_HttpRequestCreator__ctor_m2513916021
WE:__Z105Register_UnityEngine_Experimental_Director_AnimatorControllerPlayable_INTERNAL_CALL_GetLayerCountInternalv
EKf:_Int64_System_IConvertible_ToSingle_m1678482180
WGi:__Z54RuntimeInvoker_Il2CppObject_IntPtr_t_Int32_t2071877448PK10MethodInfoPvPS2_
xQh:_GUIStyle_INTERNAL_CALL_Internal_CalcSizeWithConstraints_m1203344891
xt:__ZN7mecanim5human13HumanFixTwistEPKNS0_5HumanEPNS_8skeleton13SkeletonPoseTIN4math4trsXEEES9_iiRKf
OYa:__ZL24AssignProjectorQueuesJobP30AssignProjectorQueuesJobHeader
vDh:_TimeSpan_get_Hours_m3804628138
fKe:_FontData_set_alignByGeometry_m2819509290
K_c:__ZN2UI11CanvasGroupD0Ev
Mlj:_Regex__ctor_m3250610064
eWb:__ZN9ShaderLab20SerializedSubProgram14SetConstBufferEPKci
knd:__ZN6il2cpp2os4File5CloseEPNS0_10FileHandleEPi
cfd:__ZNSt3__27__sort5IRN6il2cpp5utils11collections13ArrayValueMapIPK10Il2CppType17Il2CppInteropData26InteropDataToTypeConverterNS1_8metadata14Il2CppTypeLessENSA_26Il2CppTypeEqualityComparerEE12SortComparerEPS8_EEjT0_SH_SH_SH_SH_T_
Lch:_SoapAttribute_SetReflectionObject_m2774156012
hAj:_Check_Source_m3385315029
fDj:_InvokableCall_4_Find_m1467690987_gshared
cDf:_Comparison_1_Invoke_m345024424_gshared
aVc:_cf2_getStdVW
eAf:_ReadOnlyCollection_1_System_Collections_IList_Insert_m3936197025_gshared
Awe:_EventHandler_BeginInvoke_m3027583606
IV:__Z40DebugStringToFilePostprocessedStacktraceRK21DebugStringToFileData
Zuc:__Z29Transfer_Blittable_ArrayFieldI8JSONReadjEvRT_R9ArrayInfoRK23StaticTransferFieldInfo
Wuj:_StateMachineBehaviour_OnStateEnter_m1095276890
wVh:_Object_GetInstanceID_m1920497914
aPd:_GC_check_finalizer_nested
Pqi:_InternalEnumerator_1_get_Current_m314017974_AdjustorThunk
ycj:_AnimatorControllerPlayable_Play_m1337154648
sg:__setLetterbox
FOf:_MemoryStream__ctor_m1043059966
Pia:__ZNSt3__26__treeINS_12__value_typeIN9ShaderLab16FastPropertyNameEfEENS_19__map_value_compareIS3_S4_NS_4lessIS3_EELb1EEENS_9allocatorIS4_EEE12__find_equalIS3_EERPNS_16__tree_node_baseIPvEENS_21__tree_const_iteratorIS4_PNS_11__tree_nodeIS4_SE_EEiEESH_RKT_
Rvj:_TextGenerator_Populate_Internal_m1817393161
Iyg:__ZL57CollectionBase_t1101587467_CustomAttributesCacheGeneratorP21CustomAttributesCache
jch:__ZN21InterfaceFuncInvoker3IP12Il2CppObjectP6Type_t28StreamingContext_t1417235061PS1_E6InvokeEjP11Il2CppClassS1_S3_S4_S5_
kub:__ZNSt3__26vectorI17BlendShapeChannelNS_9allocatorIS1_EEE6assignINS_11__wrap_iterIPS1_EEEENS_9enable_ifIXaasr21__is_forward_iteratorIT_EE5valuesr16is_constructibleIS1_NS_15iterator_traitsISA_E9referenceEEE5valueEvE4typeESA_SA_
iRe:_LayoutElement_set_preferredWidth_m3072758716
bEj:_UnityEvent_1_AddListener_m1708363187_gshared
_mg:_AsnEncodedData_ToString_m724151831
d3a:__ZN11TimeManager11GetRealtimeEv
Knf:_Collection_1_System_Collections_IList_get_IsFixedSize_m2408637569_gshared
G$f:_KeyPairPersistence_get_Filename_m152060602
tOd:_GC_print_block_list
mK:__ZN29AudioEffectInternalDefinitionC2EP26UnityAudioEffectDefinitionb
rvh:_MonoMethodInfo_GetDeclaringType_m4186531677
jdh:_SoapTypeAttribute_SetReflectionObject_m1566293812
M5h:_DefaultComparer__ctor_m418731767_gshared
_A:__ZN4PPtrI6AvatarE8TransferI18StreamedBinaryReadILb0EEEEvRT_
wHj:_Enumerator_System_Collections_IEnumerator_Reset_m2573763156_AdjustorThunk
Yeh:_RemotingServices_CreateClientProxy_m1631035355
KIh:_UInt64_ToString_m2892887310
z$g:__ZL88GUIStyle_t1799908754_CustomAttributesCacheGenerator_GUIStyle_set_fixedHeight_m1517737608P21CustomAttributesCache
X1d:_String_System_IConvertible_ToType_m512800076
pKd:__ZN15dense_hashtableINSt3__24pairIK10KeyWrapperIPK19Il2CppGenericMethodEP10MethodInfoEES6_N6il2cpp8metadata23Il2CppGenericMethodHashEN14dense_hash_mapIS6_S9_SD_NS6_14EqualsComparerINSC_26Il2CppGenericMethodCompareEEENS0_9allocatorISA_EEE9SelectKeyESH_SJ_EC2ERKSM_j
vvb:__ZN4PPtrI4MeshE8TransferI14SafeBinaryReadEEvRT_
FBc:__ZN24b2ChainAndCapsuleContact6CreateEP9b2FixtureiS1_iP16b2BlockAllocator
$Ja:__Z37ReadDirectoryInfo_UnityWebAndUnityRawR12FileAccessorRKN20ArchiveStorageHeader6HeaderERNS1_13DirectoryInfoE
vVe:_Array_InternalArray__IEnumerable_GetEnumerator_TisInt64_t909078037_m1219751804_gshared
L0:__ZNSt3__26__treeINS_12__value_typeIPKciEENS_19__map_value_compareIS3_S4_15compare_tstringIS3_ELb1EEENS_9allocatorIS4_EEE7destroyEPNS_11__tree_nodeIS4_PvEE
Cxg:__ZL96RuntimeTypeHandle_t2330101084_CustomAttributesCacheGenerator_RuntimeTypeHandle_Equals_m452760426P21CustomAttributesCache
U4h:_Dictionary_2_ToTValue_m1381983709_gshared
jVf:_MulticastDelegate_KPM_m1592985119
cXh:_RaycastHit2D_get_collider_m2568504212_AdjustorThunk
pvf:_Collection_1_ConvertItem_m3941916604_gshared
NVa:__ZN20DynamicPropertySheet14SetValueQueuedEN9ShaderLab16FastPropertyNameEN19ShaderPropertySheet12PropertyTypeEjNS2_8SetFlagsE
I$c:__ZN2UI6Canvas26MarkAllNestedCanvasesDirtyEv
RBd:__ZN6il2cpp2vm12ReboxIfBoxedEP14Il2CppIUnknownP11Il2CppClass
Zgf:_List_1__ctor_m2766376432_gshared
U7a:__ZN25PathNamePersistentManagerD2Ev
Q1:__ZN17PersistentManager48IntegrateObjectAndUnlockIntegrationMutexInternalEi
OAf:_ReadOnlyCollection_1_System_Collections_IList_get_IsReadOnly_m3872065502_gshared
WAg:__ZL112TypeBuilder_t3308873219_CustomAttributesCacheGenerator_TypeBuilder_MakeGenericType_m4282022646____typeArguments0P21CustomAttributesCache
Z_i:__Z89RuntimeInvoker_Il2CppObject_Scene_t1684909666_Scene_t1684909666_Il2CppObject_Il2CppObjectPK10MethodInfoPvPS2_
rp:__ZN6Object12SetHideFlagsENS_9HideFlagsE
OGc:__ZN9b2Fixture11SynchronizeEP12b2BroadPhaseRK11b2TransformS4_
UXj:_emscripten_glGetFramebufferAttachmentParameteriv__wrapper
YQa:__ZN13RendererScene15InitializeUmbraEv
h1i:_AnimatorTransitionInfo_IsName_m2561957738_AdjustorThunk
ooa:__Z28CalculateGlobalMatrixInverse23TransformAccessReadOnly
ssc:__ZN4PPtrI6ObjectE8TransferI9JSONWriteEEvRT_
wCe:_PointerEventData_ToString_m1218584363
_be:_Char_System_IConvertible_ToChar_m1489061093_AdjustorThunk
mAh:_UTF7Encoding_GetCharCount_m2589913583
Y2g:__ZL117RenderPipelineManager_t984453155_CustomAttributesCacheGenerator_RenderPipelineManager_set_currentPipeline_m3825706412P21CustomAttributesCache
bJi:__Z91RuntimeInvoker_DateTime_t693205669_Il2CppObject_Il2CppObject_Il2CppObject_Int32_t2071877448PK10MethodInfoPvPS2_
pQa:_UNITY_png_write_sCAL_s
wPf:_MemoryStream_CalculateNewCapacity_m3533542025
A2g:__ZL66ExcludeFromDocsAttribute_t665825653_CustomAttributesCacheGeneratorP21CustomAttributesCache
Sli:_InternalEnumerator_1_System_Collections_IEnumerator_Reset_m4211243679_AdjustorThunk
tdd:__ZNK15dense_hashtableINSt3__24pairIK10KeyWrapperIPKcEP11Il2CppClassEES5_N6il2cpp5utils11StringUtils12StringHasherIS4_EEN14dense_hash_mapIS5_S8_SE_NS5_14EqualsComparerINSC_21CaseSensitiveComparerEEENS0_9allocatorIS9_EEE9SelectKeyESI_SK_E5beginEv
H$g:__ZL88GUIStyle_t1799908754_CustomAttributesCacheGenerator_GUIStyle_GetFontInternal_m3509743324P21CustomAttributesCache
WDh:_TimeSpan_Equals_m4102942751_AdjustorThunk
SWi:__Z59RuntimeInvoker_Void_t1841601450_X509ChainStatus_t4278378721PK10MethodInfoPvPS2_
L0h:_ValueCollection_System_Collections_Generic_ICollectionU3CTValueU3E_Add_m1903672223_gshared
zG:__ZN4FMOD6SoundI7releaseEv
bwb:__ZN14SpriteRenderer13AwakeFromLoadE17AwakeFromLoadMode
XCe:_MouseButtonEventData__ctor_m618518000
PKa:__ZN10MemoryFile9SetLengthEy
WGh:_UInt16_ToString_m2038947049_AdjustorThunk
I6h:_DefaultComparer_Equals_m3143385420_gshared
jAc:__ZNK15b2RevoluteJoint10GetAnchorBEv
spb:__ZN14SafeBinaryRead21TransferSTLStyleArrayI13dynamic_arrayI7Hash128Lj8EEEEvRT_17TransferMetaFlags
_Db:__Z28scripting_class_is_interface17ScriptingClassPtr
Ih:_glTexStorage2D
TVb:__ZNK9ShaderLab10SubProgram14EnsureCompiledEv
RNd:_GC_push_marked
ZAa:__ZN18AsyncUploadManager22WaitForActiveAsyncReadEv
zzg:__ZL55DaylightTime_t3800227331_CustomAttributesCacheGeneratorP21CustomAttributesCache
Sie:_SortedList_InitTable_m460350503
k3:__Z18BuildScriptClassId17ScriptingClassPtr
Hni:_InternalEnumerator_1_get_Current_m4279678504_AdjustorThunk
Gq:__ZNK16LevelGameManager7GetNameEv
Mnf:_Collection_1_System_Collections_IList_get_Item_m2415649949_gshared
A2b:__ZN8Renderer28HandleParentHierarchyChangesEPK23TransformAccessReadOnlyj
fsh:_ILTokenInfo_t149559338_marshal_pinvoke_cleanup
PX:__ZL31DeleteLastPathNameComponentImplRKN4core12basic_stringIcNS_20StringStorageDefaultIcEEEEPKc
i_b:__Z13RegisterClassI18DelayedCallManagerEvv
$6c:__ZN18UnityConnectClient15GetCloudServiceEv
MJb:__Z18Transfer_BlittableI24GenerateTypeTreeTransferLb0EiEvRK29SerializationCommandArgumentsR31RuntimeSerializationCommandInfo
jBc:__ZN15b2CircleContact6CreateEP9b2FixtureiS1_iP16b2BlockAllocator
WDb:__ZL28SerializationCommandGroupForRK31TransferFunctionScriptingTraits17ScriptingClassPtr17ScriptingFieldPtrRK20CoreScriptingClasses
aib:__ZN10TagManager32RegisterDefaultTagsAndLayerMasksEv
OFj:_TweenRunner_1_StopTween_m2135918118_gshared
x1h:_ValueCollection_get_Count_m4142113966_gshared
S0g:__ZL118AttributeHelperEngine_t958797062_CustomAttributesCacheGenerator_AttributeHelperEngine_GetRequiredComponents_m120894667P21CustomAttributesCache
afb:__ZN14CachingManager12ReadInfoFileERKN4core12basic_stringIcNS0_20StringStorageDefaultIcEEEEPlPNSt3__26vectorIS4_NS8_9allocatorIS4_EEEE
wVg:__ZL105RectTransform_t3349966182_CustomAttributesCacheGenerator_RectTransform_INTERNAL_get_sizeDelta_m3975625099P21CustomAttributesCache
R4c:__Z56Register_UnityEngine_Analytics_CustomEventData_AddUInt32v
Mde:_ArrayList_InsertRange_m1478230997
Rya:__ZN4gles8InitCapsEP7ApiGLESP12GraphicsCapsR16GfxDeviceLevelGL
mja:__ZN6prcore14BlitImageFloatERK14ImageReferenceRS0_NS0_8BlitModeE
E8d:_Swapper_EndInvoke_m677693941
Pfb:__ZN21AssetBundleFileSystem4ReadER13FileEntryDatayyPvPy
sTh:_Matrix4x4_Equals_m1321236479_AdjustorThunk
KPg:__ZL99Camera_t189460977_CustomAttributesCacheGenerator_Camera_INTERNAL_CALL_ScreenToWorldPoint_m196899300P21CustomAttributesCache
pi:_glEnable
Ugb:__ZNK13Lz4Compressor29CalculateCompressedBufferSizeEj
uAi:__Z59RuntimeInvoker_Single_t2076509932_Il2CppObject_Il2CppObjectPK10MethodInfoPvPS2_
CTa:__ZNK25CameraStackRenderingState21GetImageEffectTextureEb
tih:_RuntimeMethodHandle__ctor_m2437574937_AdjustorThunk
XUg:__ZL99Transform_t3275118058_CustomAttributesCacheGenerator_Transform_INTERNAL_get_localPosition_m94028171P21CustomAttributesCache
vGh:_UInt16_System_IConvertible_ToInt64_m2835280558_AdjustorThunk
rWh:_Quaternion_GetHashCode_m2270520528_AdjustorThunk
ROg:__ZL53g_UnityEngine_Assembly_CustomAttributesCacheGeneratorP21CustomAttributesCache
NBj:_Predicate_1_BeginInvoke_m3926587117_gshared
Pzb:__ZNSt3__26vectorI4PPtrI6ObjectE13stl_allocatorIS3_L18MemLabelIdentifier51ELi16EEE6assignINS_11__wrap_iterIPS3_EEEENS_9enable_ifIXaasr21__is_forward_iteratorIT_EE5valuesr16is_constructibleIS3_NS_15iterator_traitsISD_E9referenceEEE5valueEvE4typeESD_SD_
Mmh:_AssemblyName_get_Name_m1815759940
def:_List_1_get_Item_m1231764300_gshared
lIe:_DefaultControls_CreateToggle_m1568873127
Okf:_List_1__cctor_m1022807427_gshared
wyg:__ZL63KeyNotFoundException_t1722175009_CustomAttributesCacheGeneratorP21CustomAttributesCache
E4h:_Dictionary_2_InitArrays_m2270022740_gshared
vke:_Convert_ToBoolean_m2188088811
J5c:__ZN11UnityEngine7Connect15DeviceInfoEvent16CollectExtraInfoEv
$Ii:__Z115RuntimeInvoker_Boolean_t3825574718_Il2CppObject_Int32_t2071877448_Il2CppObject_SByte_t454417549_Int32U26_t455636984PK10MethodInfoPvPS2_
zzh:_UnicodeEncoding_GetChars_m3765282346
sLf:_IntPtr__ctor_m4104029105
$Eg:__ZL114BinaryFormatter_t1866979105_CustomAttributesCacheGenerator_BinaryFormatter_get_DefaultSurrogateSelector_m219714691P21CustomAttributesCache
$ri:_InternalEnumerator_1_System_Collections_IEnumerator_get_Current_m771161214_AdjustorThunk
hUf:_MonoType_get_attributes_m1493788675
BQj:_atol
YQd:__ZN6il2cpp6icalls8mscorlib6System10Reflection9FieldInfo25internal_from_handle_typeE12Il2CppIntPtrS5_
wQi:__Z61RuntimeInvoker_Void_t1841601450_Il2CppObject_Rect_t3681755626PK10MethodInfoPvPS2_
Tme:_Convert_ToDouble_m4236754739
Jgg:_SslClientStream_get_PrivateKeyCertSelectionDelegate_m3715949545
xJe:_Dropdown_CreateItem_m2702141380
_Bf:_ReadOnlyCollection_1_IndexOf_m224962127_gshared
dzg:__ZL48Stack_t1043988394_CustomAttributesCacheGeneratorP21CustomAttributesCache
Eo:FUNCTION_TABLE_viifi
Fo:FUNCTION_TABLE_viiff
Cvh:_MonoEvent_GetAddMethod_m4289563120
lxg:__ZL37Type_t_CustomAttributesCacheGeneratorP21CustomAttributesCache
QYc:_UNITY_tt_face_free_hdmx
Tvd:__ZN15dense_hashtableINSt3__24pairIK10KeyWrapperINS1_IP11Il2CppClassjEEES4_EES6_N6il2cpp8metadata14ArrayClassHashEN14dense_hash_mapIS6_S4_SB_NS6_14EqualsComparerINSA_17ArrayClassCompareEEENS0_9allocatorIS8_EEE9SelectKeyESF_SH_E5clearEv
bdd:__ZNSt3__218uninitialized_copyIPNS_4pairIK10KeyWrapperIPK11Il2CppClassEPKcEESB_EET0_T_SD_SC_
rnd:__ZN6il2cpp2vm14TypeNameParser5ParseEb
zci:_ReflectionMethodsCache__ctor_m1835220
bIi:__Z51RuntimeInvoker_Int16_t4041245914_Single_t2076509932PK10MethodInfoPvPS2_
Dyg:__ZL71SynchronizedArrayListWrapper_t3317806524_CustomAttributesCacheGeneratorP21CustomAttributesCache
c9c:__ZN23UnityPurchasingSettingsC2Ev
fve:_Double_ToString_m1864290157
pAi:__Z63RuntimeInvoker_Il2CppObject_Int16_t4041245914_Int32_t2071877448PK10MethodInfoPvPS2_
vqi:_InternalEnumerator_1_get_Current_m4154059426_AdjustorThunk
z7:__ZNSt3__26__treeINS_12__value_typeI18VertexChannelsInfo16MeshVertexFormatEENS_19__map_value_compareIS2_S4_NS_4lessIS2_EELb1EEE13stl_allocatorIS4_L18MemLabelIdentifier16ELi16EEE12__find_equalIS2_EERPNS_16__tree_node_baseIPvEENS_21__tree_const_iteratorIS4_PNS_11__tree_nodeIS4_SF_EEiEESI_RKT_
xpa:__ZL37stbir__resample_horizontal_downsampleP11stbir__infoiPf
Npf:__ZN21InterfaceFuncInvoker1Ib18Color32_t874517518E6InvokeEjP11Il2CppClassP12Il2CppObjectS0_
Pma:__ZNK5Unity9Component38MarkGameObjectAndComponentDependenciesER27GarbageCollectorThreadState
ZX:__ZL16OutOfMemoryErrorjj18MemLabelIdentifieriPKc
zPa:_UNITY_png_write_data
NN:__ZNK7Texture21GetShadowSamplingModeEv
AW:__ZN13ScreenManager21OnWindowRegainedFocusEv
nQb:__Z18Transfer_BlittableI18StreamedBinaryReadILb0EELb1EdEvRK29SerializationCommandArgumentsR31RuntimeSerializationCommandInfo
i4i:_WillRenderCanvases_BeginInvoke_m1914028027
oHf:_Guid__ctor_m2599802704
XNf:_FileStream_get_CanRead_m4148920720
v9c:__ZN13RuntimeStaticINSt3__26vectorIPN5physx15PxVehicleWheelsENS0_9allocatorIS4_EEEELb0EE13StaticDestroyEPv
CBa:__ZN4crnd12symbol_codec32decode_receive_static_data_modelERNS_25static_huffman_data_modelE
G$b:__ZN18ScriptingArguments8AddFloatEf
dGf:_GregorianCalendar_set_CalendarType_m2438362222
HHe:_FloatTween_get_targetValue_m2120061648_AdjustorThunk
AXi:__Z71RuntimeInvoker_Void_t1841601450_Int32_t2071877448_UriScheme_t1876590943PK10MethodInfoPvPS2_
zTe:_Array_InternalArray__ICollection_Contains_TisVector2_t2243707579_m3625698589_gshared
_rc:__Z18Transfer_BlittableI9JSONWriteLb0EaEvRK29SerializationCommandArgumentsR31RuntimeSerializationCommandInfo
JQ:__ZN11UnityEngine15CloudWebService14DataDispatcher34OnSessionContainerArchivedAndReadyERNS0_16SessionContainerE
RCc:__ZN7b2World11CreateJointEPK10b2JointDef
OGf:_NumberFormatInfo_GetFormat_m3247563525
qJg:__ZL77Convert_t2607082565_CustomAttributesCacheGenerator_Convert_ToByte_m2303223565P21CustomAttributesCache
Hag:_CipherSuiteCollection__ctor_m2154226461
FLb:__Z18Transfer_BlittableI19StreamedBinaryWriteILb0EELb0E8Vector3fEvRK29SerializationCommandArgumentsR31RuntimeSerializationCommandInfo
SLh:_RectOffset__ctor_m2227510254
mSb:__ZN14SafeBinaryRead19TransferSTLStyleMapINSt3__23mapIN4core12basic_stringIcNS3_20StringStorageDefaultIcEEEEiNS1_4lessIS7_EENS1_9allocatorINS1_4pairIKS7_iEEEEEEEEvRT_17TransferMetaFlags
Brd:__ZN15dense_hashtableINSt3__24pairIK10KeyWrapperINS1_IPK11Il2CppImageP11Il2CppClassEEEjEES9_17ReflectionMapHashIS8_EN14dense_hash_mapIS9_jSD_NS9_14EqualsComparerINS0_8equal_toIS8_EEEENS0_9allocatorISB_EEE9SelectKeyESI_SK_ED2Ev
xQc:_gray_move_to
alh:_DSAParameters_t1872138834_marshal_pinvoke
P8i:_UnityAction_BeginInvoke_m407736228
Luf:_Collection_1_System_Collections_IEnumerable_GetEnumerator_m4174600764_gshared
Rij:_ConstructionCall_InitDictionary_m4046452035
hBb:__ZN5Cache9URLToPathERKN4core12basic_stringIcNS0_20StringStorageDefaultIcEEEE7Hash128
vsd:__ZN6il2cpp2vm10Reflection14GetEventObjectEP11Il2CppClassPK9EventInfo
XRi:__Z43RuntimeInvoker_VerticalWrapMode_t3668245347PK10MethodInfoPvPS2_
_bg:_TlsStream_Write_m2271546135
iac:__Z30RegisterValidateMethodCallbackiPF18ScriptingMethodPtrS_17ScriptingClassPtrP6ObjectEPKc
wY:__ZN20LocalFileSystemPosixD0Ev
cye:_CultureInfo_ConstructInternalLocaleFromCurrentLocale_m1342751405
vIi:__Z50RuntimeInvoker_UInt16_t986882611_Int16_t4041245914PK10MethodInfoPvPS2_
Sfb:__ZN21AssetBundleFileSystem5WriteER13FileEntryDatayPvPy
x6d:_Latin1Encoding_GetString_m3553289597
VRc:_tt_cmap_init
TCa:__ZL25ProgramUniformMatrix4x2fvPK7ApiGLESjiihPKv
Wxi:_Enumerator_get_Current_m1020413567_AdjustorThunk
Cbf:_List_1_System_Collections_IList_get_IsFixedSize_m1122077912_gshared
_Cd:__ZN15dense_hashtableI10KeyWrapperIP18Il2CppGenericClassES3_N6il2cpp8metadata22Il2CppGenericClassHashEN14dense_hash_setIS3_S6_NS3_14EqualsComparerINS5_25Il2CppGenericClassCompareEEENSt3__29allocatorIS3_EEE8IdentityESA_SD_E12maybe_shrinkEv
iYi:__Z48RuntimeInvoker_Link_t865133271_Int32_t2071877448PK10MethodInfoPvPS2_
m$b:__ZN9TextAssetC2E18MemLabelIdentifier18ObjectCreationMode
q7i:_Display_RecreateDisplayList_m3412638488
Bje:_Slot_t2267560602_marshal_pinvoke
TKg:__ZL79Convert_t2607082565_CustomAttributesCacheGenerator_Convert_ToUInt64_m2215781574P21CustomAttributesCache
JZi:__Z52RuntimeInvoker_KeyValuePair_2_t38854645_Il2CppObjectPK10MethodInfoPvPS2_
x1j:_emscripten_glCheckFramebufferStatus__wrapper
dxd:__ZNK15dense_hashtableINSt3__24pairIK10KeyWrapperIP11Il2CppClassES4_EES5_N6il2cpp8metadata16SZArrayClassHashEN14dense_hash_mapIS5_S4_SA_NS5_14EqualsComparerINS9_19SZArrayClassCompareEEENS0_9allocatorIS7_EEE9SelectKeyESE_SG_E12test_deletedEj
tuc:__Z18Transfer_BlittableI8JSONReadLb0EdEvRK29SerializationCommandArgumentsR31RuntimeSerializationCommandInfo
Sgf:_List_1_TrimExcess_m2004514756_gshared
kCh:_Thread_ClrState_m822263449
$Xf:_SimpleCollator_LastIndexOfOrdinalIgnoreCase_m550798345
Cid:__ZN6il2cpp2vm21ThreadPoolCompartment13QueueWorkItemEP17Il2CppAsyncResult
Vm:FUNCTION_TABLE_viiiiiifiii
nua:__ZNK9GfxDevice13GetViewMatrixEv
$ma:__ZN17RemapPPtrTransferC2E24TransferInstructionFlagsb
Jgd:__ZN15dense_hashtableINSt3__24pairIK10KeyWrapperIPKcEP11Il2CppClassEES5_N6il2cpp5utils11StringUtils12StringHasherIS4_EEN14dense_hash_mapIS5_S8_SE_NS5_14EqualsComparerINSC_21CaseSensitiveComparerEEENS0_9allocatorIS9_EEE9SelectKeyESI_SK_E15insert_noresizeERKS9_
kna:__ZN18LoadSceneOperation23GetAllowSceneActivationEv
nla:__ZN11prophecysdk4half7convertEi
Sib:__ZN6CameraD0Ev
AZf:_ModulusRing_Multiply_m386339435
f9:__ZN31CanvasBatchIntermediateRenderer16StaticInitializeEPv
SLe:_GraphicRaycaster_U3CRaycastU3Em__0_m3971200721
yyf:_ReadOnlyCollection_1_System_Collections_IList_RemoveAt_m3004588099_gshared
zme:_Decimal_op_Implicit_m4246329390
g5f:_ArgumentNullException__ctor_m2252076819
$4a:__ZN10GameObjectC2E18MemLabelIdentifier18ObjectCreationMode
APc:_raccess_guess_apple_double
ojg:_ListDictionary_GetEnumerator_m1511032609
Vph:_TypeBuilder_get_FullName_m1626507516
Qgh:_SerializationInfo__ctor_m4016423422
xRd:__ZN6il2cpp2os12Cryptography24OpenCryptographyProviderEv
g2b:__ZN14Texture2DArray13RebuildMipMapEv
Dcd:__ZN13Il2CppHashSetIPK17Il2CppGenericInstN6il2cpp8metadata21Il2CppGenericInstHashENS4_24Il2CppGenericInstCompareENSt3__29allocatorI10KeyWrapperIS2_EEEEC2EjRKS5_RKS6_
dGb:__Z18Transfer_BlittableI14SafeBinaryReadLb1EaEvRK29SerializationCommandArgumentsR31RuntimeSerializationCommandInfo
xJd:__ZN6il2cpp2gc16GarbageCollector14RemoveWeakLinkEPPv
fWb:__ZN9ShaderLab20SerializedSubProgram14AddVectorParamEPKcii15ShaderParamTypei
ldf:_List_1_System_Collections_Generic_IEnumerableU3CTU3E_GetEnumerator_m3123730956_gshared
q1c:__ZN2UI14CanvasRenderer12CleanupClassEv
fBf:_ReadOnlyCollection_1_System_Collections_IEnumerable_GetEnumerator_m1734360860_gshared
o6h:_DefaultComparer__ctor_m1052417779_gshared
b0d:_SystemException__ctor_m2688248668
Adj:_ResourceSet_ReadResources_m1669023823
cgb:__ZNK17FileSystemHandler6ParentERK13FileEntryDataRN4core12basic_stringIcNS3_20StringStorageDefaultIcEEEE
p3f:_PKCS12_RemoveCertificate_m1590055870
Rxd:__ZN6il2cpp2vm6Thread7SetNameEP12Il2CppThreadP12Il2CppString
zAg:__ZL117GenericTypeParameterBuilder_t1370236603_CustomAttributesCacheGenerator_GenericTypeParameterBuilder_Equals_m2498927509P21CustomAttributesCache
Zaa:__ZN13ScreenManager18SetAllowCursorLockEb
xAb:__ZN30RuntimeInitializeOnLoadManager15ClassMethodInfo8TransferI14SafeBinaryReadEEvRT_
WCb:__ZN9TextAsset8TransferI14SafeBinaryReadEEvRT_
E9g:__ZL73CanvasScaler_t2574720772_CustomAttributesCacheGenerator_m_ScreenMatchModeP21CustomAttributesCache
wP:__ZL22InitializeModule_Audiov
oFc:__ZN16Physics2DManager13DynamicUpdateEv
tab:__ZN16MemoryFileSystem8IsLockedERK13FileEntryData
Qxj:_Vector2_get_Item_m2792130561_AdjustorThunk
jvh:_MonoCMethod_Invoke_m931478014
Hdj:_SatelliteContractVersionAttribute__ctor_m2605651717
Yk:_emscripten_glBindRenderbuffer
Eqh:_EnumBuilder_HasElementTypeImpl_m1414733955
aoc:__Z32GUIStyle_Set_Custom_PropClippingP12Il2CppObjecti
$4d:_DecoderExceptionFallbackBuffer_GetNextChar_m1727394816
ROd:_GC_dirty_init
Q7d:_Array_Copy_m1969461849
MFd:__ZN6il2cpp2vm5Image33GetCachedMemoryMappedResourceFileEP24Il2CppReflectionAssembly
xEd:__ZN6il2cpp2vm5Field14GetValueObjectEP9FieldInfoP12Il2CppObject
L0c:__ZNK2UI6Canvas16GetTargetDisplayEv
$qj:_PKCS12_GetSymmetricAlgorithm_m3196291685
nwe:_Environment_get_OSVersion_m1247315981
Y7:__ZN6Object17FindObjectsOfTypeEPKN5Unity4TypeER13dynamic_arrayIPS_Lj4EEb
$5b:__ZNSt3__26vectorINS_4pairIiiEE13stl_allocatorIS2_L18MemLabelIdentifier1ELi16EEE21__push_back_slow_pathIKS2_EEvRT_
jrg:_Capture_get_Length_m1952322390
Dsc:__ZN9JSONWrite8TransferI4PPtrI9Texture2DEEEvRT_PKc17TransferMetaFlags
N9i:_AnimationOffsetPlayable_INTERNAL_CALL_GetRotation_m2705874827
sDb:__ZN13MonoBehaviour17RemoveFromManagerEv
tjb:__ZN12ImageFilters14AddImageFilterERK11ImageFilter
z1c:__ZL23RegisterModuleICalls_UIv
Prb:__ZL11DecodeValuePPKcS0_
S_h:_ShimEnumerator_MoveNext_m2013866013_gshared
LU:__ZN13MemoryManagerC2Ev
xFa:__ZN12SkinMeshInfo10DeallocateEPS_
pxj:_Transform_SetParent_m1963830867
aNa:__ZN20ArchiveStorageReader28AcquireAndPrefillUnusedBlockEjPNS_11CacheResultE
zJi:__Z78RuntimeInvoker_Il2CppObject_SByte_t454417549_SByte_t454417549_SByte_t454417549PK10MethodInfoPvPS2_
a2b:__Z12NHxRoughnessIA4_tEvP9Texture2DPT_iiii
wwj:_Touch_get_phase_m196706494_AdjustorThunk
aKj:__ZL25UnresolvedVirtualCall_105P12Il2CppObjecthPK10MethodInfo
_jj:_MethodDictionary_get_SyncRoot_m673971424
w8:__ZN18AsyncUploadManagerD2Ev
VXb:__ZN9Transform5ResetEv
tLb:__Z22TransferField_NonArrayI24GenerateTypeTreeTransfer16Converter_StringEvRK23StaticTransferFieldInfoR31RuntimeSerializationCommandInfoRT0_
MRc:_UNITY_FT_CMap_New
twb:__ZNK17InstancedPropInfo21RenderSpriteInstancesERK15RenderNodeQueuePK17BatchInstanceDataj17ShaderChannelMask
Vkg:_HttpWebRequest_System_Runtime_Serialization_ISerializable_GetObjectData_m3671622902
Qaa:__Z17MainLoopKeepalivePv
naj:_AnimatorControllerPlayable_INTERNAL_CALL_SetBoolString_m1232105510
vkj:_MatchCollection__ctor_m1944681790
zUd:_HMACSHA512__ctor_m1667460019
M1a:__Z24ScheduleCullingAllGroupsR8JobFenceRK22SceneCullingParameters4PPtrI6CameraERK13CullingOutputRK13dynamic_arrayIP12CullingGroupLj4EERKS_
oZd:_ToBase64Transform_get_OutputBlockSize_m949275583
_Uf:_MonoType_ToString_m473949831
e1a:__Z14CalcHullBoundsPK8Vector3fPKhhRK5PlaneRK10Matrix4x4fR10MinMaxAABB
deh:_RealProxy__ctor_m2147093603
YWh:_RaycastHit2D_get_point_m442317739_AdjustorThunk
HEb:__ZN11PreloadData39ShouldIgnoreInGarbageDependencyTrackingEv
Sif:_List_1__ctor_m3511181530_gshared
IVa:__Z19SetupLODFadeKeywordR17ShaderPassContexti
Jyf:_ReadOnlyCollection_1_get_Count_m2180604490_gshared
UFf:_DateTimeFormatInfo_GetAllDateTimePatternsInternal_m1587126173
t9g:__ZL75ToggleGroup_t1030026315_CustomAttributesCacheGenerator_U3CU3Ef__amU24cache1P21CustomAttributesCache
QEa:__ZL25CheckCopyTextureArgumentsRK7ApiGLESP11GLESTextureS3_
q8:__ZN13dynamic_arrayI26EnlightenSystemInformationLj8EE6insertEPS0_PKS0_S4_
qRc:_tt_name_entry_ascii_from_utf16
lVf:_MulticastNotSupportedException__ctor_m2164514827
upe:_DateTime_System_IConvertible_ToChar_m2489529194_AdjustorThunk
_Kb:__Z29Transfer_Blittable_ArrayFieldI24GenerateTypeTreeTransferyEvRT_R9ArrayInfoRK23StaticTransferFieldInfo
EJ:__ZN4FMOD7SystemI9playSoundE17FMOD_CHANNELINDEXPNS_5SoundEbPPNS_7ChannelE
b2i:_AttributeHelperEngine_GetRequiredComponents_m120894667
ZRg:__ZL77Input_t1785128008_CustomAttributesCacheGenerator_Input_GetAxisRaw_m4133353720P21CustomAttributesCache
SY:__GLOBAL__sub_I_runtime_graphics_mesh2_lump_cpp
I1g:__ZL68PreferBinarySerialization_t2472773525_CustomAttributesCacheGeneratorP21CustomAttributesCache
BYg:__ZL127AnimationOffsetPlayable_t859920217_CustomAttributesCacheGenerator_AnimationOffsetPlayable_INTERNAL_CALL_SetRotation_m2224758383P21CustomAttributesCache
ond:__ZN6il2cpp2os4File4ReadEPNS0_10FileHandleEPciPi
u6f:_BigInteger_op_GreaterThan_m2492620848
aI:__ZN12AudioManager23VirtualRedirectTransferER18StreamedBinaryReadILb0EE
faf:_List_1_Remove_m2616693989_gshared
Stb:__ZN10VertexData13SwapEndianessEv
OQj:_realloc
Yjc:__Z57Register_UnityEngine_Transform_INTERNAL_get_localRotationv
Mfi:_ScrollRect_SetLayoutVertical_m1225848090
f8g:__ZL60Scrollbar_t3248359358_CustomAttributesCacheGenerator_m_ValueP21CustomAttributesCache
MEh:_Type_get_IsInterface_m3583817465
kAb:__ZN30RuntimeInitializeOnLoadManager23VirtualRedirectTransferER17RemapPPtrTransfer
MUj:dynCall_viif
Vvh:_MonoField_get_DeclaringType_m1591666235
dli:_InternalEnumerator_1__ctor_m2111763266_AdjustorThunk
Etg:_Enumerator_MoveNext_m4234629003
vS:__ZN11UnityEngine15CloudWebService13WWWRestClient21ParseHTTPHeaderStringEN4core12basic_stringIcNS2_20StringStorageDefaultIcEEEERNS0_16WWWRestHeaderMapERjPKc
aJb:__ZL26Transfer_SimpleNativeClassI17RemapPPtrTransfer8GradientLb0EEvRK29SerializationCommandArgumentsR31RuntimeSerializationCommandInfo
yfd:__ZNK15dense_hashtableINSt3__24pairIK10KeyWrapperI13dynamic_arrayIPK10Il2CppTypeLj4EEEPFvvEEES8_N6il2cpp8metadata19Il2CppSignatureHashEN14dense_hash_mapIS8_SB_SF_NS8_14EqualsComparerINSE_22Il2CppSignatureCompareEEENS0_9allocatorISC_EEE9SelectKeyESJ_SL_E10test_emptyEj
chb:__ZNSt3__26vectorIN20ArchiveStorageHeader12StorageBlockE13stl_allocatorIS2_L18MemLabelIdentifier54ELi16EEE21__push_back_slow_pathIKS2_EEvRT_
Sjd:__ZN6il2cpp6icalls8mscorlib6System8MonoType14get_attributesEP20Il2CppReflectionType
Beb:__Z43DestroyWithoutLoadingButDontDestroyFromFilei
iUf:_MonoType_GetDefaultConstructor_m925465120
BFh:_Type_IsArrayImpl_m3073208555
fTj:dynCall_viiiiiffi
JVg:__ZL95Physics2D_t2540166467_CustomAttributesCacheGenerator_Physics2D_Raycast_m2303387255____distance2P21CustomAttributesCache
Gc:_emscripten_glBlendFuncSeparate
vrh:_GenericTypeParameterBuilder_IsPrimitiveImpl_m1198748291
t_:__Z20scripting_string_newPKc
vic:__Z43Material_CUSTOM_Internal_CreateWithMaterialP12Il2CppObjectS0_
SMf:_Directory_GetCurrentDirectory_m44486537
VEi:__Z45RuntimeInvoker_RuntimeFieldHandle_t2331729674PK10MethodInfoPvPS2_
YEd:__ZNK24NamespaceAndNamePairHashclERKNSt3__24pairIPKcS3_EE
emf:_Collection_1_System_Collections_ICollection_CopyTo_m1047946700_gshared
JMj:_BacteriaController__reset_m2062403076
d_i:__Z36RuntimeInvoker_Enumerator_t975728254PK10MethodInfoPvPS2_
Ine:_Convert_ToInt64_m4057339019
fng:_AsnEncodedData_Default_m4197142414
gF:__Z103Register_UnityEngine_Experimental_Director_AnimatorControllerPlayable_INTERNAL_CALL_ResolveHashInternalv
Cwd:__ZNSt3__218uninitialized_copyIPNS_4pairIK10KeyWrapperIP11Il2CppClassES4_EES8_EET0_T_SA_S9_
bu:__ZNSt3__26__sortIRPFbPKN8Animator11AnimatorJobES4_EPS4_EEvT0_S9_T_
qH:__ZN17AudioCustomFilterD2Ev
Ymc:__ZN11IMGUIModule26SetDeveloperConsoleVisibleEb
aYb:__ZN9Transform16ResetReplacementEv
Fmc:__ZNK8GUIStyle13GetLineHeightEv
XDa:__ZN18GfxFramebufferGLES18ReleaseFramebufferEP17RenderSurfaceBaseP14GfxContextGLES
Ygj:_Context_GetDynamicPropertyCollection_m1987747444
sog:_X509Certificate2_get_Version_m1927399907
Y3b:__ZN13ProduceHelperI6CameraLb0EE7ProduceE18MemLabelIdentifier18ObjectCreationMode
yNe:_Image_RadialCut_m3229543088
MT:__ZN19CloudServiceHandler34HandleSaveFileWebRequestPlayerLoopEv
Vz:__ZN7mecanim21ValueArrayReverseCopyEPKNS_18ValueArrayConstantEPKNS_10ValueArrayES2_PS3_PKi
bH:__Z31GetParentSampleClipFromInstancePN11SoundHandle8InstanceE
M$b:__ZNK28RectTransformPropertyBinding13GetFloatValueERKN11UnityEngine9Animation10BoundCurveE
U3a:__ZN6Camera22StandaloneCustomRenderENS_10RenderFlagEP6ShaderRKN4core12basic_stringIcNS3_20StringStorageDefaultIcEEEEPNS_21PerformRenderFunctionE
CTd:__ZN6il2cpp2os16ThreadLocalValue8GetValueEPPv
Qgd:__ZN6il2cpp2vm13MetadataCache14GetGenericInstEPKPK10Il2CppTypej
pYd:_SHA384Managed_Initialize_m712692291
_li:_InternalEnumerator_1__ctor_m2688327768_gshared
gd:_glUniform1uiv
ACg:__ZL60CallingConvention_t3354538265_CustomAttributesCacheGeneratorP21CustomAttributesCache
okc:__Z52Object_CUSTOM_GetOffsetOfInstanceIDInCPlusPlusObjectv
zXg:__ZL124AnimatorControllerPlayable_t4078305555_CustomAttributesCacheGenerator_AnimatorControllerPlayable_PlayInFixedTime_m2966168794P21CustomAttributesCache
dO:__ZN9AudioClip15InitializeClassEv
lp:setThrew
rBi:__Z36RuntimeInvoker_IntPtr_t_Il2CppObjectPK10MethodInfoPvPS2_
U1b:__ZL21BuildEmptyCubeTexturePKci11ColorRGBA3217TextureColorSpace
pSb:__ZN14SafeBinaryRead21TransferSTLStyleArrayINSt3__26vectorIN9ShaderLab20SerializedSubProgramENS1_9allocatorIS4_EEEEEEvRT_17TransferMetaFlags
BDe:_StandaloneInputModule_set_cancelButton_m2642677329
Gtc:__Z15Transfer_StringI8JSONReadLb1EEvRK29SerializationCommandArgumentsR31RuntimeSerializationCommandInfo
Eka:__ZN6prcoreL17RemapGenericFloatI17TexFormatRGBFloat15TexFormatRGHalfEEvPKNS_9InnerInfoE
lXa:__Z25DoForwardShaderRenderLoopR17RenderLoopContextR13dynamic_arrayI16RenderObjectDataLj4EERK11CullResultsbbbN6Camera10RenderFlagE
QQc:_sfnt_load_face
NMc:_UNITY_FT_Render_Glyph_Internal
EAh:_UTF8Encoding_GetByteCount_m2372933408
Vgj:_Context_get_NeedsContextSink_m1907794755
HQc:_UNITY_ft_service_list_lookup
u7f:_ARC4Managed_GenerateKey_m716135508
VIb:__Z18Transfer_BlittableI17RemapPPtrTransferLb1E11ColorRGBA32EvRK29SerializationCommandArgumentsR31RuntimeSerializationCommandInfo
xOi:__Z57RuntimeInvoker_Il2CppObject_PlayableHandleU26_t3483893774PK10MethodInfoPvPS2_
fmc:__ZN5IMGUI21SelectReceivingWindowER8GUIStateb
hD:__ZNK26AnimatorControllerPlayable17ValidateGoToStateERiS0_
Gri:_InternalEnumerator_1_get_Current_m3179981210_gshared
Lbb:__ZN13BaseAllocator13TryDeallocateEPv
aNb:__Z29Transfer_Blittable_ArrayFieldI19StreamedBinaryWriteILb0EEfEvRT_R9ArrayInfoRK23StaticTransferFieldInfo
A7d:_Array_CreateInstance_m1054139389
RNh:_GUIStyleState_GetGUIStyleState_m2816150617
tmi:_InternalEnumerator_1__ctor_m967618647_AdjustorThunk
bab:__ZN16MemoryFileSystem5WriteER13FileEntryDatayPvPy
MMe:_LayoutGroup_GetAlignmentOnAxis_m1783063916
Ejb:__ZNSt3__26vectorIN12FlareManager10FlareEntryENS_9allocatorIS2_EEE21__push_back_slow_pathIKS2_EEvRT_
vnh:_Default_check_arguments_with_score_m1714931543
IXd:_SHA1_Create_m4086509717
nCi:__Z57RuntimeInvoker_Il2CppObject_RuntimeTypeHandle_t2330101084PK10MethodInfoPvPS2_
tEj:_UnityEvent_1_GetDelegate_m3098147632_gshared
Ewh:_MonoMethodInfo_GetMethodInfo_m3298558752
NH:__ZN13AudioListener17RemoveFromManagerEv
Bd:_glAttachShader
BJe:_Dropdown_SetAlpha_m2769981009
NOa:__ZNK6Camera19GetProjectionMatrixEv
pBj:_Predicate_1_BeginInvoke_m1856151290_gshared
ZR:__ZN11UnityEngine15CloudWebService10RestClientINS0_16WWWRestHeaderMapEE6SetUrlERKN4core12basic_stringIcNS4_20StringStorageDefaultIcEEEE
MMi:__Z139RuntimeInvoker_Il2CppObject_Il2CppObject_Int32_t2071877448_SByte_t454417549_SByte_t454417549_SByte_t454417549_SByte_t454417549_Il2CppObjectPK10MethodInfoPvPS2_
fue:_StackTrace__ctor_m2404985356
S2:__Z38PreallocateObjectFromPersistentManagerib
Ipe:_DateTime_System_IConvertible_ToSingle_m3927769066
ztg:_CostDelegate__ctor_m80452417
UY:__GLOBAL__sub_I_runtime_interfaces_lump_cpp
Ynb:__ZNK9Texture2D20GetUnscaledTextureIDEv
Tne:_Convert_ToSByte_m883113940
A_j:_glFenceSync__wrapper
aVf:_MonoType_get_ContainsGenericParameters_m3229732653
b7g:__ZL53InputField_t1631627530_CustomAttributesCacheGeneratorP21CustomAttributesCache
eFe:_ButtonClickedEvent__ctor_m938038541
cRb:__ZN18StreamedBinaryReadILb0EE21TransferSTLStyleArrayI13dynamic_arrayI4AABBLj4EEEEvRT_17TransferMetaFlags
pGh:_UInt16_System_IConvertible_ToDouble_m4100549304_AdjustorThunk
CEi:__Z116RuntimeInvoker_Il2CppObject_Il2CppObject_Il2CppObject_Int32_t2071877448_Int32_t2071877448_MonoIOErrorU26_t1029615899PK10MethodInfoPvPS2_
Nna:__Z29ClearRepeatingLogMessageStatev
plc:__ZN13TextRendering17TextMeshGenerator13GetTextOffsetERK5RectTIfE
bIj:_HashSet_1_OnDeserialization_m1222146673_gshared
V0d:_Single_System_IConvertible_ToInt16_m962677079
K7:__ZN21EnlightenSceneMappingaSERKS_
Rtf:_Collection_1_SetItem_m546457615_gshared
VQf:_StreamWriter__cctor_m1332667003
h1d:_Single_System_IConvertible_ToUInt32_m2447833283
aAf:_ReadOnlyCollection_1_System_Collections_IList_Add_m3806843030_gshared
QIa:__ZN7ApiGLESD2Ev
K5a:__ZN9Transform47ClearTransformHierarchyAndApplyToSerializedDataEv
bqi:_InternalEnumerator_1_get_Current_m4083613828_AdjustorThunk
RVd:_RijndaelManaged_GenerateKey_m3366247933
yMf:_BinaryReader_ReadUInt64_m1893783375
_2i:_Bounds_op_Equality_m2161830280
_7a:__ZN17PersistentManager9AddStreamEv
cVj:dynCall_fidi
Apd:__ZN15dense_hashtableINSt3__24pairIK10KeyWrapperINS1_IPK9FieldInfoP11Il2CppClassEEEjEES9_17ReflectionMapHashIS8_EN14dense_hash_mapIS9_jSD_NS9_14EqualsComparerINS0_8equal_toIS8_EEEENS0_9allocatorISB_EEE9SelectKeyESI_SK_E12resize_deltaEjj
$oc:__Z47Register_UnityEngine_GUIStyle_set_imagePositionv
Coc:__Z49GUIStyle_CUSTOM_INTERNAL_CALL_Internal_DrawCursor13Il2Cpp_IntPtrRK5RectTIfEP12Il2CppObjectiRK10ColorRGBAf
mei:_ScrollRect_set_movementType_m3292965850
iJg:__ZL59AttributeTargets_t1984597432_CustomAttributesCacheGeneratorP21CustomAttributesCache
eYh:_RectTransform_set_anchorMin_m4247668187
OS:__ZN11UnityEngine15CloudWebService14RestDownloaderD2Ev
N8a:__Z29StdTemplateConversionFunctionIjhEbPvR14SafeBinaryRead
ukb:__ZN22RenderingCommandBufferC2ERKS_
SKj:__ZL25UnresolvedVirtualCall_149P12Il2CppObject23SpriteState_t1353336012S1_PK10MethodInfo
P9e:_List_1_GrowIfNeeded_m2986672263_gshared
Bki:_ArrayReadOnlyList_1_Remove_m2325516426_gshared
Bhe:_Hashtable_get_Count_m830088216
gbc:__ZNK13MonoBehaviour13GetScriptTypeEv
Oca:__ZN13RenderTexture12SetDimensionE16TextureDimension
Otj:_ScriptableObject_CreateInstance_m3921674852
qe:_SDL_FreeRW
P0f:_PKCS1_OS2IP_m1273945439
RXd:_SHA1Internal_FillBuff_m891541953
zMg:__ZL62ResolveEventHandler_t3842432458_CustomAttributesCacheGeneratorP21CustomAttributesCache
b2c:__Z34CanvasRenderer_Get_Custom_PropCullP12Il2CppObject
dki:_ArrayReadOnlyList_1_get_IsReadOnly_m2717922212_gshared
rN:__ZN20SoundChannelInstance8getDelayE14FMOD_DELAYTYPEPjS1_
Afb:__ZN21AssetBundleFileSystemC2EPKc
fOi:__Z113RuntimeInvoker_Int32_t2071877448_Vector2_t2243707579_Vector2_t2243707579_ContactFilter2D_t1672660996_Il2CppObjectPK10MethodInfoPvPS2_
RBi:__Z61RuntimeInvoker_Void_t1841601450_Il2CppObject_Int64_t909078037PK10MethodInfoPvPS2_
DOe:_InputField_set_customCaretColor_m3534590098
wei:_ScrollRect_set_viewport_m323693490
C1:__ZN10UnitySceneD0Ev
kFf:_NumberFormatter_FormatExponential_m3975285307
zLc:__ZNSt3__26vectorIN20TextRenderingPrivate8FontImpl13CharacterInfoE13stl_allocatorIS3_L18MemLabelIdentifier1ELi16EEE8__appendEj
v:tempBigInt
ye:_emscripten_glVertexAttrib1fv
QSb:__ZNSt3__26vectorIN9ShaderLab20SerializedSubProgram12UAVParameterENS_9allocatorIS3_EEE7reserveEj
zjg:_NameObjectCollectionBase__ctor_m2433753948
d0i:_AnimationCurve_Init_m1486386337
W5i:_Component_GetComponents_m3712441745
P6g:__ZL79GraphicRaycaster_t410733016_CustomAttributesCacheGenerator_U3CU3Ef__amU24cache0P21CustomAttributesCache
nPe:_InputField_get_selectionAnchorPosition_m466595604
HIg:__ZL99Thread_t241561612_CustomAttributesCacheGenerator_Thread_t241561612____ExecutionContext_PropertyInfoP21CustomAttributesCache
f5d:_DecoderReplacementFallback_get_DefaultString_m3399348550
ZDj:_UnityAction_4_Invoke_m3312096275_gshared
Pah:__ZL111LayoutUtility_t4076838048_CustomAttributesCacheGenerator_LayoutUtility_U3CGetPreferredHeightU3Em__5_m1524880643P21CustomAttributesCache
xYi:__Z57RuntimeInvoker_ResourceInfo_t3933049236_Int32_t2071877448PK10MethodInfoPvPS2_
grd:__ZN24dense_hashtable_iteratorINSt3__24pairIK10KeyWrapperINS1_IPK10MethodInfoP11Il2CppClassEEEjEES9_17ReflectionMapHashIS8_EN14dense_hash_mapIS9_jSD_NS9_14EqualsComparerINS0_8equal_toIS8_EEEENS0_9allocatorISB_EEE9SelectKeyESI_SK_E30advance_past_empty_and_deletedEv
LYh:_RectTransformUtility_ScreenPointToRay_m1842507230
f3a:__ZN16ReflectionProbes16UpdateSampleDataEv
WBi:__Z71RuntimeInvoker_Int32_t2071877448_Il2CppObject_Il2CppObject_Il2CppObjectPK10MethodInfoPvPS2_
ZEb:__ZN14SafeBinaryRead21TransferSTLStyleArrayI10vector_setI4PPtrI10MonoScriptENSt3__24lessIS4_EE13stl_allocatorIS4_L18MemLabelIdentifier76ELi16EEEEEvRT_17TransferMetaFlags
UFi:__Z103RuntimeInvoker_Il2CppObject_Il2CppObject_StreamingContext_t1417235061_ISurrogateSelectorU26_t2635255864PK10MethodInfoPvPS2_
Sej:_SafeHandle_Finalize_m1839546519
Ssb:__ZN14Texture2DArray5ResetEv
evc:__ZN8JSONRead21TransferSTLStyleArrayINSt3__26vectorI10RectOffset13stl_allocatorIS3_L18MemLabelIdentifier1ELi16EEEEEEvRT_S5_17TransferMetaFlags
Wti:_InternalEnumerator_1_MoveNext_m252820768_AdjustorThunk
Ehj:_Context_AllocateNamedDataSlot_m3200404053
B7f:_CryptoConvert_ToHex_m2874017189
qng:_X509EnhancedKeyUsageExtension_Decode_m3866320499
gFf:_NumberFormatter_AppendIntegerStringWithGroupSeparator_m1401773574
Nnd:__ZNK6il2cpp2vm14TypeNameParser10NextWillBeEcb
W9f:_CipherSuite_get_ServerHMAC_m3566778727
jzg:__ZL64DebuggerBrowsableState_t944457511_CustomAttributesCacheGeneratorP21CustomAttributesCache
Ve:_JS_Sound_Play
NNe:_Image_IsRaycastLocationValid_m864962354
SRb:__ZN9ShaderLab16SerializedShader8TransferI14SafeBinaryReadEEvRT_
_qa:__ZN5Mutex7TryLockEv
bBi:__Z51RuntimeInvoker_Int16_t4041245914_Decimal_t724701077PK10MethodInfoPvPS2_
zt:__ZN7mecanim8skeleton13SkeletonAlignEPKNS0_8SkeletonERKN4math7_float4ES7_i
L2b:__ZN19ShaderPropertySheet16SetVectorIndexedEN9ShaderLab16FastPropertyNameEifRK8Vector4fNS_8SetFlagsE
zq:__ZN14SafeBinaryRead21TransferSTLStyleArrayIN4core12basic_stringIcNS1_20StringStorageDefaultIcEEEEEEvRT_17TransferMetaFlags
zeh:_RemotingConfiguration_RegisterWellKnownServiceType_m2491506630
ARg:__ZL89Screen_t786852042_CustomAttributesCacheGenerator_Screen_t786852042____height_PropertyInfoP21CustomAttributesCache
uDg:__ZL55_TypeBuilder_t2783404358_CustomAttributesCacheGeneratorP21CustomAttributesCache
TLj:__ZL25UnresolvedVirtualCall_204P12Il2CppObjectPK10MethodInfo
p9a:__Z29StdTemplateConversionFunctionIayEbPvR14SafeBinaryRead
VRe:_LayoutRebuilder_Initialize_m2671585490
kff:_List_1_System_Collections_IList_IndexOf_m4061554721_gshared
sT:__ZN11UnityEngine15CloudWebService14DataDispatcher4StopEv
SSb:__ZNSt3__26vectorIN9ShaderLab20SerializedSubProgram12UAVParameterENS_9allocatorIS3_EEE8__appendEj
Fof:_Collection_1_GetEnumerator_m434271983_gshared
$sd:__ZNK15dense_hashtableINSt3__24pairIK10KeyWrapperINS1_IPK9EventInfoP11Il2CppClassEEEjEES9_17ReflectionMapHashIS8_EN14dense_hash_mapIS9_jSD_NS9_14EqualsComparerINS0_8equal_toIS8_EEEENS0_9allocatorISB_EEE9SelectKeyESI_SK_E12test_deletedERK24dense_hashtable_iteratorISB_S9_SD_SM_SI_SK_E
Ylc:__ZN5IMGUI9GUIWindow5OnGUIER8GUIState
m0h:_Enumerator_get_Current_m2986380627_gshared
nfa:__ZN17ScriptingGCHandle7AcquireE18ScriptingObjectPtr25ScriptingGCHandleWeakness
Fgj:_LifetimeServices_set_LeaseTime_m1487876644
Hoh:_ConstructorBuilder_not_supported_m3687319507
ixg:__ZL48IList_t3321498491_CustomAttributesCacheGeneratorP21CustomAttributesCache
_0d:_Single_System_IConvertible_ToInt64_m3555853323_AdjustorThunk
Vui:_InternalEnumerator_1__ctor_m3901400705_AdjustorThunk
VTj:dynCall_iifiii
iRi:__Z48RuntimeInvoker_PersistentListenerMode_t857969000PK10MethodInfoPvPS2_
NFi:__Z87RuntimeInvoker_Il2CppObject_Il2CppObject_Il2CppObject_Il2CppObject_StringU26_t638738783PK10MethodInfoPvPS2_
mpa:__Z21HasAlphaTextureFormat13TextureFormat
IO:__ZN12AudioManager6UpdateEv
kpa:__ZN14ImageReference9BlitImageERKS_NS_8BlitModeE
twh:_MonoMethod_get_MethodHandle_m1882915015
Xr:__ZN8Animator12AddToManagerEv
xBg:__ZL93ConstructorInfo_t2851816542_CustomAttributesCacheGenerator_ConstructorInfo_Invoke_m2144827141P21CustomAttributesCache
qEb:__ZN23CachedSerializationDataD2Ev
G2a:__ZNK25CameraStackRenderingState31CalculateStereoCameraTargetTypeEv
V9i:_AnimatorControllerPlayable_INTERNAL_CALL_GetAnimatorControllerInternal_m239716681
Wlb:__ZN14RenderSettings23VirtualRedirectTransferER14SafeBinaryRead
Vxc:__ZNK13b2CircleShape5CloneEP16b2BlockAllocator
zId:__ZN6il2cpp2os10ThreadImpl15CurrentThreadIdEv
xtf:_Collection_1_System_Collections_IList_get_IsReadOnly_m4005091053_gshared
Iw:__ZN30dense_hashtable_const_iteratorINSt3__24pairIKN11UnityEngine9Animation14GenericBindingENS3_10BoundIndexEEES4_NS3_25GenericBindingHashFunctorEN14dense_hash_mapIS4_S6_S8_NS3_30GenericBindingValueArrayUniqueE13stl_allocatorIS7_L18MemLabelIdentifier1ELi16EEE9SelectKeyESA_SD_E30advance_past_empty_and_deletedEv
oTe:_Array_InternalArray__ICollection_Contains_TisColor32_t874517518_m2818328910_gshared
Rkb:__ZN17GlobalGameManager8TransferI17RemapPPtrTransferEEvRT_
P4f:_AppDomainInitializer_EndInvoke_m4003801172
$Lj:__ZL25UnresolvedVirtualCall_212P12Il2CppObjecti38CustomAttributeNamedArgument_t94157543PK10MethodInfo
XWh:_RaycastHit2D_get_point_m442317739
AMe:_LayoutGroup_SetChildAlongAxis_m1615929339
Ilb:__ZN16LevelGameManager8TransferI18StreamedBinaryReadILb0EEEEvRT_
VYc:_UNITY_tt_face_load_fpgm
lxb:__ZN12InputManagerD0Ev
wpd:__ZN15dense_hashtableINSt3__24pairIK10KeyWrapperINS1_IPK9FieldInfoP11Il2CppClassEEEjEES9_17ReflectionMapHashIS8_EN14dense_hash_mapIS9_jSD_NS9_14EqualsComparerINS0_8equal_toIS8_EEEENS0_9allocatorISB_EEE9SelectKeyESI_SK_E4findERSA_
ZHe:_DefaultControls_CreateUIObject_m2810394112
Afd:__ZN15dense_hashtableINSt3__24pairIK10KeyWrapperI13dynamic_arrayIPK10Il2CppTypeLj4EEEPFvvEEES8_N6il2cpp8metadata19Il2CppSignatureHashEN14dense_hash_mapIS8_SB_SF_NS8_14EqualsComparerINSE_22Il2CppSignatureCompareEEENS0_9allocatorISC_EEE9SelectKeyESJ_SL_E8min_sizeEjj
dSi:__Z37RuntimeInvoker_FillMethod_t1640962579PK10MethodInfoPvPS2_
CPh:_GUIStyle_get_overflow_m1125058093
Ccj:_AnimatorControllerPlayable_Play_m4092315465
Q2g:__ZL109PlayerConnection_t3517219175_CustomAttributesCacheGenerator_PlayerConnection_DisconnectedCallback_m4115432464P21CustomAttributesCache
tei:_ScrollRect_get_scrollSensitivity_m1160815603
tzh:_UnicodeEncoding_GetBytes_m1337660232
PPb:__Z18Transfer_BlittableI18StreamedBinaryReadILb0EELb1EtEvRK29SerializationCommandArgumentsR31RuntimeSerializationCommandInfo
TQj:_posix_memalign
$2b:__ZN13ProduceHelperI12MeshRendererLb0EE7ProduceE18MemLabelIdentifier18ObjectCreationMode
Glf:_List_1_get_Count_m1249351212_gshared
Tui:_InternalEnumerator_1_get_Current_m747506907_AdjustorThunk
k3i:_Camera_get_eventMask_m4241372419
tNh:_GUILayoutUtility_LayoutFromEditorWindow_m1847418289
O9f:_CertificateValidationCallback2_BeginInvoke_m3996282202
Hgg:_SslClientStream_get_ClientCertSelectionDelegate_m2316959461
lfe:_SynchronizedArrayListWrapper_get_SyncRoot_m1466044127
V2:__ZNK15MonoScriptCache7ReleaseEv
sbd:__ZN6il2cpp2vm5Class13HasReferencesEP11Il2CppClass
ig:_glBindTexture
Cof:_Collection_1_ClearItems_m3585785594_gshared
gPj:_snprintf
V9g:__ZL84HorizontalOrVerticalLayoutGroup_t1968298610_CustomAttributesCacheGenerator_m_SpacingP21CustomAttributesCache
bnh:_Binder__ctor_m1361613966
kPe:_InputField_set_caretPosition_m888572237
Yrh:_ILGenerator__cctor_m3943061018
Cee:_ArrayListWrapper_Clone_m1506311066
Y7i:_Event_get_character_m3740896233
Bma:__Z36scripting_liveness_calculation_begin17ScriptingClassPtriPFvPP12Il2CppObjectiPvES3_PFvvES7_
jag:_CipherSuite_set_Context_m4127897124
LGa:__ZN16UniformCacheGLES6CreateERK20GpuProgramParameters
NAh:_UTF8Encoding_Fallback_m811555654
xIh:_UInt64_CompareTo_m3513742483
Ltj:_ScriptableObject_t1975622470_marshal_pinvoke_cleanup
f6d:_Encoding_GetString_m1894033578
Xyf:_ReadOnlyCollection_1_System_Collections_IList_Clear_m1918003010_gshared
UAj:_Nullable_1_Equals_m3860982732_gshared
SXj:_emscripten_glGetProgramInfoLog__wrapper
RYg:__ZL94Font_t4239498691_CustomAttributesCacheGenerator_Font_InvokeTextureRebuilt_Internal_m2007522718P21CustomAttributesCache
RAh:_UTF8Encoding_InternalGetChars_m373801468
F5:__ZN17PersistentManager23DestroyFromFileInternalEi
yUg:__ZL98Object_t1021602117_CustomAttributesCacheGenerator_Object_DoesObjectWithInstanceIDExist_m2570795274P21CustomAttributesCache
Utj:_ScrollViewState__ctor_m535685782
fwe:_Enum_ToString_m2112979707
Evj:_TextGenerator_ValidatedSettings_m1640214759
UEg:__ZL55SoapServices_t3397513225_CustomAttributesCacheGeneratorP21CustomAttributesCache
Vbh:_MonoMethodMessage_get_MethodName_m3580519713
tv:__ZN26AnimatorControllerPlayable18PrepareForPlaybackERN7mecanim6memory9AllocatorE
ove:_Enum_t2459695545_marshal_pinvoke_cleanup
IAh:_UTF8Encoding_GetBytes_m4170182058
O5e:_Mesh_GetAllocArrayFromChannel_TisColor32_t874517518_m2030100417_gshared
fga:__ZN22CreateGpuProgramOutputC2Ev
aqg:_X509Chain__ctor_m2242540866
JKh:_Object__ctor_m197157284
yTg:__ZL99SortingLayer_t221838959_CustomAttributesCacheGenerator_SortingLayer_GetLayerValueFromID_m4029056996P21CustomAttributesCache
iPf:_MemoryStream_InternalConstructor_m2423667240
Unj:_CapturingGroup_set_Index_m2175936006
myi:__Z70RuntimeInvoker_Il2CppObject_Il2CppObject_Il2CppObject_SByte_t454417549PK10MethodInfoPvPS2_
Tch:_SoapMethodAttribute_SetReflectionObject_m3431595769
Ygi:_Slider_set_maxValue_m2951480075
nbd:__ZN6il2cpp2vmL17SetupGCDescriptorEP11Il2CppClass
yQe:_InputField_OnSubmit_m2856515494
ha:invoke_vidi
cyj:_Vector2_op_Subtraction_m1984215297
Q8b:__ZNK15GUIEventManager15GetEventAtIndexEi
i0c:__ZN2UI14CanvasRenderer17SyncDirtyElementsER8JobFence
MPb:__Z18Transfer_BlittableI18StreamedBinaryReadILb0EELb0ExEvRK29SerializationCommandArgumentsR31RuntimeSerializationCommandInfo
QGe:_ColorBlock_op_Inequality_m1517672458
eHd:__ZN6il2cpp5utils11StringUtils15StringDuplicateEPKc
R4a:__Z15CanAddComponentR10GameObjectPKN5Unity4TypeE
Afa:__ZNK9ShaderLab21ShaderRasterStateDesc16ToGfxRasterStateEPK19ShaderPropertySheetS3_R14GfxRasterState
yV:_tlsf_memalign
hkh:_CspParameters__ctor_m2480441577
LTd:__ZN6il2cpp2os9EventImplC2Ebb
fhj:_DynamicPropertyCollection_NotifyMessage_m840388347
cpj:_Uri_ParseUri_m5711497
tB:__ZN4PPtrI13MonoBehaviourE8TransferI19StreamedBinaryWriteILb0EEEEvRT_
Rcb:__ZNK5Unity9Component26GetTypeInfoVirtualInternalEv
L$:__Z20IsMatrixBuiltinParamPKcPi
Epf:_Collection_1_CheckWritable_m2467777750_gshared
T7g:__ZL108MaskableGraphic_t540192618_CustomAttributesCacheGenerator_MaskableGraphic_ParentMaskStateChanged_m3643747340P21CustomAttributesCache
Xqd:__ZN15dense_hashtableINSt3__24pairIK10KeyWrapperINS1_IPK10MethodInfoP11Il2CppClassEEEjEES9_17ReflectionMapHashIS8_EN14dense_hash_mapIS9_jSD_NS9_14EqualsComparerINS0_8equal_toIS8_EEEENS0_9allocatorISB_EEE9SelectKeyESI_SK_E16reset_thresholdsEv
t2b:__ZN8Renderer19PostInitializeClassEv
nOc:__ZN20TextRenderingPrivate15DynamicFontDataD2Ev
vli:_InternalEnumerator_1_get_Current_m1943362081_AdjustorThunk
Iyj:_Vector3_get_sqrMagnitude_m1814096310_AdjustorThunk
nQd:__ZN6il2cpp6icalls8mscorlib6System8Delegate23CreateDelegate_internalEP20Il2CppReflectionTypeP12Il2CppObjectP22Il2CppReflectionMethodb
pnh:_Default_check_type_m2363631305
DDb:__ZN18DelayedCallManager18CancelCallDelayed2E4PPtrI6ObjectEPF15CallObjectStatePS1_PvES7_
eff:_List_1__cctor_m911493842_gshared
bbj:_AnimatorControllerPlayable_INTERNAL_CALL_GetLayerIndexInternal_m1847150746
Qbb:__ZN25ThreadsafeLinearAllocator10ReallocateEPvji
BFb:__Z18Transfer_BlittableI14SafeBinaryReadLb1E11QuaternionfEvRK29SerializationCommandArgumentsR31RuntimeSerializationCommandInfo
iYe:_Array_InternalArray__IndexOf_TisRaycastHit2D_t4063908774_m3739817942_gshared
cxh:_MonoProperty_GetAccessors_m3704698731
eFi:__Z146RuntimeInvoker_Il2CppObject_Int32_t2071877448_Il2CppObject_ObjectU5BU5DU26_t3223402458_Il2CppObject_Il2CppObject_Il2CppObject_ObjectU26_t597476745PK10MethodInfoPvPS2_
CPd:_GC_disable
dub:__ZN10Matrix4x4f8TransferI14SafeBinaryReadEEvRT_
ySf:_UnmanagedMemoryStream_ReadByte_m2501145010
cud:__ZN14dense_hash_mapI10KeyWrapperIPK22Il2CppGenericParameterEPK24MonoGenericParameterInfoN6il2cpp5utils11PointerHashIS2_EENS4_14EqualsComparerINSt3__28equal_toIS3_EEEENSD_9allocatorINSD_4pairIKS4_S7_EEEEE15set_deleted_keyERSJ_
qv:__ZN14AvatarPlayback8StopTimeEv
_5:__Z6AppendRKN4core12basic_stringIcNS_20StringStorageDefaultIcEEEEPKc
yvg:__ZL60MulticastDelegate_t3201952435_CustomAttributesCacheGeneratorP21CustomAttributesCache
Ama:__ZL14OnWorldStoppedv
lNb:__Z18Transfer_BlittableI18StreamedBinaryReadILb1EELb0E8Vector3fEvRK29SerializationCommandArgumentsR31RuntimeSerializationCommandInfo
Reb:__ZN14CachingManager15ClearTempFolderEv
W6g:__ZL61Image_t2042527209_CustomAttributesCacheGenerator_m_FillCenterP21CustomAttributesCache
Mza:__ZN7ApiGLES18ClearBufferSubDataEjN2gl12BufferTargetEll
ywj:_Touch_get_type_m3264731406_AdjustorThunk
vdc:__Z37Camera_Get_Custom_PropAllCamerasCountv
ltb:__ZN14Texture2DArray8TransferI18StreamedBinaryReadILb0EEEEvRT_
$xd:__ZN6il2cpp6icalls8mscorlib6System5Array9GetLengthEP11Il2CppArrayi
N$a:__Z18ApplyOcclusionMaskR19ProbeOcclusionCacheRK17LightProbeContextRK10RenderNodeb
zwa:__ZN13GfxDeviceGLES13AfterDrawCallEv
COf:_FileStreamAsyncResult__ctor_m1096228032
wTc:_Split_Cubic
eb:invoke_fiiii
WTg:__ZL78Time_t31991979_CustomAttributesCacheGenerator_Time_get_unscaledTime_m862335845P21CustomAttributesCache
Ere:_DBNull_System_IConvertible_ToSByte_m1228193074
jof:_Collection_1__ctor_m2818834331_gshared
b5e:_Array_InternalArray__get_Item_TisUICharInfo_t3056636800_m3872982785_gshared
Whf:_List_1__ctor_m2168280176_gshared
BId:__ZN6il2cpp2os10ThreadImpl22CreateForCurrentThreadEv
Arf:_Collection_1_Insert_m3041550124_gshared
cOf:_FileStream_FlushBuffer_m2594140542
upc:__Z64Register_UnityEngine_GUIStyle_GetFontInternalDuringLoadingThreadv
iTc:_ft_black_render
OLd:__ZN6il2cpp2vm8Profiler12GCHeapResizeEx
kVj:dynCall_viiifi
CDa:__ZN18GfxFramebufferGLES20ActiveContextChangedEPP17RenderSurfaceBaseS2_
fZa:__ZN19ShaderPropertySheet17UpdateTextureInfoEiN9ShaderLab16FastPropertyNameEPK10TextureRef
yDa:__Z19PluginsRenderMarkeri
CUg:__ZL80Object_t1021602117_CustomAttributesCacheGenerator_Object_Instantiate_m2439155489P21CustomAttributesCache
kC:__ZN10HumanTrait18InitializeBoneNameEv
Ooj:__ZN23InterfaceActionInvoker1ItE6InvokeEjP11Il2CppClassP12Il2CppObjectt
Rsb:__ZN14Texture2DArray21AwakeFromLoadThreadedEv
FQb:__Z29Transfer_Blittable_ArrayFieldI18StreamedBinaryReadILb0EEyEvRT_R9ArrayInfoRK23StaticTransferFieldInfo
qrj:_X509CertificateEnumerator_get_Current_m3129374511
r7h:_EqualityComparer_1_get_Default_m875724809_gshared
RFd:__ZNSt3__214__split_bufferIN6il2cpp2vm5Image20EmbeddedResourceDataERNS_9allocatorIS4_EEEC2EjjS7_
QQa:__ZN5Image13ReformatImageERK14ImageReferenceii13TextureFormatNS0_8BlitModeE
GCg:__ZL57DispIdAttribute_t607560947_CustomAttributesCacheGeneratorP21CustomAttributesCache
zH:__ZN12AudioManager17RemoveAudioSourceEP11AudioSource
E6i:_CullingGroup_Finalize_m3172731580
xAj:_AesManaged_get_KeySize_m2773901127
S4e:_Array_InternalArray__get_Item_TisUInt64_t2909196914_m2580870875_gshared
Qvd:__ZN15dense_hashtableINSt3__24pairIK10KeyWrapperINS1_IP11Il2CppClassjEEES4_EES6_N6il2cpp8metadata14ArrayClassHashEN14dense_hash_mapIS6_S4_SB_NS6_14EqualsComparerINSA_17ArrayClassCompareEEENS0_9allocatorIS8_EEE9SelectKeyESF_SH_E4swapERSK_
I0b:__ZN13ProduceHelperI14SpriteRendererLb0EE7ProduceE18MemLabelIdentifier18ObjectCreationMode
KP:__ZN5physx14PxLightCpuTask12addReferenceEv
FFc:__Z10b2DistanceP16b2DistanceOutputP14b2SimplexCachePK15b2DistanceInput
Zpb:__ZN21EnlightenSceneMapping8TransferI19StreamedBinaryWriteILb0EEEEvRT_
ODd:__ZN6il2cpp2gc16GarbageCollector19InitializeFinalizerEv
Klc:__ZN10GUIManager10DoGUIEventER10InputEventb
Bag:_Context_get_ClientWriteKey_m2235605337
AZh:_Enumerator__ctor_m3597047336_AdjustorThunk
tLi:__Z39RuntimeInvoker_RegexOptions_t2418259727PK10MethodInfoPvPS2_
y0:__Z20CalculateSqrDistanceRK8Vector3fRK4AABB
JHi:__Z48RuntimeInvoker_Byte_t3683104436_Int64_t909078037PK10MethodInfoPvPS2_
vL:__Z32AudioMixerDuckingProcessCallbackP21UnityAudioEffectStatePfS1_jii
coh:_CustomAttributeTypedArgument_GetHashCode_m999147081_AdjustorThunk
z1b:__ZN26CustomRenderTextureManagerD2Ev
lOf:_FileStream_Read_m3880951166
fI:__ZN12AudioManager8TransferI24GenerateTypeTreeTransferEEvRT_
hja:__Z25GetBytesFromTextureFormat13TextureFormat
OOi:__Z105RuntimeInvoker_Void_t1841601450_Int32_t2071877448_Single_t2076509932_Int32_t2071877448_Single_t2076509932PK10MethodInfoPvPS2_
hpa:__ZN9Texture3D19UnloadFromGfxDeviceEb
hTj:dynCall_iiffi
x4e:_Array_InternalArray__get_Item_TisInt16_t4041245914_m2533263979_gshared
Ri:_emscripten_webgl_init_context_attributes
DLg:__ZL67Math_t2022911894_CustomAttributesCacheGenerator_Math_Min_m105057611P21CustomAttributesCache
JB:__ZN16MecanimAnimation25RegisterIAnimationBindingEPKN5Unity4TypeEiP17IAnimationBinding
R3:__Z32scripting_class_get_assemblyname17ScriptingClassPtr
KFc:__ZN9b2Simplex9ReadCacheEPK14b2SimplexCachePK15b2DistanceProxyRK11b2TransformS5_S8_
n2h:_Dictionary_2_Resize_m2532139610_gshared
Uuj:_StackTraceUtility__cctor_m1132099289
xjf:_List_1_IndexOf_m2019441835_gshared
SDh:_TimeSpan_Equals_m2029123271_AdjustorThunk
uhd:__ZN6il2cpp2vm13MetadataCache23GetInvokerMethodPointerEPK10MethodInfoPK20Il2CppGenericContext
SHa:__ZN9GfxDevice21RegisterNativeTextureE9TextureIDi16TextureDimension
_xe:_CultureInfo__ctor_m456863818
oRd:__ZN6il2cpp6icalls8mscorlib6System10Reflection4Emit11TypeBuilder20create_generic_classEP27Il2CppReflectionTypeBuilder
Jkd:__ZNSt3__26vectorIPK10MethodInfoNS_9allocatorIS3_EEE26__swap_out_circular_bufferERNS_14__split_bufferIS3_RS5_EE
D8e:_Enumerator_MoveNext_m2504790928_gshared
$8g:__ZL61Slider_t297367283_CustomAttributesCacheGenerator_m_HandleRectP21CustomAttributesCache
VV:__ZN3WWW20GetCachedErrorStringEv
fwd:__ZN15dense_hashtableINSt3__24pairIK10KeyWrapperINS1_IP11Il2CppClassjEEES4_EES6_N6il2cpp8metadata14ArrayClassHashEN14dense_hash_mapIS6_S4_SB_NS6_14EqualsComparerINSA_17ArrayClassCompareEEENS0_9allocatorIS8_EEE9SelectKeyESF_SH_E13set_empty_keyERKS8_
HWb:__ZN12ScriptMapperD2Ev
N3g:__ZL85AxisEventData_t1524870173_CustomAttributesCacheGenerator_U3CmoveDirU3Ek__BackingFieldP21CustomAttributesCache
LUd:_KeyedHashAlgorithm_Dispose_m1864300576
jrj:_X509Certificate_PEM_m49854707
d3f:_PKCS12_get_RNG_m3620550062
tng:_X509BasicConstraintsExtension__ctor_m3320418592
tqj:_ExtendedKeyUsageExtension_Decode_m901297139
OTb:__Z32TransferEnumWithNameForceIntSizeI14SafeBinaryRead7FogModeEvRT_RT0_PKc17TransferMetaFlags
qjc:__Z52Register_UnityEngine_RenderTexture_Internal_GetWidthv
dyg:__ZL89SafeWaitHandle_t481461830_CustomAttributesCacheGenerator_SafeWaitHandle__ctor_m1710231470P21CustomAttributesCache
mOd:_GC_check_leaked
pVb:__ZN9ShaderLab20SerializedSubProgram16TextureParameter8TransferI19StreamedBinaryWriteILb0EEEEvRT_
F$e:_Array_InternalArray__Insert_TisVector4_t2243707581_m1643342708_gshared
Gai:_Mask_OnSiblingGraphicEnabledDisabled_m865494155
Yjg:_KeysCollection_System_Collections_ICollection_get_SyncRoot_m2289369147
AT:__ZN11UnityEngine15CloudWebService16SessionContainer8AddEventEPNS0_14CloudEventInfoE
NGa:__Z4TrimRKN4core12basic_stringIcNS_20StringStorageDefaultIcEEEES5_
eii:_Text_set_resizeTextMaxSize_m4034967714
Lxg:__ZL55GuidAttribute_t222072359_CustomAttributesCacheGeneratorP21CustomAttributesCache
qLh:_GUIStyle_SetDefaultFont_m2095841351
Pnh:_CustomAttributeNamedArgument_Equals_m2691468532
Iug:__ZL74String_t_CustomAttributesCacheGenerator_String_Concat_m3881798623____args0P21CustomAttributesCache
MFg:__ZL103CryptoConfig_t896479599_CustomAttributesCacheGenerator_CryptoConfig_CreateFromName_m2169102076____args1P21CustomAttributesCache
gsb:__ZN10VertexData8TransferI14SafeBinaryReadEEvRT_
yJ:__ZN4FMOD8ChannelI8setDelayE14FMOD_DELAYTYPEjj
Fje:_Stack__ctor_m2410583781
gPd:_GC_malloc_atomic
TRd:__ZN6il2cpp5utils6Memory13AlignedMallocEjj
OD:__Z93Register_UnityEngine_Experimental_Director_AnimationClipPlayable_INTERNAL_CALL_SetApplyFootIKv
dvj:_StateMachineBehaviour_OnStateExit_m4064436078
r_i:__Z48RuntimeInvoker_UIVertex_t1204258818_Il2CppObjectPK10MethodInfoPvPS2_
TFd:__ZNSt3__214__split_bufferIN6il2cpp2vm5Image20EmbeddedResourceDataERNS_9allocatorIS4_EEED2Ev
veb:__ZN15dense_hashtableINSt3__24pairIKN4core12basic_stringIcNS2_20StringStorageDefaultIcEEEEP11AssetBundleEES6_20StringHash32FunctionIS6_EN14dense_hash_mapIS6_S9_SC_NS0_8equal_toIS6_EENS0_9allocatorISA_EEE9SelectKeyESF_SH_E4findERS7_
Y1:__ZL20SortItemByInstanceIDRKN18AwakeFromLoadQueue4ItemES2_
wth:_TypeBuilder_create_runtime_class_m2719530260
OWd:_RNGCryptoServiceProvider_RngClose_m2921734810
N$g:__ZL85GUIStyle_t1799908754_CustomAttributesCacheGenerator_GUIStyle_set_richText_m1853532836P21CustomAttributesCache
cv:__ZNK34AnimationStateMachineMixerPlayable26GetInterruptedPosePlayableEv
X7c:__ZN20UnityConnectSettings8TransferI24GenerateTypeTreeTransferEEvRT_
$s:__ZN34BlobWriteTransferSTLStyleArrayImplI22OffsetPtrArrayTransferIbEEclERS1_17TransferMetaFlagsR9BlobWrite
XYi:__Z37RuntimeInvoker_LabelFixup_t4090909514PK10MethodInfoPvPS2_
uej:_GCHandle_GetHashCode_m1664905595_AdjustorThunk
nXf:_SimpleCollator_IsHalfKana_m4255579023
Nhg:_InternalAsyncResult_get_Count_m1291942796
hmf:_Collection_1_System_Collections_IList_Contains_m3365884450_gshared
BKd:__ZNK15dense_hashtableINSt3__24pairIK10KeyWrapperIPK19Il2CppGenericMethodEP10MethodInfoEES6_N6il2cpp8metadata23Il2CppGenericMethodHashEN14dense_hash_mapIS6_S9_SD_NS6_14EqualsComparerINSC_26Il2CppGenericMethodCompareEEENS0_9allocatorISA_EEE9SelectKeyESH_SJ_E10test_emptyERK30dense_hashtable_const_iteratorISA_S6_SD_SL_SH_SJ_E
HMa:__Z16FlaggedAsSkippedIN4core12basic_stringIcNS0_20StringStorageDefaultIcEEEEEbRK13FileEntryInfoRKT_19FileEnumerationFlag
Qtf:_Collection_1_set_Item_m3440986310_gshared
A7:__ZL31InitializeRendererUpdateManagerPv
YEe:_BaseMeshEffect__ctor_m2843647600
vO:__ZN13AudioListener12CleanupClassEv
scg:_ClientSessionInfo_Dispose_m2571428025
HRe:_LayoutGroup_DelayedSetDirty_m4276695617
Efg:_RecordProtocol_decryptRecordFragment_m2510859489
v$g:__ZL105GUIStyle_t1799908754_CustomAttributesCacheGenerator_GUIStyle_INTERNAL_set_Internal_clipOffset_m2024478897P21CustomAttributesCache
Aeb:__Z28GetAbsoluteAssetBundlePrefixRKN4core12basic_stringIcNS_20StringStorageDefaultIcEEEE
Kze:_BaseRaycaster_get_sortOrderPriority_m3340181311
ayb:__ZN11TimeManager8TransferI19StreamedBinaryWriteILb0EEEEvRT_
TOf:_DelegatePInvokeWrapper_ReadDelegate_t3184826381
EOg:__ZL91HashSet_1_t2624254809_CustomAttributesCacheGenerator_HashSet_1_OnDeserialization_m627602129P21CustomAttributesCache
vUc:_compare_uni_maps
btf:_Collection_1_get_Count_m804306016_gshared
m6c:__ZN11UnityEngine15PlatformWrapper27GetGraphicsCapsSupportFlagsEv
D_c:__ZNSt3__218__insertion_sort_3IRPFbPN2UI6CanvasES3_EPS3_EEvT0_S8_T_
_ug:__ZL80Decimal_t724701077_CustomAttributesCacheGenerator_Decimal_op_Explicit_m714968249P21CustomAttributesCache
Vse:_Decimal_Equals_m1115043331
ZMb:__ZN12NativeBufferI16Converter_StringE15SetupForWritingER9ArrayInfo
GDe:_StandaloneInputModule_DeactivateModule_m2952848884
VWj:___cxa_end_catch__wrapper
Z2g:__ZL119RenderPipelineManager_t984453155_CustomAttributesCacheGenerator_RenderPipelineManager_CleanupRenderPipeline_m2242901458P21CustomAttributesCache
m1h:_ValueCollection_System_Collections_Generic_ICollectionU3CTValueU3E_Clear_m231380274_gshared
LAe:_Entry__ctor_m1176697586
xMf:_BinaryReader_ReadUInt32_m1363572147
MKg:__ZL79Convert_t2607082565_CustomAttributesCacheGenerator_Convert_ToUInt32_m3391339025P21CustomAttributesCache
w_i:__Z37RuntimeInvoker_Enumerator_t1147558387PK10MethodInfoPvPS2_
xlb:__ZThn268_N31CanvasBatchIntermediateRenderer20OnAssetBoundsChangedEv
v4a:__ZN13MonoBehaviour22DoScriptRebuildWarningEv
xdc:__Z38Camera_CUSTOM_INTERNAL_CALL_RaycastTryP12Il2CppObjectRK3Rayfi
nii:_Text_get_verticalOverflow_m3134063496
Wxd:__ZN6il2cpp6icalls8mscorlib6System5Array13ClearInternalEP11Il2CppArrayii
lej:_GCHandle_get_Target_m2327042781
Prd:__ZNK15dense_hashtableINSt3__24pairIK10KeyWrapperINS1_IPK11Il2CppImageP11Il2CppClassEEEjEES9_17ReflectionMapHashIS8_EN14dense_hash_mapIS9_jSD_NS9_14EqualsComparerINS0_8equal_toIS8_EEEENS0_9allocatorISB_EEE9SelectKeyESI_SK_E12test_deletedERK24dense_hashtable_iteratorISB_S9_SD_SM_SI_SK_E
ISj:_llvm_cttz_i32
Ong:_PublicKey_DecodeDSA_m1169363495
Wmc:__ZN11IMGUIModule25GetGUIStyleScriptingClassEv
tXc:_tt_get_interface
Rjh:_AsymmetricKeyExchangeFormatter__ctor_m3362140205
Zyd:__ZN6il2cpp5utils9PathUtils7CombineIcEENSt3__212basic_stringIT_NS3_11char_traitsIS5_EENS3_9allocatorIS5_EEEERKSA_SC_
Pjg:_NameObjectCollectionBase_BaseGet_m667273025
ytc:__ZN9JSONWrite8TransferI13dynamic_arrayIiLj4EEEEvRT_PKc17TransferMetaFlags
w_:__Z18ConvertUTF16toUTF8PPKtS0_PPhS2_15ConversionFlags
TJd:__ZN6il2cpp2os20PathErrnoToErrorCodeERKNSt3__212basic_stringIcNS1_11char_traitsIcEENS1_9allocatorIcEEEEi
hFh:_TypeLoadException__ctor_m1903359728
M9c:__ZL16my_g_bit_nth_msfj
I$h:_Transform_1_BeginInvoke_m3014766640_gshared
MUd:_KeySizes__ctor_m3526899007
uwd:__ZN15dense_hashtableINSt3__24pairIK10KeyWrapperIP11Il2CppClassES4_EES5_N6il2cpp8metadata16SZArrayClassHashEN14dense_hash_mapIS5_S4_SA_NS5_14EqualsComparerINS9_19SZArrayClassCompareEEENS0_9allocatorIS7_EEE9SelectKeyESE_SG_E12expand_arrayEjN21dense_hash_map_traits17integral_constantIbLb0EEE
tIf:_Int16_System_IConvertible_ToInt32_m191782913_AdjustorThunk
U1g:__ZL69ArgumentCache_t4810721_CustomAttributesCacheGenerator_m_FloatArgumentP21CustomAttributesCache
gnf:_Collection_1_CopyTo_m1578267616_gshared
C5d:_EncoderReplacementFallback__ctor_m2208438262
tUa:__Z23SetupStereoFlareElementP11FlareVertexRK8Vector2fS3_S3_RK11ColorRGBA32RK10Matrix4x4fRK8Vector3fb
Fbd:__ZN6il2cpp2vm5Class15GetInstanceSizeEPK11Il2CppClass
ua:invoke_iiiifiiii
lyf:_ReadOnlyCollection_1_System_Collections_Generic_ICollectionU3CTU3E_Remove_m3751131234_gshared
I4h:_Dictionary_2_CopyTo_m1495142643_gshared
ywc:__ZN9rapidjson8internal6u64toaEyPc
Och:_SoapFieldAttribute_IsInteropXmlElement_m4243409842
$Ej:_EventFunction_1_BeginInvoke_m3064802067_gshared
uLg:__ZL67IndexOutOfRangeException_t3527622107_CustomAttributesCacheGeneratorP21CustomAttributesCache
bwd:__ZNK15dense_hashtableINSt3__24pairIK10KeyWrapperINS1_IP11Il2CppClassjEEES4_EES6_N6il2cpp8metadata14ArrayClassHashEN14dense_hash_mapIS6_S4_SB_NS6_14EqualsComparerINSA_17ArrayClassCompareEEENS0_9allocatorIS8_EEE9SelectKeyESF_SH_E12test_deletedERK30dense_hashtable_const_iteratorIS8_S6_SB_SJ_SF_SH_E
bNf:_Directory_GetFiles_m4036267478
Dve:_Enum_System_IConvertible_ToType_m2669300536
rGf:_NumberFormatInfo_get_CurrencyNegativePattern_m3972163809
dEa:__ZL19BlitFramebufferImplRN4gles23BlitFramebufferDrawQuadER9GfxDevice9TextureIDRK8Vector4f
sIb:__Z18Transfer_BlittableI17RemapPPtrTransferLb0EhEvRK29SerializationCommandArgumentsR31RuntimeSerializationCommandInfo
oyi:__Z44RuntimeInvoker_Byte_t3683104436_Il2CppObjectPK10MethodInfoPvPS2_
aqd:__ZN15dense_hashtableINSt3__24pairIK10KeyWrapperIPK10Il2CppTypeEjEES6_N6il2cpp8metadata14Il2CppTypeHashEN14dense_hash_mapIS6_jSB_NS6_14EqualsComparerINSA_26Il2CppTypeEqualityComparerEEENS0_9allocatorIS8_EEE9SelectKeyESF_SH_E4findERS7_
Kwf:_ReadOnlyCollection_1_System_Collections_IList_Add_m2333231354_gshared
rNc:_UNITY_FT_List_Add
mth:_OpCodes__cctor_m939885911
W1b:__ZN14Texture2DArray11InitTextureEiii13TextureFormatb
v8f:_PKCS1_RSASP1_m1748738009
enb:__ZN12CubemapArray21AwakeFromLoadThreadedEv
mqj:_UriParser_InitializeAndValidate_m251943319
gZd:_SymmetricAlgorithm_set_Padding_m3081984460
Lxb:__ZN9InputAxis8TransferI18StreamedBinaryReadILb0EEEEvRT_
EFg:__ZL91X509Certificate_t283079845_CustomAttributesCacheGenerator_X509Certificate_Reset_m1676863543P21CustomAttributesCache
Pde:_ArrayList_RemoveAt_m2578928333
cGb:__Z18Transfer_BlittableI14SafeBinaryReadLb0EaEvRK29SerializationCommandArgumentsR31RuntimeSerializationCommandInfo
haj:_AnimatorControllerPlayable_INTERNAL_CALL_GetBoolString_m538178071
Qvf:_ReadOnlyCollection_1_System_Collections_IList_set_Item_m1233322304_gshared
Aqj:_GeneralNames_get_DNSNames_m2721668874
tve:_Enum_System_IConvertible_ToByte_m38374586
yvf:_ReadOnlyCollection_1_System_Collections_Generic_IListU3CTU3E_RemoveAt_m1592158292_gshared
Tlh:_PlatformNotSupportedException__ctor_m3301654967
fWj:_emscripten_glFrustum__wrapper
Wfg:_ReceiveRecordAsyncResult_get_CompletedWithError_m2670396551
Gse:_Decimal_Equals_m1798565377
Nkb:__ZN17GlobalGameManager8TransferI24GenerateTypeTreeTransferEEvRT_
p7g:__ZL66InputField_t1631627530_CustomAttributesCacheGenerator_m_CaretColorP21CustomAttributesCache
cqh:_TypeBuilder_check_created_m2929267877
eRa:__Z20SyncFenceCullResultsR11CullResults
EFa:__ZN15TextureTFMethod20IsBoneCountSupportedEi
jD:__ZN26AnimatorControllerPlayable9GotoStateEiifff
vOh:_GUISkin_set_horizontalScrollbarThumb_m2119687595
kdh:_ObjRef__ctor_m1486312270
Hpe:_DateTime_System_IConvertible_ToSByte_m2575078084_AdjustorThunk
BJb:__Z22TransferField_NonArrayI17RemapPPtrTransfer27Converter_SimpleNativeClassI8GUIStyleEEvRK23StaticTransferFieldInfoR31RuntimeSerializationCommandInfoRT0_
b1i:_AnimatorStateInfo_IsTag_m1529621725_AdjustorThunk
c0b:__ZNK17AnimationCurveTplIfE20EvaluateWithoutCacheEfRf
aId:__ZN6il2cpp2os6Thread12QueueUserAPCEPFvPvES2_
hVe:_Array_InternalArray__IEnumerable_GetEnumerator_TisDictionaryEntry_t3048875398_m3498834924_gshared
fRh:_GUIStyleState__ctor_m3611888666
Rof:_Collection_1_IsValidItem_m1304951912_gshared
_7b:__ZN4Mesh10SetNormalsEPK8Vector3fj
Uwh:_PropertyInfo__ctor_m1808219471
ZJc:__Z66Register_UnityEngine_Physics2D_INTERNAL_CALL_GetRayIntersectionAllv
Ule:_Convert_ToDateTime_m4161927553
ZLi:__Z76RuntimeInvoker_Void_t1841601450_RegexOptionsU26_t3063574985_SByte_t454417549PK10MethodInfoPvPS2_
iqh:_TypeBuilder_GetConstructors_m774120094
lZg:__ZL87Canvas_t209405766_CustomAttributesCacheGenerator_Canvas_set_overrideSorting_m3982973573P21CustomAttributesCache
bEc:__ZNSt3__26vectorIxNS_9allocatorIxEEE6assignIPxEENS_9enable_ifIXaasr21__is_forward_iteratorIT_EE5valuesr16is_constructibleIxNS_15iterator_traitsIS7_E9referenceEEE5valueEvE4typeES7_S7_
or:__ZN17AnimationCurveTplIfE8TransferI14SafeBinaryReadEEvRT_
fBg:__ZL72AssemblyDefaultAliasAttribute_t1774139159_CustomAttributesCacheGeneratorP21CustomAttributesCache
Foj:_RegularExpression_set_GroupCount_m2991393456
Zwe:_Calendar_get_EraNames_m452820602
xrb:__ZNSt3__26vectorIN15QualitySettings14QualitySettingENS_9allocatorIS2_EEE6assignIPS2_EENS_9enable_ifIXaasr21__is_forward_iteratorIT_EE5valuesr16is_constructibleIS2_NS_15iterator_traitsIS9_E9referenceEEE5valueEvE4typeES9_S9_
Zcb:__ZNK5Unity9Component10GetEnabledEv
uSa:__ZNK19ShaderPropertySheet11HasPropertyERKN9ShaderLab16FastPropertyNameE
spe:_DateTime_System_IConvertible_ToByte_m2670443498_AdjustorThunk
Zld:_il2cpp_class_get_image
b5:__Z16AsyncReadRequestP16AsyncReadCommand
DMg:__ZL81BigInteger_t925946153_CustomAttributesCacheGenerator_BigInteger__ctor_m4013661868P21CustomAttributesCache
m6f:_BigInteger_op_Addition_m1734797151
KRi:__Z110RuntimeInvoker_Boolean_t3825574718_Vector2_t2243707579_Vector2_t2243707579_Single_t2076509932_SByte_t454417549PK10MethodInfoPvPS2_
Mdf:_List_1_CheckMatch_m1814522134_gshared
Onf:_Collection_1_System_Collections_IList_set_Item_m3488446830_gshared
Dqh:_EnumBuilder_CreateNotSupportedException_m62763134
j4c:__Z24GetUnityAnalyticsManagerv
$Vd:_RijndaelManagedTransform_TransformBlock_m2558865851
ELh:_GUILayoutUtility_Layout_m3812180708
Cxb:__ZN9InputAxis8TransferI14SafeBinaryReadEEvRT_
l2:__ZNK21ExecutionOrderManager30GetCustomAwakeFromLoadQueueForEPKN5Unity4TypeE
f9c:__Z27RegisterModule_UnityConnectv
otd:__ZN6il2cpp2vm10Reflection27GetCustomAttributesCacheForEP25Il2CppReflectionParameter
PCh:_Scheduler_Remove_m1930366072
R2i:_Bounds_get_size_m1728027642_AdjustorThunk
_dh:_RealProxy__ctor_m3041043303
AEf:_NumberFormatter_Init_m2654758994
oUd:_HMACSHA1__ctor_m1168389339
lSg:__ZL100Input_t1785128008_CustomAttributesCacheGenerator_Input_INTERNAL_get_compositionCursorPos_m2426914348P21CustomAttributesCache
UK:__ZN10ObjectPoolIN4FMOD12ChannelGroupENS0_13ChannelGroupIEE7SetSizeEi
g_f:_PrimalityTest_BeginInvoke_m966469054
pzf:_ReadOnlyCollection_1_System_Collections_Generic_ICollectionU3CTU3E_Clear_m1785953911_gshared
hIh:_UInt64_System_IConvertible_ToInt16_m2797150165_AdjustorThunk
E4e:_Array_InternalArray__get_Item_TisLabelData_t3712112744_m863115768_gshared
ZJf:_Int32_Parse_m753946802
oEc:__ZN19CollisionListener2D15ProcessContactsEP10Collider2Db
EZb:__ZN9Polygon2D7SetPathEiRK13dynamic_arrayI8Vector2fLj4EE
qV:__Z22ValidateTlsfAllocationPvjiS_
Ejf:_List_1_RemoveAt_m2331128844_gshared
Zud:__ZN14dense_hash_mapI10KeyWrapperINSt3__24pairIPK9EventInfoP11Il2CppClassEEEj17ReflectionMapHashIS8_ENS9_14EqualsComparerINS1_8equal_toIS8_EEEENS1_9allocatorINS2_IKS9_jEEEEE15set_deleted_keyERSH_
Uth:_UnmanagedMarshal_ToMarshalAsAttribute_m3695569337
wHb:__Z14resize_trimmedINSt3__26vectorI17AnimationCurveTplIfE13stl_allocatorIS3_L18MemLabelIdentifier1ELi16EEEEEvRT_j
F2a:__ZN25CameraStackRenderingState19SetupLastEyeCamerasERK11CameraStack
ihb:__Z12GUIDToStringRK9UnityGUID
fRe:_LayoutElement_get_minHeight_m2070403283
_G:__ZN11SoundHandleC2ERKS_
Hai:_Mask_OnEnable_m501850981
o8f:_RSASslSignatureFormatter__ctor_m2530528184
xgd:__ZNK6il2cpp5utils11collections13ArrayValueMapIPK10Il2CppType17Il2CppInteropData26InteropDataToTypeConverterNS_8metadata14Il2CppTypeLessENS8_26Il2CppTypeEqualityComparerEE10find_firstERKS5_
Orh:_GenericTypeParameterBuilder_GetGenericTypeDefinition_m2936287336
NZf:_BigInteger_op_Addition_m1196561843
R8a:__Z29StdTemplateConversionFunctionItxEbPvR14SafeBinaryRead
Lgj:_FormatterData__ctor_m3974986124
Yzg:__ZL64FileNotFoundException_t4200667904_CustomAttributesCacheGeneratorP21CustomAttributesCache
_Vd:_RijndaelManagedTransform_get_CanReuseTransform_m3735256596
Rge:_Comparer__cctor_m1327316974
YMf:_MonoIO_ExistsFile_m1421941572
Rqe:_DateTime_op_GreaterThanOrEqual_m3818963848
nta:__ZNSt3__26__treeINS_12__value_typeI18VertexChannelsInfoP17VertexDeclarationEENS_19__map_value_compareIS2_S5_NS_4lessIS2_EELb1EEE13stl_allocatorIS5_L18MemLabelIdentifier14ELi16EEE12__find_equalIS2_EERPNS_16__tree_node_baseIPvEENS_21__tree_const_iteratorIS5_PNS_11__tree_nodeIS5_SG_EEiEESJ_RKT_
sy:__ZN17AnimationPlayable18DeallocateBindingsEv
aIe:_DefaultControls_SetDefaultTextValues_m1707718380
$De:_TouchInputModule_UseFakeInput_m2112019004
bAe:_EventSystem_get_baseEventDataCache_m4294741599
$lb:__ZN14RenderSettings18TransferDeprecatedI14SafeBinaryReadEEvRT_
O$g:__ZL85GUIStyle_t1799908754_CustomAttributesCacheGenerator_GUIStyle_Internal_Draw_m694122665P21CustomAttributesCache
YX:__ZN12TLSAllocatorI14StackAllocatorE8AllocateEji
j3:__ZN16ScriptingManager18GetMonoScriptCacheEi
IMh:_GUIStyle_get_stretchHeight_m3396762700
ifd:__ZN13dynamic_arrayIPK10Il2CppTypeLj4EEC2ERKS3_
pDa:__ZNSt3__227__insertion_sort_incompleteIR25ValueParameterArraySorterPN20GpuProgramParameters14ValueParameterEEEbT0_S6_T_
gMe:_GridLayoutGroup_CalculateLayoutInputHorizontal_m2355123124
BOg:__ZL84Locale_t4255929017_CustomAttributesCacheGenerator_Locale_GetText_m512920887____args1P21CustomAttributesCache
hGb:__Z18Transfer_BlittableI14SafeBinaryReadLb1EyEvRK29SerializationCommandArgumentsR31RuntimeSerializationCommandInfo
V2g:__ZL89U3CInvokeMessageIdSubscribersU3Ec__AnonStorey0_t1899782350_CustomAttributesCacheGeneratorP21CustomAttributesCache
mqc:__ZN8JSONRead8TransferIfEEvRT_PKc17TransferMetaFlagsb
Nji:_U3CGetEnumeratorU3Ec__Iterator0_Reset_m2980566576_gshared
y6i:_Coroutine__ctor_m1253937571
hAf:_ReadOnlyCollection_1_System_Collections_ICollection_get_IsSynchronized_m4063596282_gshared
D9d:__ZN21InterfaceFuncInvoker2IP12Il2CppObjectP6Type_tS1_E6InvokeEjP11Il2CppClassS1_S3_S1_
rRj:__ZNSt3__212basic_stringIcNS_11char_traitsIcEENS_9allocatorIcEEE6appendEPKcj
QAg:__ZL54TypeBuilder_t3308873219_CustomAttributesCacheGeneratorP21CustomAttributesCache
Tka:__ZN6prcoreL17RemapGenericFloatI18TexFormatARGBFloat17TexFormatRGBAHalfEEvPKNS_9InnerInfoE
pqf:_Collection_1_CheckWritable_m691269733_gshared
frh:_GenericTypeParameterBuilder_GetAttributeFlagsImpl_m3338182267
gQ:__ZN13Simd4iFactoryIN6detail9FourTupleEEC2Eiiii
qRf:_SynchronizedReader__ctor_m1408327515
GOi:__Z67RuntimeInvoker_AnimatorTransitionInfo_t2410896200_Int32_t2071877448PK10MethodInfoPvPS2_
IZi:__Z54RuntimeInvoker_KeyValuePair_2_t3716250094_Il2CppObjectPK10MethodInfoPvPS2_
hBf:_ReadOnlyCollection_1_System_Collections_IList_Clear_m1858417639_gshared
xie:_Slot_t2022531261_marshal_pinvoke_cleanup
aOa:__ZZ23InitPlayerLoopCallbacksvEN38PostLateUpdateShaderHandleErrorsstruct7ForwardEv
xpb:__ZN15SerializeTraitsI33EnlightenTerrainChunksInformationE8TransferI14SafeBinaryReadEEvRS0_RT_
NGc:__ZN6b2Body12SetTransformERK6b2Vec2f
I2b:__ZNK32RendererMaterialAnimationBinding9BindValueER6ObjectRKN11UnityEngine9Animation14GenericBindingERNS3_10BoundCurveE
BDi:__Z112RuntimeInvoker_Int32_t2071877448_Il2CppObject_Int32_t2071877448_Int32_t2071877448_Il2CppObject_Int32_t2071877448PK10MethodInfoPvPS2_
Svb:__Z13GetIAnimationv
Dpa:__ZL18stbir__support_onef
vcf:_List_1_System_Collections_IList_Remove_m2040310137_gshared
ukj:_Match_get_Regex_m3526002767
iAg:__ZL49Stream_t3255436806_CustomAttributesCacheGeneratorP21CustomAttributesCache
ksc:__Z26Transfer_UnityEngineObjectI9JSONWriteLb0EEvRK29SerializationCommandArgumentsR31RuntimeSerializationCommandInfo
Nba:__ZN9ShaderLab4Pass9ApplyPassEjPK19ShaderPropertySheetR17ShaderPassContextP6ShaderiPKNS_10GrabPassesEPNS_11SubProgramsE
I5d:_EncoderReplacementFallback_CreateFallbackBuffer_m3579126537
oHh:_UInt32_System_IConvertible_ToInt16_m2251335934_AdjustorThunk
w$c:__ZNSt3__27__sort5IRNS_6__lessIN2UI14DepthSortEntryES3_EEPS3_EEjT0_S7_S7_S7_S7_T_
hdd:__ZN14dense_hash_mapI10KeyWrapperIPKcEP11Il2CppClassN6il2cpp5utils11StringUtils12StringHasherIS2_EENS3_14EqualsComparerINS8_21CaseSensitiveComparerEEENSt3__29allocatorINSE_4pairIKS3_S5_EEEEE13set_empty_keyERSH_
cyi:__Z31RuntimeInvoker_Void_t1841601450PK10MethodInfoPvPS2_
n9d:_Boolean_System_IConvertible_ToType_m3990189691
Lrd:__ZNSt3__218uninitialized_copyIPNS_4pairIK10KeyWrapperINS1_IPK11Il2CppImageP11Il2CppClassEEEjEESC_EET0_T_SE_SD_
LHc:__ZN17PolygonCollider2D12SetPolygon2DEP9Polygon2D
Da:invoke_vdd
PHd:__ZN6il2cpp2os6ThreadC2EPNS0_10ThreadImplE
yri:_InternalEnumerator_1_Dispose_m3838127340_AdjustorThunk
CHc:__ZNK17PolygonCollider2D26GetTypeInfoVirtualInternalEv
sQi:__Z36RuntimeInvoker_FontStyle_t2764949590PK10MethodInfoPvPS2_
Tue:_Double_System_IConvertible_ToUInt32_m624993430
Dn:FUNCTION_TABLE_fiif
h4g:__ZL89PointerEventData_t1599784723_CustomAttributesCacheGenerator_U3CdraggingU3Ek__BackingFieldP21CustomAttributesCache
Z0b:__ZNK30SpriteRendererAnimationBinding12GetPPtrValueERKN11UnityEngine9Animation10BoundCurveE
NCh:_Scheduler_Add_m376749205
Ide:_ArrayList_IndexOf_m2092981366
Klg:_IPv6Address_SwapUShort_m1481806078
K1b:__Z14RandomRotationP9Texture2DPhiiii
$eh:_SingleCallIdentity__ctor_m1512303454
aqi:_InternalEnumerator_1_MoveNext_m1594563423_AdjustorThunk
EIe:_OptionDataList__ctor_m613113846
pZg:__ZL86Canvas_t209405766_CustomAttributesCacheGenerator_Canvas_get_sortingLayerID_m1396307660P21CustomAttributesCache
kEi:__Z35RuntimeInvoker_TimeSpan_t3430258949PK10MethodInfoPvPS2_
fhf:_List_1_System_Collections_IList_Insert_m2036969360_gshared
IPe:_InputField_GetUnclampedCharacterLineFromPosition_m1912794077
sOf:_ReadDelegate__ctor_m885671467
ore:_DateTimeOffset_ToString_m2121173678_AdjustorThunk
_Mg:__ZL50X509Crl_t1699034837_CustomAttributesCacheGeneratorP21CustomAttributesCache
ghd:__ZN24dense_hashtable_iteratorINSt3__24pairIK10KeyWrapperIPKcEP11Il2CppClassEES5_N6il2cpp5utils11StringUtils12StringHasherIS4_EEN14dense_hash_mapIS5_S8_SE_NS5_14EqualsComparerINSC_21CaseSensitiveComparerEEENS0_9allocatorIS9_EEE9SelectKeyESI_SK_E30advance_past_empty_and_deletedEv
kj:_JS_WebRequest_SetResponseHandler
iU:__ZNK13EmscriptenWWW14GetPartialDataEv
j0j:_glDeleteProgram__wrapper
Edc:__Z50Register_UnityEngine_Camera_INTERNAL_get_pixelRectv
I9i:_AnimationOffsetPlayable_set_position_m3583285645
FUi:__Z53RuntimeInvoker_UIVertex_t1204258818_Int32_t2071877448PK10MethodInfoPvPS2_
jka:__ZN6prcoreL18BlitFloatToIntegerERK14ImageReferenceRS0_
mYi:__Z57RuntimeInvoker_KeyValuePair_2_t38854645_Int32_t2071877448PK10MethodInfoPvPS2_
H3f:_X509CertificateCollection_get_Item_m410866272
PMh:_Rect_get_yMax_m2915146103
G0g:__ZL94CustomEventData_t1269126727_CustomAttributesCacheGenerator_CustomEventData_AddInt32_m103138778P21CustomAttributesCache
eHc:__ZN7b2Timer5ResetEv
SS:__ZN11UnityEngine15CloudWebService14RestDownloader17OnCompleteContentEv
Vod:__ZN15dense_hashtableINSt3__24pairIK10KeyWrapperINS1_IPK14Il2CppAssemblyP11Il2CppClassEEEjEES9_17ReflectionMapHashIS8_EN14dense_hash_mapIS9_jSD_NS9_14EqualsComparerINS0_8equal_toIS8_EEEENS0_9allocatorISB_EEE9SelectKeyESI_SK_E15insert_noresizeERKSB_
Ra:invoke_viffi
Gs:__ZN11UnityEngine9Animation40SetFlattenedSkeletonTransformsMainThreadER9TransformRKNS0_21AvatarBindingConstantEb
s$:__ZNSt3__26vectorI20ProcessCallbackGroupNS_9allocatorIS1_EEEC2ERKS4_
kA:__ZN17AnimationPlayable28UpdateInternalStateRecursiveILi1ELb0EEEvPK35AnimationPlayableEvaluationConstant
akf:_List_1_System_Collections_ICollection_get_SyncRoot_m1429670979_gshared
Ua:invoke_vifff
fgc:__Z53Register_UnityEngine_Input_INTERNAL_get_mousePositionv
Bkj:_MatchCollection_get_SyncRoot_m2567236647
Ue:_emscripten_request_fullscreen
nXh:_Rect_get_xMin_m1161102488
cX:__ZN20LocalFileSystemWebGL6DeleteER13FileEntryDatab
sse:_Decimal_System_IConvertible_ToUInt16_m1621568250
We:_emscripten_glDisableVertexAttribArray
AUg:__ZL79Object_t1021602117_CustomAttributesCacheGenerator_Object_Instantiate_m938141395P21CustomAttributesCache
Ym:FUNCTION_TABLE_iiiifiiii
IDh:_TimeSpan_get_TotalMinutes_m1645177229_AdjustorThunk
qc:invoke_fifffi
o0h:_Enumerator__ctor_m3539306986_gshared
oAa:__ZN4gles23ClearCurrentFramebufferEP7ApiGLESbbbRK10ColorRGBAffi
dz:__ZN7mecanim12statemachine20CreateStateWorkspaceEjjjRNS_6memory9AllocatorE
W_f:__ZN21InterfaceFuncInvoker3IP22ByteU5BU5D_t3397334013S1_iiE6InvokeEjP11Il2CppClassP12Il2CppObjectS1_ii
u2c:__Z64Register_UnityEngine_CanvasRenderer_SplitIndiciesStreamsInternalv
RMi:__Z34RuntimeInvoker_Vector3_t2243707580PK10MethodInfoPvPS2_
ff:_emscripten_glDeleteObjectARB
ag:_IMG_Load
gSf:_UnexceptionalStreamReader_Read_m3839775235
Ala:__ZN6prcoreL27StretchGenericFloatBilinearI18TexFormatARGBFloatEEvPKNS_9InnerInfoE
rjc:__Z53Register_UnityEngine_RenderTexture_Internal_GetHeightv
meh:_RealProxy_SetTargetDomain_m3940877656
kla:__ZN6prcoreL17RemapGenericFloatI17TexFormatRGBAHalf18TexFormatARGBFloatEEvPKNS_9InnerInfoE
zve:_Enum_System_IConvertible_ToInt32_m2459904362
ymc:__ZNK8GUIStyle21DrawWithTextSelectionER8GUIStateRK5RectTIfER10GUIContentbbbbbiiRK10ColorRGBAfSA_
Mmc:__Z14GetBuiltinSkini
n5d:_DecoderReplacementFallbackBuffer_Reset_m2576819665
wsi:_InternalEnumerator_1_MoveNext_m607849555_AdjustorThunk
Zye:_BaseInput_set_compositionCursorPos_m2632248731
vHj:_Enumerator_System_Collections_IEnumerator_Reset_m2573763156_gshared
nUf:_MonoType_GetConstructors_internal_m2709619723
M$d:_WindowsIdentity_Dispose_m2649088337
rXb:__ZN2UI13RectTransform23VirtualRedirectTransferER14SafeBinaryRead
BCj:_InvokableCall_1__ctor_m54675381_gshared
Dnf:_Collection_1_System_Collections_IList_Contains_m323652826_gshared
J9e:_List_1_System_Collections_ICollection_get_SyncRoot_m3733894943_gshared
Rff:_List_1_Reverse_m302978607_gshared
NO:__ZZL31InitializeAudioManagerCallbacksvEN33FixedUpdateAudioFixedUpdatestruct7ForwardEv
YTb:__ZNSt3__26vectorIN9ShaderLab20SerializedSubProgramENS_9allocatorIS2_EEE6assignIPS2_EENS_9enable_ifIXaasr21__is_forward_iteratorIT_EE5valuesr16is_constructibleIS2_NS_15iterator_traitsIS9_E9referenceEEE5valueEvE4typeES9_S9_
duc:__Z18Transfer_BlittableI8JSONReadLb0E8BitFieldEvRK29SerializationCommandArgumentsR31RuntimeSerializationCommandInfo
lfh:_SoapServices_RegisterInteropXmlType_m2949236705
Cqd:__ZNK15dense_hashtableINSt3__24pairIK10KeyWrapperIPK10Il2CppTypeEjEES6_N6il2cpp8metadata14Il2CppTypeHashEN14dense_hash_mapIS6_jSB_NS6_14EqualsComparerINSA_26Il2CppTypeEqualityComparerEEENS0_9allocatorIS8_EEE9SelectKeyESF_SH_E10test_emptyERK24dense_hashtable_iteratorIS8_S6_SB_SJ_SF_SH_E
T7a:__ZN17PersistentManagerC2Eii
$Nb:__ZL17Transfer_GUIStyleI18StreamedBinaryReadILb1EELb0EEvRK29SerializationCommandArgumentsR31RuntimeSerializationCommandInfo
g4d:_String_CharCopy_m2550399897
d_b:__ZN11TypeManager20RegisterNonClassTypeEiP4RTTIPKcS3_
lSb:__ZN9ShaderLab14SerializedPass8TransferI14SafeBinaryReadEEvRT_
Enc:__Z71Register_UnityEngine_GUILayoutUtility_INTERNAL_CALL_Internal_MoveWindowv
GO:__ZN12AudioManager16SetListenerPauseEb
OHc:__ZThn160_N17PolygonCollider2DD0Ev
jDc:__ZNSt3__26__sortIRN10ClipperLib12LocMinSorterEPNS1_12LocalMinimumEEEvT0_S6_T_
gzd:__ZN6il2cpp2vm9Exception25RaiseOutOfMemoryExceptionERKNS_5utils10StringViewIDsEE
eof:_Collection_1_IsValidItem_m2254106115_gshared
rqh:_TypeBuilder_GetEvent_m3876348075
uhi:_Slider_OnMove_m641164662
ea:invoke_viiiiiiiiiii
TNj:___syscall_ret
QCh:_Scheduler__ctor_m3716265742
L0f:_MACAlgorithm_Final_m4076939925
IZb:__ZN14qsort_internal30FindAndMovePivotToLastPositionIP8Vector2fi26PointDistanceSortPredicateEEvT_S4_T0_T1_
U4c:__Z56Register_UnityEngine_Analytics_CustomEventData_AddDoublev
Isb:__ZN11ChannelInfo8TransferI19StreamedBinaryWriteILb0EEEEvRT_
Jli:_InternalEnumerator_1_System_Collections_IEnumerator_get_Current_m3583252352_gshared
XBb:__ZN23ArchiveStorageConverter24ReadHeaderFromMemoryFileEv
Uph:_EnumBuilder_get_FullName_m2818393911
mVa:__ZN14qsort_internal13Partition3WayIP17RODataReplacementi19ROSorterReplacementEENSt3__24pairIT_S6_EES6_S6_T0_T1_
pQf:_StreamAsyncResult_get_Done_m2858832609
Afc:__Z34Register_UnityEngine_Gradient_Initv
rGj:_ObjectPool_1_set_countAll_m1742773675_gshared
Jhh:_SerializationEntry_get_Value_m1628109884_AdjustorThunk
Aze:_BaseInputModule_GetAxisEventData_m3903709281
T4e:_Array_InternalArray__get_Item_TisUriScheme_t1876590943_m1821482697_gshared
S1e:_Array_Sort_TisIl2CppObject_m1954851512_gshared
p5f:_BigInteger__ctor_m3239748086
zW:__ZN13ScreenManager23SetIsOrientationEnabledE18EnabledOrientationb
gJj:__ZL24UnresolvedVirtualCall_57P12Il2CppObjectiPK10MethodInfo
mKg:__ZL79Convert_t2607082565_CustomAttributesCacheGenerator_Convert_ToUInt16_m1043031438P21CustomAttributesCache
Mu:__ZN7mecanim5human25HumanPoseAddOverrideLayerERNS0_9HumanPoseERKS1_fRKNS_6bitsetILj70EEE
Y$b:__ZN13ProduceHelperI9TransformLb0EE7ProduceE18MemLabelIdentifier18ObjectCreationMode
vpc:__Z45Register_UnityEngine_GUIStyle_GetFontInternalv
q0i:_AnimationEvent_set_floatParameter_m4139544688
eKj:__ZL25UnresolvedVirtualCall_109P12Il2CppObjectS0_S0_iiPK10MethodInfo
$mj:_Alternation_get_Alternatives_m1445219249
m5h:_DefaultComparer_GetHashCode_m2506382068_gshared
b6i:_Component_SendMessageUpwards_m19741277
U8h:_EqualityComparer_1_System_Collections_IEqualityComparer_GetHashCode_m1012273405_gshared
wZe:_Array_InternalArray__ICollection_Add_TisHitInfo_t1761367055_m2956071622_gshared
mTg:__ZL74Random_t1170710517_CustomAttributesCacheGenerator_Random_Range_m2884721203P21CustomAttributesCache
Uri:_InternalEnumerator_1_MoveNext_m470170271_AdjustorThunk
k5a:__ZN10GameObject23VirtualRedirectTransferER18StreamedBinaryReadILb0EE
h7e:_Enumerator_get_Current_m2577424081_gshared
Gui:_InternalEnumerator_1_Dispose_m2270401482_AdjustorThunk
wg:_glFrontFace
ghh:_ObjectRecord_get_IsUnsolvedObjectReference_m2202692850
zrg:_FactoryCache_Cleanup_m4130035987
phj:__ZN23InterfaceActionInvoker1IP18Context_t502196753E6InvokeEjP11Il2CppClassP12Il2CppObjectS1_
UC:__ZN26AnimatorControllerPlayable14SetLayerWeightEif
__b:__ZN13ProduceHelperI19LowerResBlitTextureLb0EE7ProduceE18MemLabelIdentifier18ObjectCreationMode
B_a:__ZNSt3__26vectorI16ShadowCasterData13stl_allocatorIS1_L18MemLabelIdentifier2ELi16EEE21__push_back_slow_pathIKS1_EEvRT_
gkd:__ZN6il2cpp6icalls8mscorlib6SystemL16GetFieldFromTypeINS_5utils10functional6FilterINSt3__212basic_stringIcNS7_11char_traitsIcEENS7_9allocatorIcEEEENS4_11StringUtils23CaseInsensitiveComparerEEEEEP21Il2CppReflectionFieldP11Il2CppClassSK_iRKT_
pDj:_UnityAction_1_Invoke_m1279802577_gshared
SHh:_UInt32_ToString_m1783596809
bxj:_Vector3_get_forward_m1201659139
Dkf:_List_1_Sort_m269561757_gshared
R$g:__ZL110GUIStyle_t1799908754_CustomAttributesCacheGenerator_GUIStyle_INTERNAL_CALL_Internal_DrawPrefixLabel_m557487542P21CustomAttributesCache
WZc:__Z51Register_UnityEngine_TextGenerator_GetLinesInternalv
QHj:_HashSet_1_Init_m1258286688_gshared
J3f:_X509CertificateEnumerator_System_Collections_IEnumerator_get_Current_m1643583406
atj:_X509ExtensionCollection_get_Item_m4212651995
Qwf:_ReadOnlyCollection_1_System_Collections_IList_RemoveAt_m525136953_gshared
UWe:__ZN21InterfaceFuncInvoker1Ii19Vector4_t2243707581E6InvokeEjP11Il2CppClassP12Il2CppObjectS0_
h5i:_Collision2D_get_gameObject_m4234358314
Znd:__ZNSt3__26vectorIN6il2cpp2vm17TypeNameParseInfoENS_9allocatorIS3_EEEC2ERKS6_
XHh:_UInt64_System_IConvertible_ToBoolean_m3012279573_AdjustorThunk
XFi:__Z48RuntimeInvoker_Il2CppObject_StringU26_t638738783PK10MethodInfoPvPS2_
LFh:_Type_get_IsGenericTypeDefinition_m2147901038
pLa:__ZN12HandlerChain10ToAbsoluteEPKc
Mhj:_ContextAttribute_Freeze_m4133346275
YDf:_GregorianCalendar__ctor_m3794576475
NHh:_UInt32_TryParse_m4283512434
ECd:__ZN15dense_hashtableI10KeyWrapperIP18Il2CppGenericClassES3_N6il2cpp8metadata22Il2CppGenericClassHashEN14dense_hash_setIS3_S6_NS3_14EqualsComparerINS5_25Il2CppGenericClassCompareEEENSt3__29allocatorIS3_EEE8IdentityESA_SD_E8min_sizeEjj
RG:__ZN9AudioClip11CreateSoundEv
x_h:_ShimEnumerator_MoveNext_m3313047792_gshared
Sof:_Collection_1_ConvertItem_m2185647560_gshared
nEh:_TimeSpan_op_Inequality_m257547441
ABh:_ExecutionContext_GetObjectData_m1456913356
lvd:__ZN14dense_hash_mapI10KeyWrapperINSt3__24pairIPK9FieldInfoP11Il2CppClassEEEj17ReflectionMapHashIS8_ENS9_14EqualsComparerINS1_8equal_toIS8_EEEENS1_9allocatorINS2_IKS9_jEEEEEC2EjRKSB_RKSF_
OUh:_Object_set_hideFlags_m2204253440
SEa:__ZN4gles13UploadTextureEP7ApiGLESR11GLESTexture13TextureFormatPKvjiiiij17TextureColorSpace16TextureUsageMode
Mph:_EnumBuilder_get_Assembly_m4285228003
fYb:__Z10tesvertLeqP10TESSvertexS0_
HLb:__Z18Transfer_BlittableI19StreamedBinaryWriteILb0EELb0E8Vector2fEvRK29SerializationCommandArgumentsR31RuntimeSerializationCommandInfo
RFf:_DateTimeFormatInfo_get_RoundtripPattern_m562440017
y8c:__ZN11UnityEngine7Connect16PersistentValues13RestoreValuesER8JSONRead
XMa:__ZN20ArchiveStorageReader31TryToReadDirectoryFromBlockDataEyPKvj
l6h:_DefaultComparer__ctor_m3947565964_gshared
yue:_Double_System_IConvertible_ToByte_m3004284950_AdjustorThunk
pfh:_TypeEntry_get_AssemblyName_m1762285107
WBd:__ZN6il2cpp2vmL11GetIdentityEP14Il2CppIUnknown
k0f:_SmallXmlParser_ReadCDATASection_m2558307107
XNd:_GC_push_gc_structures
IEe:_AspectRatioFitter_get_aspectRatio_m3023618874
wkg:_ServicePointManager_get_ServerCertificateValidationCallback_m1409951209
eld:__ZN6il2cpp6icalls8mscorlib6SystemL8IsPublicEPK9EventInfo
xtg:_Enumerator__ctor_m3782962052
zje:_Enumerator_get_Current_m1271212567
BLd:__ZThn4_N6il2cpp2vm13ComObjectBase18ReleaseMarshalDataEP13Il2CppIStream
QGa:__Z22GetShaderCachePathGLESv
WZa:__Z33GenerateShadowCasterPartsSortDataRK16ShadowCasterDatajRK15RenderNodeQueueRKNSt3__26vectorI20ShadowCasterPartData13stl_allocatorIS7_L18MemLabelIdentifier2ELi16EEEERK10Matrix4x4fRjP20ShadowCasterSortData
XRh:_Input_set_compositionCursorPos_m1615567306
klg:_IPAddress_ParseIPV6_m2209709575
_di:_U3CClickRepeatU3Ec__Iterator0_MoveNext_m1747924386
gDf:_Comparison_1_Invoke_m1670081898_gshared
Pii:_Toggle_set_group_m3833595685
_Re:_LayoutRebuilder_ForceRebuildLayoutImmediate_m566681977
DGa:__ZNSt3__26vectorIPN19ConstantBuffersGLES11ConstBufferENS_9allocatorIS3_EEE21__push_back_slow_pathIKS3_EEvRT_
DZe:_Array_InternalArray__ICollection_Add_TisVector4_t2243707581_m698578249_gshared
P0:__ZN8keywords6CreateEPKc
oAi:__Z89RuntimeInvoker_Il2CppObject_Il2CppObject_Int32_t2071877448_Int32_t2071877448_Il2CppObjectPK10MethodInfoPvPS2_
dLb:__ZN24GenerateTypeTreeTransfer8TransferINSt3__26vectorI17AnimationCurveTplIfE13stl_allocatorIS4_L18MemLabelIdentifier1ELi16EEEEEEvRT_PKc17TransferMetaFlags
S:Math_imul
lPh:_GUIStyle_set_active_m2896743432
fxb:__ZN14SpriteRenderer15SetupPropertiesEv
Lrb:__ZN11PlayerPrefs6GetIntERKN4core12basic_stringIcNS0_20StringStorageDefaultIcEEEEi
o0d:_SecurityFrame_t1002202659_marshal_pinvoke_back
EZc:__Z45TextGenerator_CUSTOM_INTERNAL_get_rectExtentsP12Il2CppObjectP5RectTIfE
Ncj:_PlayableHandle_Equals_m1435096530
J9f:_CertificateValidationCallback_Invoke_m2500463874
S$g:__ZL102GUIStyle_t1799908754_CustomAttributesCacheGenerator_GUIStyle_Internal_GetCursorFlashOffset_m3177259302P21CustomAttributesCache
KUe:_SetPropertyUtility_SetStruct_TisChar_t3454481338_m2333420724_gshared
hof:_Collection_1_IsSynchronized_m2601980439_gshared
Uhe:_Hashtable_ContainsKey_m2716576664
Xkj:_PatternCompiler_EmitCategory_m1696942454
Dse:_Decimal_decimalFloorAndTrunc_m3655683429
WZe:_Array_InternalArray__ICollection_CopyTo_TisInt32_t2071877448_m984622488_gshared
l_:__ZN18ScriptingArguments9AddObjectE18ScriptingObjectPtr
E1c:__Z39CanvasGroup_Get_Custom_PropInteractableP12Il2CppObject
DQ:__ZN11UnityEngine15CloudWebService16SessionContainerD2Ev
fYj:_emscripten_glStencilOpSeparate__wrapper
qWc:_cf2_getLanguageGroup
BAa:__ZN17GenericDynamicVBOC2ER9GfxDevice13GfxBufferModejj
jhj:_Context_get_HasDynamicSinks_m1998518649
GGc:__Z28GetPhysics2DScriptingClassesv
WR:__ZN11UnityEngine15CloudWebService17SessionEventQueue10PurgeItemsEj
$Yh:_UpdatedEventHandler_BeginInvoke_m4238510153
Eye:_AbstractEventData_get_used_m4208553917
T3a:__ZN6Camera16StandaloneRenderENS_10RenderFlagEP6ShaderRKN4core12basic_stringIcNS3_20StringStorageDefaultIcEEEE
D6d:_Array_System_Collections_IList_get_Item_m2088124007
X6d:_Array_GetLength_m2083296647
nHg:__ZL58SecurityElement_t2325568386_CustomAttributesCacheGeneratorP21CustomAttributesCache
tnb:__ZNK12CubemapArray13GetIsReadableEv
Efe:_SynchronizedArrayListWrapper_ToArray_m1522185111
dKi:__Z55RuntimeInvoker_TimeSpan_t3430258949_DateTime_t693205669PK10MethodInfoPvPS2_
ANb:__Z18Transfer_BlittableI18StreamedBinaryReadILb1EELb1EtEvRK29SerializationCommandArgumentsR31RuntimeSerializationCommandInfo
R$d:_SecurityContext_get_FlowSuppressed_m420202521
yva:__ZN9GfxDevice20DeallocRenderSurfaceEP17RenderSurfaceBase
LJh:_ValueType_ToString_m3796301715
nc:invoke_viiiififfi
DHi:__Z62RuntimeInvoker_Int64_t909078037_Il2CppObject_Int32_t2071877448PK10MethodInfoPvPS2_
wgc:__Z53Register_UnityEngine_Quaternion_INTERNAL_CALL_Inversev
X0e:_Array_qsort_TisUICharInfo_t3056636800_m2607408901_gshared
RLh:_GUILayoutGroup__ctor_m992523271
bXg:__ZL139AnimatorControllerPlayable_t4078305555_CustomAttributesCacheGenerator_AnimatorControllerPlayable_CrossFadeInFixedTime_m1082259778____layer2P21CustomAttributesCache
Gib:__ZN12BaseRenderer23RendererBecameInvisibleEv
ILc:__ZN20TextRenderingPrivate8FontImpl13CharacterInfo8TransferI18StreamedBinaryReadILb0EEEEvRT_
uLb:__Z29Transfer_Blittable_ArrayFieldI24GenerateTypeTreeTransferfEvRT_R9ArrayInfoRK23StaticTransferFieldInfo
Dtd:__ZN14dense_hash_mapI10KeyWrapperIPK14Il2CppAssemblyEPK16MonoAssemblyNameN6il2cpp5utils11PointerHashIS2_EENS4_14EqualsComparerINSt3__28equal_toIS3_EEEENSD_9allocatorINSD_4pairIKS4_S7_EEEEEC2EjRKSB_RKSG_
P6a:__ZN19CustomRenderTexture9AddParentE4PPtrIS_E
Zqb:__ZN8Gradient8TransferI14SafeBinaryReadEEvRT_
ZEi:__Z41RuntimeInvoker_StackBehaviour_t1390406961PK10MethodInfoPvPS2_
PEj:_UnityEvent_1_Invoke_m1533100983_gshared
Aha:__ZNSt3__26vectorIN4core12basic_stringIcNS1_20StringStorageDefaultIcEEEE13stl_allocatorIS5_L18MemLabelIdentifier1ELi16EEE7reserveEj
Akg:_FileWebRequest__ctor_m4003648606
i9g:__ZL71SpriteState_t1353336012_CustomAttributesCacheGenerator_m_DisabledSpriteP21CustomAttributesCache
jZi:__Z34RuntimeInvoker_HitInfo_t1761367055PK10MethodInfoPvPS2_
Bve:_Enum_System_IConvertible_ToSByte_m3488526280
Kth:_TypeBuilder_ToString_m1952363535
oij:_Identity_set_Disposed_m628843469
CUh:_MonoBehaviour_StopAllCoroutines_m1675795839
Tqa:__ZN18IDCollectorFunctorD0Ev
uUg:__ZL82Object_t1021602117_CustomAttributesCacheGenerator_Object_DestroyObject_m2343493981P21CustomAttributesCache
BVf:_NumberFormatter_Init_m1022036773
RMd:_GC_new_free_list_inner
_4h:_DefaultComparer_Equals_m85211180_gshared
Wrf:_Collection_1_System_Collections_IList_IndexOf_m1950953062_gshared
pUf:_MonoType_InternalGetEvent_m532443236
Pqf:_Collection_1_IndexOf_m2700825189_gshared
jwi:_Comparer_1_get_Default_m2605397692_gshared
Puc:__ZN8JSONRead8TransferI10RectOffsetEEvRT_PKc17TransferMetaFlagsb
UEd:__ZNK15dense_hashtableINSt3__24pairIK10KeyWrapperINS1_IPKcS4_EEEiEES6_24NamespaceAndNamePairHashN14dense_hash_mapIS6_iS9_NS6_14EqualsComparerI26NamespaceAndNamePairEqualsEENS0_9allocatorIS8_EEE9SelectKeyESD_SF_E12test_deletedERK24dense_hashtable_iteratorIS8_S6_S9_SH_SD_SF_E
ER:__ZN9JSONWrite8TransferIN11UnityEngine15CloudWebService14DataErrorEvent15FileErrorDetailEEEvRT_PKc17TransferMetaFlags
M4d:_Decoder__ctor_m2623573910
Eqa:__Z21ClearFenceWithoutSyncR8JobFence
Kxf:_ReadOnlyCollection_1_System_Collections_Generic_IListU3CTU3E_RemoveAt_m1731148677_gshared
NJ:__ZN12SoundManager20RegisterModifiedClipEP10SampleClip
ZBi:__Z108RuntimeInvoker_Void_t1841601450_Il2CppObject_Int64_t909078037_Il2CppObject_Int64_t909078037_Int64_t909078037PK10MethodInfoPvPS2_
lM:__ZN11AudioSource4PlayEd
oy:__ZN22AnimationMixerPlayable11DerivesFromE17ScriptingClassPtr
eed:__ZN15dense_hashtableI10KeyWrapperIPK17Il2CppGenericInstES4_N6il2cpp8metadata21Il2CppGenericInstHashEN14dense_hash_setIS4_S7_NS4_14EqualsComparerINS6_24Il2CppGenericInstCompareEEENSt3__29allocatorIS4_EEE8IdentityESB_SE_E13set_empty_keyERKS4_
WW:__ZNK20LocalFileSystemPosix8IsHiddenERK13FileEntryData
P7h:_EqualityComparer_1_System_Collections_IEqualityComparer_Equals_m3589836321_gshared
w0f:_SmallXmlParser_IsNameChar_m1561000202
Urj:_X501__cctor_m2610532554
DZh:_Enumerator_VerifyState_m3173176371_gshared
i4d:_StringComparer__ctor_m2275216983
l8g:__ZL120U3CClickRepeatU3Ec__Iterator0_t4156771994_CustomAttributesCacheGenerator_U3CClickRepeatU3Ec__Iterator0__ctor_m1515509136P21CustomAttributesCache
Bjf:_List_1_CheckCollection_m2220107869_gshared
Tnb:__ZN7Cubemap23VirtualRedirectTransferER18StreamedBinaryReadILb0EE
kdd:__ZNK10KeyWrapperIPKcE14EqualsComparerIN6il2cpp5utils11StringUtils21CaseSensitiveComparerEEclERKS2_SA_
cYd:_SHA256_Create_m896954069
ZXc:_Read_CVT
Goe:_Convert_ToUInt32_m776714429
RJa:__ZN12FileAccessor4SeekEx10FileOrigin
uKb:__ZL26Transfer_SimpleNativeClassI24GenerateTypeTreeTransfer17AnimationCurveTplIfELb0EEvRK29SerializationCommandArgumentsR31RuntimeSerializationCommandInfo
bRi:__Z54RuntimeInvoker_Boolean_t3825574718_Vector2_t2243707579PK10MethodInfoPvPS2_
Cfd:__ZN15dense_hashtableINSt3__24pairIK10KeyWrapperI13dynamic_arrayIPK10Il2CppTypeLj4EEEPFvvEEES8_N6il2cpp8metadata19Il2CppSignatureHashEN14dense_hash_mapIS8_SB_SF_NS8_14EqualsComparerINSE_22Il2CppSignatureCompareEEENS0_9allocatorISC_EEE9SelectKeyESJ_SL_E4swapERSO_
v6i:_Coroutine_t2299508840_marshal_pinvoke
I7:__ZN16LightmapSettings20DidChangeActiveSceneEP10UnitySceneS1_
lnh:_Default_ReorderParameters_m1877749093
vbh:__ZL59g_AssemblyU2DCSharp_Assembly_CustomAttributesCacheGeneratorP21CustomAttributesCache
jlb:__ZNK17InstancedPropInfo15RenderInstancesERK15RenderNodeQueuePK17BatchInstanceDataj17ShaderChannelMask
qjd:__ZN6il2cpp5utils9PathUtils8BasenameIcEENSt3__212basic_stringIT_NS3_11char_traitsIS5_EENS3_9allocatorIS5_EEEERKSA_
eL:__ZN10AudioMixer11SetupGroupsEv
pTg:__ZL91Resources_t339470017_CustomAttributesCacheGenerator_Resources_GetBuiltinResource_m582410469P21CustomAttributesCache
qnc:__Z35Register_UnityEngine_Event_get_typev
j1f:_PrivateKeyInfo_DecodeRSA_m1427048948
szd:__ZN6il2cpp2vm9Exception23GetInvalidCastExceptionERKNS_5utils10StringViewIDsEE
w6f:_BigInteger_op_GreaterThanOrEqual_m2643115413
pmh:_Assembly_FillName_m1934025015
vPa:_UNITY_png_free
PLf:_IntPtr_op_Explicit_m1073656736
hWj:_emscripten_glDepthRange__wrapper
K2d:_String_IndexOf_m2126171214
mLf:_Int64_ToString_m1544341651_AdjustorThunk
jA:__ZN8Animator28BuildControllerPlayableCacheEv
lHf:_Guid_CheckNull_m2903986431
rMg:__ZL62CrossContextDelegate_t754146990_CustomAttributesCacheGeneratorP21CustomAttributesCache
G2i:_Bounds__ctor_m1202659404
a2:__Z63ThreadAndSerializationSafeCheckGetMonoBehaviourBeingTransferredv
BPd:_GC_enable
Tdg:_TlsClientCertificateVerify_ProcessAsSsl3_m3377063356
pCi:__Z97RuntimeInvoker_Il2CppObject_Il2CppObject_Int32_t2071877448_Il2CppObject_Il2CppObject_Il2CppObjectPK10MethodInfoPvPS2_
tDe:_StandaloneInputModule_set_repeatDelay_m2820945738
pNf:_EndOfStreamException__ctor_m4268387737
XGh:_UInt16_ToString_m4213290405
agc:__Z37Register_UnityEngine_Input_GetAxisRawv
plf:_List_1_GetIndex_m433539411_gshared
xFg:__ZL59StreamingContext_t1417235061_CustomAttributesCacheGeneratorP21CustomAttributesCache
Ffj:_ChannelServices_RegisterChannel_m3832858065
Ive:_Enum_GetName_m1226611481
UDf:_Func_2_Invoke_m4121137703_gshared
_L:__ZN11AudioSource5ResetEv
Wsb:__ZN14Texture2DArray23VirtualRedirectTransferER18StreamedBinaryReadILb0EE
Anj:_Literal_CompileLiteral_m276843152
iXb:__ZN2UI13RectTransform13AwakeFromLoadE17AwakeFromLoadMode
wnj:_Reference__ctor_m4110013284
YZa:__ZN14qsort_internal30FindAndMovePivotToLastPositionIP20ShadowCasterSortDatai26ShadowCasterSortDataSorterEEvT_S4_T0_T1_
pFb:__Z18Transfer_BlittableI14SafeBinaryReadLb1EiEvRK29SerializationCommandArgumentsR31RuntimeSerializationCommandInfo
qra:__ZN17PersistentManager13GetAllFileIDsERKN4core12basic_stringIcNS0_20StringStorageDefaultIcEEEER13dynamic_arrayIxLj8EE
EHi:__Z72RuntimeInvoker_Il2CppObject_IntPtr_t_Int32_t2071877448_Int32_t2071877448PK10MethodInfoPvPS2_
hmd:_il2cpp_field_get_offset
feh:_ProxyAttribute_GetPropertiesForNewContext_m3587421540
X7d:_Array_LastIndexOf_m4096535198
Fde:_ArrayList_Add_m1719188324
Oue:_Double_System_IConvertible_ToSByte_m1653690240_AdjustorThunk
Ek:_glGetStringi
cRh:_GUIStyleState_t3801000545_marshal_pinvoke
nhh:_ObjectManager_AddFixup_m4148241867
rye:_CultureInfo_set_NumberFormat_m1618950525
rtb:__ZN18StreamedBinaryReadILb0EE21TransferSTLStyleArrayI13dynamic_arrayI8Vector4fLj4EEEEvRT_17TransferMetaFlags
hpg:_X509Store__ctor_m1573680316
kfd:__ZN13dynamic_arrayIPK10Il2CppTypeLj4EE9push_backEv
f8h:_EqualityComparer_1__cctor_m1011898363_gshared
rEe:_AnimationTriggers__ctor_m2623627182
rXe:_Array_InternalArray__IndexOf_TisClientCertificateType_t4001384466_m1168139450_gshared
_Vi:__Z49RuntimeInvoker_Int32_t2071877448_Link_t2723257478PK10MethodInfoPvPS2_
Uqh:_FieldBuilder_get_Name_m2243491233
UTa:__ZN9Coroutine16SetCurrentMethodE18ScriptingMethodPtr
ys:__ZN8Animator9WriteStepEv
Nrb:__ZNSt3__23mapIN4core12basic_stringIcNS1_20StringStorageDefaultIcEEEE9PrefValueNS_4lessIS5_EENS_9allocatorINS_4pairIKS5_S6_EEEEEixERSB_
Wkc:__ZN15DirectorManager22ConstructPlayableGraphEv
kW:__ZN13ScreenManager16SetScreenTimeoutEi
kJb:__Z18Transfer_BlittableI17RemapPPtrTransferLb0EdEvRK29SerializationCommandArgumentsR31RuntimeSerializationCommandInfo
$Yd:_SymmetricAlgorithm_set_IV_m4262655606
Phi:_StencilMaterial__cctor_m2963056855
H9h:_EqualityComparer_1_System_Collections_IEqualityComparer_Equals_m315020809_gshared
Ynh:_CustomAttributeNamedArgument_GetHashCode_m3715408876_AdjustorThunk
LZc:__Z38Register_UnityEngine_Font_HasCharacterv
Bog:_X509Certificate2_AppendBuffer_m3517242299
W1a:__Z35IntersectSpherePlaneBoundsOptimizedRKN4math7_float4EPS1_i
nye:_CultureInfo_get_IsNeutralCulture_m3874876470
rte:_Delegate_CreateDelegate_m3813023227
_Fi:__Z46RuntimeInvoker_WellKnownObjectMode_t2630225581PK10MethodInfoPvPS2_
Lpj:_Uri_get_AbsoluteUri_m2120317928
D8b:__ZNK9Texture2D17CheckHasPixelDataEv
tHe:_ColorTween_TweenValue_m3279916815
Hze:_BaseInputModule_IsModuleSupported_m4272494372
l7:__Z22CleanupLODGroupManagerPv
xZe:_Array_InternalArray__ICollection_Add_TisContentType_t1028629049_m2984242302_gshared
mnc:__Z21Event_CUSTOM_PopEventP12Il2CppObject
ml:_glUniform3fv
Jzb:__ZNSt3__218__insertion_sort_3IRN15ResourceManager10Dependency6SorterEPS2_EEvT0_S6_T_
d9e:_Enumerator_System_Collections_IEnumerator_Reset_m3796537546_AdjustorThunk
iZc:_UNITY_FT_Init_Class_tt_service_gx_multi_masters
uri:_InternalEnumerator_1_System_Collections_IEnumerator_Reset_m3249248421_AdjustorThunk
_Tf:_IntComparer_Compare_m3057931085
FYa:__ZNK16LightmapSettings31GetRealtimeLightmapDecodeValuesEv
BL:__ZN5audio5mixer12SetSuspendedERNS0_16AudioMixerMemoryEb
ena:__ZN17PersistentManager21UnloadNonDirtyStreamsEv
VAi:__Z78RuntimeInvoker_Int32_t2071877448_DecimalU26_t1613489971_DecimalU26_t1613489971PK10MethodInfoPvPS2_
jAd:__ZN6il2cpp2vm13LivenessStateC2EP11Il2CppClassjPFvPP12Il2CppObjectiPvES7_PFvvESB_
PRi:__Z41RuntimeInvoker_ColorTweenMode_t1328781136PK10MethodInfoPvPS2_
hSa:__ZN12ImageFilters4BlitER17ShaderPassContextP7TextureP13RenderTextureiPK18SharedMaterialDataPKcP6ShaderiNS_9BlitFlagsE11CubemapFaceRK8Vector2fSH_
Rmg:_Oid__ctor_m1936781897
fVh:_Object_INTERNAL_CALL_Internal_InstantiateSingleWithParent_m1401308849
sdj:_ResourceSet__ctor_m1222864106
hJh:_UIntPtr_op_Explicit_m1113914169
qmf:_Collection_1_System_Collections_IList_get_Item_m3376056117_gshared
uyi:__Z44RuntimeInvoker_Int64_t909078037_Il2CppObjectPK10MethodInfoPvPS2_
Jl:_emscripten_glDepthMask
OAe:__ZN23InterfaceActionInvoker1IP28PointerEventData_t1599784723E6InvokeEjP11Il2CppClassP12Il2CppObjectS1_
oug:__ZL76UInt16_t986882611_CustomAttributesCacheGenerator_UInt16_TryParse_m1818885113P21CustomAttributesCache
c9e:_Enumerator_VerifyState_m3639069574_gshared
GBa:__ZN4crnd25static_huffman_data_model22prepare_decoder_tablesEv
Qlf:_Enumerator_MoveNext_m689054299_gshared
L1e:_Array_Sort_TisIl2CppObject_TisIl2CppObject_m1915706600_gshared
V5f:_ModulusRing_Difference_m662924064
Xqi:_InternalEnumerator_1_MoveNext_m1869236997_gshared
XFe:_CanvasUpdateRegistry_ObjectValidForUpdate_m855695984
LOe:_InputField_set_onValueChanged_m2406388125
MVg:__ZL95Physics2D_t2540166467_CustomAttributesCacheGenerator_Physics2D_Raycast_m2303387255____maxDepth5P21CustomAttributesCache
Mvf:_ReadOnlyCollection_1_System_Collections_ICollection_get_SyncRoot_m2702046016_gshared
kZ:__ZL22CleanupUnityWebStreamsPv
jWg:__ZL92AudioSource_t1135106623_CustomAttributesCacheGenerator_AudioSource_Play_m889724421____delay0P21CustomAttributesCache
GPb:__Z18Transfer_BlittableI18StreamedBinaryReadILb0EELb0E10ColorRGBAfEvRK29SerializationCommandArgumentsR31RuntimeSerializationCommandInfo
rjg:_ListDictionary_Add_m4276262662
N7:__Znaj
AWd:_RIPEMD160Managed_GGG_m1639995340
J0j:_emscripten_glEnableClientState__wrapper
xZ:__ZN17MessageIdentifierC2EPKcNS_7OptionsEPKN5Unity4TypeES1_
yE:__Z76AnimatorControllerPlayable_CUSTOM_INTERNAL_CALL_CrossFadeInFixedTimeInternalR9HPlayableifif
U$h:_Enumerator_System_Collections_IEnumerator_get_Current_m1648049763_gshared
jFg:__ZL66ISerializationSurrogate_t1282780357_CustomAttributesCacheGeneratorP21CustomAttributesCache
EUe:_Enumerable_Any_TisIl2CppObject_m2208185096_gshared
tDi:__Z57RuntimeInvoker_DSAParameters_t1872138834_SByte_t454417549PK10MethodInfoPvPS2_
Aib:__ZN11GameManager15ThreadedCleanupEv
Vhf:_List_1__ctor_m1337392449_gshared
Q6d:_Array_System_Collections_IList_Remove_m2438892375
TQf:_TextWriter__ctor_m2225796097
rgj:__ZN21InterfaceFuncInvoker0IP24StringU5BU5D_t1642385972E6InvokeEjP11Il2CppClassP12Il2CppObject
xdb:__ZN14SafeBinaryRead8TransferI14ConstantStringEEvRT_PKc17TransferMetaFlags
Ntj:_ScriptableObject_Internal_CreateScriptableObject_m1778903390
Hea:__ZNK6Camera16GetStereoEnabledEv
k2b:__ZN12LightManager15InitializeClassEv
Hfa:__ZN9ShaderLab11shaderprops16GetComputeBufferEPK19ShaderPropertySheetS3_NS_16FastPropertyNameE
G3:__ZN23ManagedAttributeManager35CallManagedGetDefaultExecutionOrderE17ScriptingClassPtr
ibc:__ZN18ScriptingArgumentsC2Ev
vEh:_TimeZone_IsDaylightSavingTime_m875882154
Qki:_ArrayReadOnlyList_1_Insert_m503707439_gshared
dYj:_emscripten_glBlendFuncSeparate__wrapper
kBi:__Z52RuntimeInvoker_Single_t2076509932_Decimal_t724701077PK10MethodInfoPvPS2_
Kag:_CipherSuiteCollection_System_Collections_IList_set_Item_m750275607
BTa:__ZNK25CameraStackRenderingState27GetStereoImageEffectTextureEb
JXd:_SHA1CryptoServiceProvider__ctor_m3127563759
Tp:__ZN8Vector3f8TransferI14SafeBinaryReadEEvRT_
s9b:__ZN13BuildSettings13GetSceneIndexERKN4core12basic_stringIcNS0_20StringStorageDefaultIcEEEE
Zah:__ZL103BaseVertexEffect_t2504093552_CustomAttributesCacheGenerator_BaseVertexEffect_ModifyVertices_m3446986347P21CustomAttributesCache
Co:FUNCTION_TABLE_ii
H0h:_Enumerator_MoveNext_m335649778_AdjustorThunk
qT:__ZNSt3__26__treeINS_12__value_typeIN4core12basic_stringIcNS2_20StringStorageDefaultIcEEEES6_EENS_19__map_value_compareIS6_S7_NS_4lessIS6_EELb1EEENS_9allocatorIS7_EEE16__construct_nodeERKNS_4pairIKS6_S6_EE
Qrc:__Z18Transfer_BlittableI9JSONWriteLb0E8BitFieldEvRK29SerializationCommandArgumentsR31RuntimeSerializationCommandInfo
Zvd:__ZNK15dense_hashtableINSt3__24pairIK10KeyWrapperINS1_IP11Il2CppClassjEEES4_EES6_N6il2cpp8metadata14ArrayClassHashEN14dense_hash_mapIS6_S4_SB_NS6_14EqualsComparerINSA_17ArrayClassCompareEEENS0_9allocatorIS8_EEE9SelectKeyESF_SH_E10test_emptyEj
PBj:_Predicate_1__ctor_m2863314033_gshared
yWj:b44
hye:_CultureInfo_get_TextInfo_m1582311326
S6b:__ZNK6Sprite15GenerateOutlineEfhbRNSt3__26vectorI13dynamic_arrayI8Vector2fLj4EENS0_9allocatorIS4_EEEEi
NQh:_GUIStyle_get_contentOffset_m1904924583
G_h:_ShimEnumerator_get_Key_m616785465_gshared
a0f:_SmallXmlParser_Error_m1832158746
vsg:_RepeatContext_get_IsLazy_m1620488045
Dk:_glDeleteVertexArrays
P9a:__Z24CreateDirectoryRecursiveRKN4core12basic_stringIcNS_20StringStorageDefaultIcEEEE
vWj:b41
TUb:__ZN9ShaderLab20SerializedSubProgram8TransferI18StreamedBinaryReadILb0EEEEvRT_
tQf:_StreamAsyncResult_get_AsyncWaitHandle_m4218169359
A$g:__ZL89GUIStyle_t1799908754_CustomAttributesCacheGenerator_GUIStyle_get_stretchWidth_m1223411161P21CustomAttributesCache
Blc:__Z22MonoGUIContentToNative18ScriptingObjectPtrR10GUIContent
F0a:__Z9EndJobSetR8JobFence11JobPriority
W4e:_Array_InternalArray__get_Item_TisContactPoint2D_t3659330976_m825151777_gshared
n_c:__ZN2UI13CanvasManager9AddCanvasEPNS_6CanvasE
bqa:__ZN9Texture3D8TransferI19StreamedBinaryWriteILb0EEEEvRT_
PUa:__ZNK6Camera22CalculateRenderingPathEv
etc:__ZN9JSONWrite8TransferI5RectTIfEEEvRT_PKc17TransferMetaFlags
ju:__ZN11UnityEngine9Animation37SetGenericRootTransformPropertyValuesERKNS0_30AnimatorGenericBindingConstantERKN7mecanim10ValueArrayER9Transformbb
tbj:_AnimatorControllerPlayable_INTERNAL_CALL_GetCurrentAnimatorClipInfoInternal_m3542665271
o9f:_ContentInfo_get_Content_m1802070908
oJb:__ZL12InvokeMethodI17RemapPPtrTransferEvRK29SerializationCommandArgumentsR31RuntimeSerializationCommandInfo
y3f:_X509Certificate_get_PublicKey_m714501701
SQe:_U3CMouseDragOutsideRectU3Ec__Iterator1_System_Collections_IEnumerator_get_Current_m561728752
BRc:_tt_sbit_decoder_load_image
Z2d:_String_LastIndexOf_m290475879
$yc:__ZN15b2DistanceJointD0Ev
JWe:__ZN21InterfaceFuncInvoker1Ii22UILineInfo_t3621277874E6InvokeEjP11Il2CppClassP12Il2CppObjectS0_
MNe:_Image_get_layoutPriority_m2151045813
Fwd:__ZN15dense_hashtableINSt3__24pairIK10KeyWrapperIP11Il2CppClassES4_EES5_N6il2cpp8metadata16SZArrayClassHashEN14dense_hash_mapIS5_S4_SA_NS5_14EqualsComparerINS9_19SZArrayClassCompareEEENS0_9allocatorIS7_EEE9SelectKeyESE_SG_EC2EjRKSA_RKSE_RKSI_
rIg:__ZL58ManualResetEvent_t926074657_CustomAttributesCacheGeneratorP21CustomAttributesCache
jUi:__Z71RuntimeInvoker_Void_t1841601450_CornerU26_t4129226442_Int32_t2071877448PK10MethodInfoPvPS2_
JRf:_TextReader_Read_m975794707
Tlc:__ZNSt3__24listIN10GUIManager12SortedScriptE11memory_poolIS2_EE6__sortI13OldSortScriptEENS_15__list_iteratorIS2_PvEESA_SA_jRT_
$Hh:_UInt64_System_IConvertible_ToChar_m1930853313_AdjustorThunk
Odg:_TlsClientCertificate_SendCertificates_m1096074091
pEe:_UIBehaviour_OnCanvasHierarchyChanged_m762109874
Gie:_SyncHashtable_get_Item_m408601391
TFg:__ZL45DSA_t903174880_CustomAttributesCacheGeneratorP21CustomAttributesCache
Pxf:_ReadOnlyCollection_1_System_Collections_IEnumerable_GetEnumerator_m1401363518_gshared
bdb:__ZNK9Behaviour26GetTypeInfoVirtualInternalEv
Wlf:_Stack_1_System_Collections_ICollection_CopyTo_m2104527616_gshared
jzh:_StringBuilder_AppendFormat_m1666670800
Y_a:__ZN18DeferredRenderLoop13RenderGBufferEP13RenderTexturePS1_b8JobFencePK25DeferredRenderLoopScratchRi
XIb:__Z18Transfer_BlittableI17RemapPPtrTransferLb1E8BitFieldEvRK29SerializationCommandArgumentsR31RuntimeSerializationCommandInfo
ryd:__ZN6il2cpp6icalls8mscorlib6System9ThreadingL11ThreadStartEPv
F$:__ZN15DirectorManager12OnSampleTimeEv
fAf:_ReadOnlyCollection_1_System_Collections_IList_Remove_m3878418841_gshared
QOe:_InputField_EnforceContentType_m1902926812
iA:__ZN8Animator13ClearBindingsEv
eea:__ZN12CachedReader10Align4ReadEv
REc:__ZN15b2WorldManifold10InitializeEPK10b2ManifoldRK11b2TransformfS5_f
bvf:_Collection_1_CopyTo_m42272870_gshared
eOi:__Z154RuntimeInvoker_RaycastHit2D_t4063908774_Vector2_t2243707579_Vector2_t2243707579_Single_t2076509932_Int32_t2071877448_Single_t2076509932_Single_t2076509932PK10MethodInfoPvPS2_
Mzd:__ZN6il2cpp2vm9Exception28GetMarshalDirectiveExceptionEPKc
dVf:_MulticastDelegate_GetObjectData_m3187757658
wFe:_CanvasScaler_set_referencePixelsPerUnit_m1188599784
PAf:_ReadOnlyCollection_1_System_Collections_IList_get_Item_m887129009_gshared
UCf:_Comparison_1_EndInvoke_m179917407_gshared
A$b:__ZNK28MonoBehaviourPropertyBinding12SetPPtrValueERKN11UnityEngine9Animation10BoundCurveEi
cWa:__Z21GetScriptingArraySize17ScriptingArrayPtr
$Kc:__ZN20TextRenderingPrivate8FontImpl8TransferI14SafeBinaryReadEEvRT_
JTi:__Z59RuntimeInvoker_Boolean_t3825574718_KeyValuePair_2_t38854645PK10MethodInfoPvPS2_
enj:__ZN23InterfaceActionInvoker1IP19LinkRef_t2090853131E6InvokeEjP11Il2CppClassP12Il2CppObjectS1_
hia:__Z35UnityPropertySheet_MakeSortedColorsRKNSt3__23mapIN9ShaderLab16FastPropertyNameE10ColorRGBAfNS_4lessIS2_EENS_9allocatorINS_4pairIKS2_S3_EEEEEER10vector_mapIS2_S3_S5_NS6_INS7_IS2_S3_EEEEE
SPh:_GUIStyle_Draw_m4006459684
qwa:__ZN9GfxDevice17ImmediateTexCoordEifff
Ulj:_Parser_ParseRegularExpression_m2390577313
fTc:_ft_black_new
ODc:__ZN10ClipperLib7Clipper13AppendPolygonEPNS_5TEdgeES2_
nWf:_OperatingSystem_Clone_m1943707477
nRg:__ZL102GameObject_t1756533147_CustomAttributesCacheGenerator_GameObject_Internal_CreateGameObject_m3428198595P21CustomAttributesCache
bnj:_Alternation_AddAlternative_m623421443
Ypg:_X509CertificateEnumerator_System_Collections_IEnumerator_Reset_m327358896
h_i:__Z36RuntimeInvoker_Enumerator_t402048720PK10MethodInfoPvPS2_
h$d:_Hash__ctor_m2554411450
TYd:_SHAConstants__cctor_m2781430679
pgb:__ZN17FileSystemHandler4CopyER13FileEntryDataS1_
Q0d:_Single_System_IConvertible_ToDateTime_m2510003459_AdjustorThunk
Kte:_Delegate_RemoveImpl_m3666700529
ZVj:_emscripten_glUniform4f__wrapper
Ljg:_NameObjectCollectionBase_OnDeserialization_m3478980442
P0i:_AnimatorControllerParameter_get_name_m1366583724
COe:_InputField_set_caretColor_m2252440840
aB:__ZN8Animator8TransferI19StreamedBinaryWriteILb0EEEEvRT_
yXa:__ZNK6Camera16GetProjectionFarEv
$3a:__Z24InverseTransformRotationRK23TransformAccessReadOnlyRKN4math7_float4E
mHg:__ZL68SecurityCriticalAttribute_t2312050089_CustomAttributesCacheGeneratorP21CustomAttributesCache
fM:__ZN11AudioSource6UpdateEv
DXe:_Array_InternalArray__IndexOf_TisSlot_t2267560602_m1912863273_gshared
k9c:__Z31GetPerformanceReportingSettingsv
gqa:__ZN7Texture34CreateFileTextureUploadInstructionE18TextureUploadFlagsj
Yuj:_StateMachineBehaviour_OnStateExit_m1490844990
ewa:__ZN9GfxDevice21ResetDynamicResourcesEv
YRa:__ZN13ComputeShader14SetBufferParamEjRKN9ShaderLab16FastPropertyNameE15ComputeBufferID
Sze:_EventSystem_get_current_m319019811
qDf:_Comparison_1_EndInvoke_m4174686984_gshared
bih:_StreamingContext__ctor_m3063421596_AdjustorThunk
Uzf:_ReadOnlyCollection_1_System_Collections_Generic_IListU3CTU3E_Insert_m3054305464_gshared
d$b:__ZN19LowerResBlitTexture13ApplySettingsEv
ovg:__ZL70IntPtr_t_CustomAttributesCacheGenerator_IntPtr_op_Explicit_m3896766622P21CustomAttributesCache
TA:__ZN8Animator8TransferI14SafeBinaryReadEEvRT_
pwd:__ZN15dense_hashtableINSt3__24pairIK10KeyWrapperIP11Il2CppClassES4_EES5_N6il2cpp8metadata16SZArrayClassHashEN14dense_hash_mapIS5_S4_SA_NS5_14EqualsComparerINS9_19SZArrayClassCompareEEENS0_9allocatorIS7_EEE9SelectKeyESE_SG_E4swapERSJ_
Nhb:__ZN17GlobalGameManager23VirtualRedirectTransferER18StreamedBinaryReadILb0EE
UXe:_Array_InternalArray__IndexOf_TisTypeTag_t141209596_m2882894956_gshared
$gi:_Slider_get_value_m4182660424
Dxc:__ZNK14b2CapsuleShape5CloneEP16b2BlockAllocator
gx:__ZN17AnimationPlayable34CollectAnimatorControllerPlayablesER13dynamic_arrayIP26AnimatorControllerPlayableLj4EE
mP:__ZN16BaseVideoTexture19UpdateVideoTexturesEv
mlb:__Z28BuildSingleStreamChannelInfo17ShaderChannelMaskRK20VertexChannelsLayoutS_S2_P11ChannelInfo
dOi:__Z79RuntimeInvoker_RaycastHit2D_t4063908774_Vector2_t2243707579_Vector2_t2243707579PK10MethodInfoPvPS2_
Loa:__ZNK16LightmapSettings23HasLightProbeTetrahedraEv
$cg:_Context_get_WriteSequenceNumber_m243492531
Vrb:__ZN6Sprite23VirtualRedirectTransferER19StreamedBinaryWriteILb0EE
aBg:__ZL51Assembly_t4268412390_CustomAttributesCacheGeneratorP21CustomAttributesCache
R2d:_String_LastIndexOfAny_m1473637802
Bjc:__Z38Transform_CUSTOM_INTERNAL_set_positionP12Il2CppObjectRK8Vector3f
jef:_List_1_System_Collections_ICollection_CopyTo_m3062449209_gshared
Qpd:__ZNK15dense_hashtableINSt3__24pairIK10KeyWrapperINS1_IPK9FieldInfoP11Il2CppClassEEEjEES9_17ReflectionMapHashIS8_EN14dense_hash_mapIS9_jSD_NS9_14EqualsComparerINS0_8equal_toIS8_EEEENS0_9allocatorISB_EEE9SelectKeyESI_SK_E5beginEv
cId:__ZN6il2cpp2os6Thread15CurrentThreadIdEv
qt:__ZN15SerializeTraitsIN4math4trsXEE8TransferI8BlobSizeEEvRS1_RT_
Fza:__ZN14DataBufferGLES11CopySubDataEPKS_jjj
me:_emscripten_glVertexPointer
VIa:__ZNSt3__26__treeI20DeviceDepthStateGLES11memcmp_lessIS1_S1_ENS_9allocatorIS1_EEE7destroyEPNS_11__tree_nodeIS1_PvEE
b0c:__ZN2UI13PrepareOutputERNS_7BatchesEjjNS_30AdditionalCanvasShaderChannelsE
wcf:_List_1_System_Collections_Generic_ICollectionU3CTU3E_get_IsReadOnly_m1614481629_gshared
F_a:__Z17GetFrustumPortionPK8Vector3fffPS_
QJi:__Z72RuntimeInvoker_Il2CppObject_Il2CppObject_Decimal_t724701077_Il2CppObjectPK10MethodInfoPvPS2_
oJh:_UnauthorizedAccessException__ctor_m259001183
sBd:__ZN15dense_hashtableINSt3__24pairIK10KeyWrapperIP14Il2CppIUnknownEjEES5_N6il2cpp5utils11PointerHashIS3_EEN14dense_hash_mapIS5_jSB_NS5_14EqualsComparerINS0_8equal_toIS4_EEEENS0_9allocatorIS7_EEE9SelectKeyESG_SI_E14squash_deletedEv
Dwj:_TouchScreenKeyboard_set_text_m3456054179
oF:__Z96Register_UnityEngine_Experimental_Director_AnimatorControllerPlayable_INTERNAL_CALL_PlayInternalv
qIe:_DefaultControls_CreateDropdown_m1384069408
lCe:_PointerEventData_get_clickCount_m4064532478
pyf:_ReadOnlyCollection_1_System_Collections_Generic_ICollectionU3CTU3E_get_IsReadOnly_m3508872969_gshared
xwe:_EventArgs__cctor_m1350395667
jXh:_Rect_get_position_m24550734_AdjustorThunk
AEj:_UnityEvent_1_GetDelegate_m4062537313_gshared
bxe:_CCGregorianCalendar_is_leap_year_m567513478
wng:_Oid_get_Value_m2271181078
V8d:_Attribute_IsDefined_m2118467641
oSa:__ZN14GraphicsHelper8DrawQuadER9GfxDevice17ShaderChannelMaskbRK5RectTIfE
UAe:_ExecuteEvents_Execute_m898902863
Tli:_InternalEnumerator_1_System_Collections_IEnumerator_get_Current_m3125080595_gshared
Dsf:_Collection_1_System_Collections_IList_Add_m2091889616_gshared
O5b:__ZN16StreamedResource8TransferI24GenerateTypeTreeTransferEEvRT_
rzc:__ZN11b2GearJoint4DumpEv
MJe:_DropdownItem_OnPointerEnter_m761897861
fz:__ZN7mecanim9animation21CreateBlendTreeOutputEjRNS_6memory9AllocatorE
AOi:__Z75RuntimeInvoker_Int32_t2071877448_PlayableHandleU26_t3483893774_Il2CppObjectPK10MethodInfoPvPS2_
_Fa:__ZN10Matrix3x3f15InvertTransposeEv
$nd:__ZNSt3__213__vector_baseIN6il2cpp2vm17TypeNameParseInfoENS_9allocatorIS3_EEED2Ev
KTe:_Array_InternalArray__ICollection_Remove_TisKeyValuePair_2_t1174980068_m2768765894_gshared
OAb:__ZN24GenerateTypeTreeTransfer8TransferINSt3__26vectorIN4core12basic_stringIcNS3_20StringStorageDefaultIcEEEE13stl_allocatorIS7_L18MemLabelIdentifier12ELi16EEEEEEvRT_PKc17TransferMetaFlags
lqf:_Collection_1_set_Item_m2199807215_gshared
jRg:__ZL96GameObject_t1756533147_CustomAttributesCacheGenerator_GameObject_SendMessage_m71956653____value1P21CustomAttributesCache
gIb:__Z29Transfer_Blittable_ArrayFieldI14SafeBinaryRead8Vector3fEvRT_R9ArrayInfoRK23StaticTransferFieldInfo
bHh:_UInt32_System_IConvertible_ToBoolean_m91295134
IBh:_Monitor_Monitor_test_synchronised_m1542589500
bRg:__ZL85GameObject_t1756533147_CustomAttributesCacheGenerator_GameObject_get_layer_m725607808P21CustomAttributesCache
m1g:__ZL68RuntimePlatform_t1869584967_CustomAttributesCacheGenerator_WP8PlayerP21CustomAttributesCache
VLc:__ZN20TextRenderingPrivate8FontImpl18ResetCachedTextureEv
Jug:__ZL75String_t_CustomAttributesCacheGenerator_String_Concat_m626692867____values0P21CustomAttributesCache
kRg:__ZL98GameObject_t1756533147_CustomAttributesCacheGenerator_GameObject_SendMessage_m71956653____options2P21CustomAttributesCache
X1f:_SymmetricTransform_TransformFinalBlock_m4192185386
_Gf:_TextInfo__ctor_m1263401274
TJh:_Version_get_Major_m3385239713
YFj:_ListPool_1_Release_m3047738410_gshared
Bwj:_TouchScreenKeyboard_Open_m913506328
ise:_Decimal_System_IConvertible_ToInt16_m3159038792
Pcg:_Context_get_SecurityProtocolFlags_m3295551796
k1h:_ValueCollection__ctor_m927733289_gshared
Qea:__ZN11NamedObject15ThreadedCleanupEv
MAc:__ZNK12b2WheelJoint10GetAnchorBEv
D1i:_LowMemoryCallback__ctor_m4181659636
Dri:_InternalEnumerator_1__ctor_m2981879621_AdjustorThunk
gdc:__Z53Register_UnityEngine_Behaviour_get_isActiveAndEnabledv
YPg:__ZL87Component_t3819376471_CustomAttributesCacheGenerator_Component_GetComponent_m4225719715P21CustomAttributesCache
bDb:__ZNK13MonoBehaviour26GetTypeInfoVirtualInternalEv
p9h:_EqualityComparer_1__ctor_m3971803374_gshared
xq:__ZNSt3__26vectorIN4core12basic_stringIcNS1_20StringStorageDefaultIcEEEENS_9allocatorIS5_EEE8__appendEj
kmd:_il2cpp_gc_collect
gzb:__ZN26PlayerSettingsSplashScreen8TransferI17RemapPPtrTransferEEvRT_
FLc:__ZN20TextRenderingPrivate8FontImpl8TransferI17RemapPPtrTransferEEvRT_
upi:_InternalEnumerator_1_get_Current_m3922357178_gshared
okd:__ZN6il2cpp6icalls8mscorlib6SystemL17CollectTypeFieldsINS_5utils10functional10TrueFilterEEEvP11Il2CppClassPKS7_iRNSt3__26vectorIP9FieldInfoNSB_9allocatorISE_EEEERKT_
N5g:__ZL72ColorBlock_t2652774230_CustomAttributesCacheGenerator_m_HighlightedColorP21CustomAttributesCache
NEh:_Type_get_IsValueType_m1733572463
uOh:_GUISkin_get_horizontalScrollbarThumb_m4062590908
tZb:__Z13GetTagManagerv
Imi:_InternalEnumerator_1_Dispose_m1748410190_AdjustorThunk
uEi:__Z127RuntimeInvoker_Void_t1841601450_IntPtr_t_Int32_t2071877448_SByte_t454417549_Int32_t2071877448_SByte_t454417549_SByte_t454417549PK10MethodInfoPvPS2_
kUe:_Array_InternalArray__ICollection_Remove_TisUInt16_t986882611_m65494986_gshared
Iyf:_ReadOnlyCollection_1_IndexOf_m3054637117_gshared
SEd:__ZN24dense_hashtable_iteratorINSt3__24pairIK10KeyWrapperINS1_IPKcS4_EEEiEES6_24NamespaceAndNamePairHashN14dense_hash_mapIS6_iS9_NS6_14EqualsComparerI26NamespaceAndNamePairEqualsEENS0_9allocatorIS8_EEE9SelectKeyESD_SF_E30advance_past_empty_and_deletedEv
nQ:__ZN11UnityEngine15CloudWebService17CloudJobSchedulerD0Ev
M1d:_String_System_IConvertible_ToBoolean_m2696751322
nna:__ZN18LoadSceneOperation7PerformEv
nMh:_GUILayer_INTERNAL_CALL_HitTest_m693512502
vG:__ZL16FMOD_ErrorString11FMOD_RESULT_468
U2d:_String_LastIndexOfAny_m4281325295
MDc:__ZN10ClipperLib7Clipper14IntersectEdgesEPNS_5TEdgeES2_RNS_8IntPointE
VE:__Z113Register_UnityEngine_Experimental_Director_AnimatorControllerPlayable_INTERNAL_CALL_GetAnimatorControllerInternalv
lmc:__Z21CleanupGlobalGUIStatev
pDh:_TimeSpan__ctor_m1888018443_AdjustorThunk
Bie:_SyncHashtable_get_Count_m3694444082
OOg:__ZL144U3CCreateWhereIteratorU3Ec__Iterator1D_1_t2523986802_CustomAttributesCacheGenerator_U3CCreateWhereIteratorU3Ec__Iterator1D_1_Dispose_m3152287270P21CustomAttributesCache
tHa:__ZN22VertexDeclarationCache5ClearEv
C$j:_emscripten_glUniform2i__wrapper
N7a:__ZN17PersistentManager12SetPathRemapERKN4core12basic_stringIcNS0_20StringStorageDefaultIcEEEES6_
j0a:__ZN6Camera24PrepareCullingParametersERK23CameraCullingParameters13RenderingPathR11CullResults
zna:__ZN19RuntimeSceneManager22EndIntegrateMainThreadEP10UnitySceneNS_11LoadingModeE
VGg:__ZL84Evidence_t1407710183_CustomAttributesCacheGenerator_Evidence_GetHashCode_m1260371757P21CustomAttributesCache
hvh:_TargetParameterCountException__ctor_m2760108938
zyf:_ReadOnlyCollection_1_System_Collections_ICollection_get_IsSynchronized_m2344337514_gshared
qJb:__Z26Transfer_UnityEngineObjectI17RemapPPtrTransferLb0EEvRK29SerializationCommandArgumentsR31RuntimeSerializationCommandInfo
$2d:_String_IsNullOrEmpty_m2802126737
Gbe:_Byte_Parse_m1442736478
Sxa:__ZN13GfxDeviceGLES15OnDeviceCreatedEb
WKf:_Int64_Parse_m3258022240
L2d:_String_IndexOfOrdinal_m3591623977
iwj:_Texture2D_get_whiteTexture_m1979591766
akh:_CryptoConfig_EncodeLongNumber_m2352037787
sFh:_Type_GetMethod_m475234662
w1d:_Single_GetHashCode_m3102305584
t6e:_KeyValuePair_2__ctor_m1877755778_AdjustorThunk
bfj:_ActivationServices_get_ConstructionActivator_m1726426854
nLb:__Z29Transfer_Blittable_ArrayFieldI24GenerateTypeTreeTransfer4AABBEvRT_R9ArrayInfoRK23StaticTransferFieldInfo
xJg:__ZL76Convert_t2607082565_CustomAttributesCacheGenerator_Convert_ToChar_m245844937P21CustomAttributesCache
SIg:__ZL52Activator_t1850728717_CustomAttributesCacheGeneratorP21CustomAttributesCache
BOd:_GC_adj_bytes_allocd
Ehi:_SpriteState_t1353336012_marshal_pinvoke_cleanup
tZe:_Array_InternalArray__ICollection_Add_TisKeyframe_t1449471340_m887263954_gshared
Fxj:_UIVertex__cctor_m803910084
T_e:_Array_InternalArray__Insert_TisDateTime_t693205669_m1484996356_gshared
pef:_List_1_System_Collections_IList_Remove_m3933652540_gshared
m6h:_DefaultComparer_GetHashCode_m926674183_gshared
GPf:_MonoIO_get_ConsoleInput_m2976499023
ith:_OpCode_get_Size_m481593949_AdjustorThunk
Yfe:_BitArrayEnumerator_checkVersion_m3839504595
j7d:_Array_GetUpperBound_m1352329707
gOa:__ZZ23InitPlayerLoopCallbacksvEN36UpdateScriptRunBehaviourUpdatestruct7ForwardEv
P3e:_Mesh_SetListForChannel_TisIl2CppObject_m2261448912_gshared
NKi:__Z61RuntimeInvoker_Void_t1841601450_Byte_t3683104436_Il2CppObjectPK10MethodInfoPvPS2_
wbg:_RecordProtocol__ctor_m168945279
fre:_DateTimeOffset_Equals_m3728302791_AdjustorThunk
dRh:_GUIStyleState_t3801000545_marshal_pinvoke_back
q_a:__ZN20SphericalHarmonicsL219AddDirectionalLightERKN4math7_float3ERKNS0_7_float4E
mEh:_TimeSpan_op_GreaterThanOrEqual_m3997050520
oKg:__ZL77Convert_t2607082565_CustomAttributesCacheGenerator_Convert_ToUInt16_m36213644P21CustomAttributesCache
u$:__Z26ScheduleJobForEachInternalR8JobFencePFvPvjES1_iPFvS1_E11JobPriority
Hng:_OidEnumerator_MoveNext_m1889267785
F9b:__ZN9Scripting18RaiseMonoExceptionEPKcz
Iob:__ZN9Texture2D8TransferI19StreamedBinaryWriteILb0EEEEvRT_
iCb:__ZN24RingBufferMemoryFileData6UnlockEPv
ZNh:_GUISkin_set_box_m877476512
PJe:_OptionData__ctor_m3070653720
NFj:_TweenRunner_1_StartTween_m3792842064_gshared
J2b:__ZN9ShaderLab16FastPropertyName15InitBy28BitHashEj
Y0d:_Single_System_IConvertible_ToInt32_m3269519527_AdjustorThunk
Mbd:__ZN6il2cpp2vm5Class7GetNameEP11Il2CppClass
PXd:_SHA1Internal_ProcessBlock_m4070037334
Kji:_U3CGetEnumeratorU3Ec__Iterator0_System_Collections_IEnumerator_get_Current_m2580780957_gshared
KRg:__ZL87RectOffset_t3387826427_CustomAttributesCacheGenerator_RectOffset_get_bottom_m4112328858P21CustomAttributesCache
W$e:_Array_InternalArray__set_Item_TisDouble_t4078015681_m24756265_gshared
Cdh:_ObjRef_GetObjectData_m3081609242
I$b:__ZN13ProduceHelperIN2UI13RectTransformELb0EE7ProduceE18MemLabelIdentifier18ObjectCreationMode
_tb:__ZN17PackedFloatVector12UnpackFloatsEPfiiii
DHg:__ZL113EncoderReplacementFallback_t4228544112_CustomAttributesCacheGenerator_EncoderReplacementFallback__ctor_m517300448P21CustomAttributesCache
Xvf:_ReadOnlyCollection_1__ctor_m3671019970_gshared
Iv:__ZN17AnimationPlayable28UpdateInternalStateRecursiveILi3ELb0EEEvPK35AnimationPlayableEvaluationConstant
jxa:__ZN13GfxDeviceGLES21DestroyComputeProgramER12ObjectHandleI18ComputeProgram_TagPvE
lme:_Convert_ToDecimal_m2007036836
o7:__ZN17UniqueIDGenerator16DestroyPureIndexEj
S3:__ZL21AppendNestedClassName17ScriptingClassPtrRN4core17string_with_labelILi1EEE
NSb:__ZN14SafeBinaryRead21TransferSTLStyleArrayINSt3__26vectorIN9ShaderLab20SerializedSubProgram12UAVParameterENS1_9allocatorIS5_EEEEEEvRT_17TransferMetaFlags
ihj:_Context_NotifyDynamicSinks_m1367144344
bV:__ZNK13BaseAllocator10IsAssignedEv
wR:__ZN24TextDOMTransferWriteBaseI9JSONWriteE12PushMetaFlagEi
tyi:__Z45RuntimeInvoker_Int16_t4041245914_Il2CppObjectPK10MethodInfoPvPS2_
Cbg:_TlsClientCertificateVerify__ctor_m110646389
Ela:__ZN6prcoreL26RemapGenericIntegerToFloatI17TexFormatARGB888815TexFormatRFloatEEvPKNS_9InnerInfoE
TU:__ZN5Mutex6UnlockEv
rhj:_Context_GetServerContextSinkChain_m390126977
Rnd:__ZN6il2cpp2vm17TypeNameParseInfoD2Ev
R1e:_Array_Sort_TisIl2CppObject_m143182644_gshared
l$g:__ZL89GUIStyle_t1799908754_CustomAttributesCacheGenerator_GUIStyle_set_imagePosition_m327170707P21CustomAttributesCache
mRf:_StringReader_Read_m513112775
qqb:__ZNK8Renderer8GetLayerEv
kmf:_Collection_1_System_Collections_IList_Insert_m266942173_gshared
kkb:__ZN12FlareManager11DeleteFlareEi
Pnf:_Collection_1_Add_m2613548553_gshared
bA:__ZN7mecanim9animation22DestroyBlendTreeOutputEPNS0_15BlendTreeOutputERNS_6memory9AllocatorE
LWa:__ZNK6Camera20GetReplacementShaderEv
GXj:_glProgramBinary__wrapper
Rre:_Decimal__ctor_m569480123_AdjustorThunk
Ukg:_HttpWebRequest__cctor_m3013631978
HRd:__ZNSt3__26__treeINS_12__value_typeINS_12basic_stringIcNS_11char_traitsIcEENS_9allocatorIcEEEEPFvvEEENS_19__map_value_compareIS7_SA_NS_4lessIS7_EELb1EEENS5_ISA_EEE4findIS7_EENS_15__tree_iteratorISA_PNS_11__tree_nodeISA_PvEEiEERKT_
VSb:__ZNSt3__26vectorIN9ShaderLab20SerializedSubProgram14ConstantBufferENS_9allocatorIS3_EEE7reserveEj
tpa:__ZL23stbir__calculate_memoryP11stbir__info
HLi:__Z90RuntimeInvoker_Boolean_t3825574718_Int32_t2071877448_Int32U26_t455636984_Int32_t2071877448PK10MethodInfoPvPS2_
ird:__ZNK15dense_hashtableINSt3__24pairIK10KeyWrapperINS1_IPK10MethodInfoP11Il2CppClassEEEjEES9_17ReflectionMapHashIS8_EN14dense_hash_mapIS9_jSD_NS9_14EqualsComparerINS0_8equal_toIS8_EEEENS0_9allocatorISB_EEE9SelectKeyESI_SK_E12test_deletedERK24dense_hashtable_iteratorISB_S9_SD_SM_SI_SK_E
Lzg:__ZL90BinaryReader_t2491843768_CustomAttributesCacheGenerator_BinaryReader_ReadSByte_m1712621355P21CustomAttributesCache
Rdi:_Scrollbar_FindSelectableOnRight_m3219495255
hAb:__ZNK30RuntimeInitializeOnLoadManager26GetTypeInfoVirtualInternalEv
E_c:__ZNSt3__227__insertion_sort_incompleteIRPFbPN2UI6CanvasES3_EPS3_EEbT0_S8_T_
iwc:__ZNK9rapidjson12GenericValueINS_4UTF8IcEE13JSONAllocatorE6AcceptINS_12PrettyWriterI16TempBufferWriterS2_S2_S3_EEEEbRT_
RQi:__Z55RuntimeInvoker_AnalyticsResult_t3037633135_Il2CppObjectPK10MethodInfoPvPS2_
D_e:_Array_InternalArray__ICollection_CopyTo_TisVector3_t2243707580_m509487340_gshared
cMe:_GridLayoutGroup_get_constraint_m1351424857
TE:__Z82AnimatorControllerPlayable_CUSTOM_INTERNAL_CALL_IsParameterControlledByCurveStringR9HPlayableP12Il2CppString
muc:__ZL26Transfer_SimpleNativeClassI8JSONRead10RectOffsetLb1EEvRK29SerializationCommandArgumentsR31RuntimeSerializationCommandInfo
M1c:__Z44CanvasRenderer_CUSTOM_INTERNAL_CALL_SetColorP12Il2CppObjectRK10ColorRGBAf
Q2e:_Array_swap_TisUICharInfo_t3056636800_m4036113126_gshared
pfj:_UrlAttribute_Equals_m1587451932
hJd:__ZNSt3__26__treeINS_12basic_stringIcNS_11char_traitsIcEENS_9allocatorIcEEEENS_4lessIS6_EENS4_IS6_EEE12__find_equalIS6_EERPNS_16__tree_node_baseIPvEESG_RKT_
Drc:__Z18Transfer_BlittableI9JSONWriteLb1EsEvRK29SerializationCommandArgumentsR31RuntimeSerializationCommandInfo
EDc:__ZN10ClipperLib8JoinHorzEPNS_5OutPtES1_S1_S1_NS_8IntPointEb
X4c:__Z48UnityAnalyticsHandler_CUSTOM_SendCustomEventNameP12Il2CppObjectP12Il2CppString
clh:_DSAParameters_t1872138834_marshal_pinvoke_cleanup
Sea:__ZN6ObjectD2Ev
Zbc:__ZN9Transform16SetLocalRotationERK11Quaternionf
ele:_DateTime_Parse_m1628430317
RQa:__ZN13RenderManager37RenderCamerasWithScriptableRenderLoopEi
y_f:_ASN1_Element_m2600236165
OY:__GLOBAL__sub_I_runtime_graphics5_lump_cpp
C8:__ZN23InstancedPropInfoStaticL16RegisterCallbackEPv
OZi:__Z37RuntimeInvoker_Enumerator_t2983962278PK10MethodInfoPvPS2_
At:__ZN7mecanim8skeleton25SkeletonPoseComputeLocalQEPKNS0_8SkeletonEPKNS0_13SkeletonPoseTIN4math4trsXEEEPS7_ii
Ojj:_MethodCall_Init_m3987198685
jEd:__ZN6il2cpp2os19ReleaseSocketHandleEj
SGg:__ZL59ApplicationTrust_t3968282840_CustomAttributesCacheGeneratorP21CustomAttributesCache
cyg:__ZL128SafeHandleZeroOrMinusOneIsInvalid_t1177681199_CustomAttributesCacheGenerator_SafeHandleZeroOrMinusOneIsInvalid__ctor_m3340306667P21CustomAttributesCache
tKd:__ZN15dense_hashtableINSt3__24pairIK10KeyWrapperIPK19Il2CppGenericMethodEP10MethodInfoEES6_N6il2cpp8metadata23Il2CppGenericMethodHashEN14dense_hash_mapIS6_S9_SD_NS6_14EqualsComparerINSC_26Il2CppGenericMethodCompareEEENS0_9allocatorISA_EEE9SelectKeyESH_SJ_E5clearEv
Bth:_TypeBuilder_GetPropertyImpl_m1854119335
bph:_TypeBuilder_get_next_table_index_m1415870184
uSj:___cxa_can_catch
G6f:_SequentialSearchPrimeGeneratorBase_GenerateNewPrime_m296245934
Lce:_Char_GetUnicodeCategory_m4273361321
LTi:__Z68RuntimeInvoker_Boolean_t3825574718_Il2CppObject_ObjectU26_t597476745PK10MethodInfoPvPS2_
dXa:__ZN6Camera28DefaultPerformRenderFunctionD0Ev
gEa:__ZNK13TranslateGLES23VertexArraySizeBitfieldEi
$gj:_Identity_get_ClientDynamicProperties_m767245959
Rli:_InternalEnumerator_1__ctor_m675130983_AdjustorThunk
p2h:_Dictionary_2_Clear_m899854001_gshared
DGd:__ZN6il2cpp2os5posix15PosixWaitObjectC2ENS2_4TypeE
KBb:__Z23AppendPathNameExtensionRKN4core12basic_stringIcNS_20StringStorageDefaultIcEEEES5_
eZg:__ZL83Canvas_t209405766_CustomAttributesCacheGenerator_Canvas_get_scaleFactor_m1115379735P21CustomAttributesCache
sth:_TypeBuilder_create_generic_class_m986834171
LIj:__ZL24UnresolvedVirtualCall_34P12Il2CppObjectS0_PK10MethodInfo
WXj:_emscripten_glVertexPointer__wrapper
wsa:__ZN23ShaderVariantCollection13WarmupShadersEv
Ocg:_Context_set_ProtocolNegotiated_m1177527245
qbj:_AnimatorControllerPlayable_INTERNAL_CALL_GetAnimatorTransitionInfoInternal_m2259454958
fHh:_UInt32_System_IConvertible_ToChar_m1056040486
z3:__Z25GetCommonScriptingClassesv
vig:_TlsStream_get_Length_m1562309511
Pna:__Z27scripting_gc_collect_unsafei
XO:__ZN11AudioModule20SuspendVideoTexturesEv
$fe:_CaseInsensitiveComparer__ctor_m1125492797
f2b:__ZN12CubemapArrayC2E18MemLabelIdentifier18ObjectCreationMode
Lke:_Convert_ToByte_m395020137
MKb:__Z26Transfer_UnityEngineObjectI24GenerateTypeTreeTransferLb0EEvRK29SerializationCommandArgumentsR31RuntimeSerializationCommandInfo
vWc:_UNITY_FT_GlyphLoader_CheckPoints
ahf:_List_1_System_Collections_ICollection_CopyTo_m1995866425_gshared
oBc:__ZN16b2PolygonContact7DestroyEP9b2ContactP16b2BlockAllocator
$Rf:_TextWriter_WriteLine_m1754475888
gkb:__ZN15SharedLightData7PrecalcEv
QTd:__ZNK6il2cpp8metadata22Il2CppGenericClassHashclEPK18Il2CppGenericClass
tCj:_InvokableCall_1_Invoke_m769918017_gshared
Vp:__ZN4PPtrI9TransformE8TransferI18StreamedBinaryReadILb0EEEEvRT_
w4e:_Array_InternalArray__get_Item_TisDouble_t4078015681_m2215331088_gshared
$Gg:__ZL57PrincipalPolicy_t289802916_CustomAttributesCacheGeneratorP21CustomAttributesCache
Xdb:__ZN19StreamedBinaryWriteILb0EE19TransferSTLStyleMapINSt3__28multimapIN4core12basic_stringIcNS4_20StringStorageDefaultIcEEEEN11AssetBundle9AssetInfoENS2_4lessIS8_EENS2_9allocatorINS2_4pairIKS8_SA_EEEEEEEEvRT_17TransferMetaFlags
vrf:_Collection_1_ClearItems_m3446813399_gshared
h2h:_Dictionary_2_Init_m3666073812_gshared
sif:_List_1_AsReadOnly_m1681105545_gshared
JMa:__ZN15ArchiveReadFileD0Ev
Q1f:_SymmetricTransform_TransformBlock_m1524716432
x8:__ZN18ConcurrentFreeListI28FileTextureUploadInstructionE7CleanUpEv
zWe:_Array_compare_TisColor32_t874517518_m3842009370_gshared
s6c:__ZN11UnityEngine15PlatformWrapper18GetOperatingSystemEv
ACa:__ZNSt3__26vectorIP14DataBufferGLESNS_9allocatorIS2_EEE21__push_back_slow_pathIKS2_EEvRT_
Pti:_InternalEnumerator_1__ctor_m2458691472_AdjustorThunk
$Af:_ReadOnlyCollection_1_System_Collections_Generic_ICollectionU3CTU3E_Remove_m974176789_gshared
ote:_Delegate_return_type_match_m4278947849
qQe:_InputField_GenerateHightlight_m1346735465
kpj:_Uri_ParseNoExceptions_m1151989845
cke:_GC_SuppressFinalize_m953228702
rWc:_FT_MSB
phg:_InternalAsyncResult_get_ProceedAfterHandshake_m552962842
LQh:_GUIStyle_get_clipping_m2754700641
Xwd:__ZN15dense_hashtableINSt3__24pairIK10KeyWrapperINS1_IP11Il2CppClassjEEES4_EES6_N6il2cpp8metadata14ArrayClassHashEN14dense_hash_mapIS6_S4_SB_NS6_14EqualsComparerINSA_17ArrayClassCompareEEENS0_9allocatorIS8_EEE9SelectKeyESF_SH_E3endEv
kIi:__Z50RuntimeInvoker_SByte_t454417549_Double_t4078015681PK10MethodInfoPvPS2_
K_g:__ZL72GUISkin_t1436893342_CustomAttributesCacheGenerator_m_verticalSliderThumbP21CustomAttributesCache
gSd:__ZN6il2cpp6icalls8mscorlib4Mono8Security12Cryptography18KeyPairPersistence10_CanSecureEP12Il2CppString
F0g:__ZL96CustomEventData_t1269126727_CustomAttributesCacheGenerator_CustomEventData_AddUInt16_m3349298376P21CustomAttributesCache
Fji:_Action_1_Invoke_m4180501989_gshared
fnd:__ZN6il2cpp2os4File11GetFileStatERKNSt3__212basic_stringIcNS2_11char_traitsIcEENS2_9allocatorIcEEEEPNS0_8FileStatEPi
Avi:_DefaultComparer__ctor_m3180706193_gshared
Vif:_List_1_System_Collections_Generic_IEnumerableU3CTU3E_GetEnumerator_m3625278020_gshared
Yta:__ZN13GfxDeviceGLES14SetRasterStateEPK17DeviceRasterState
Oya:__ZNK13TranslateGLES11BlendFactorE9BlendMode
nGb:__Z30TransferField_LinearCollectionI14SafeBinaryReadEvRK29SerializationCommandArgumentsR31RuntimeSerializationCommandInfo
gPe:_InputField_set_caretPositionInternal_m231166704
uxj:_Transform_InverseTransformPoint_m2648491174
icg:_TlsServerHello__ctor_m3032108168
xda:__ZN14SafeBinaryRead11EndTransferEv
FAg:__ZL98ILGenerator_t99948092_CustomAttributesCacheGenerator_ILGenerator_Mono_GetCurrentOffset_m3553856682P21CustomAttributesCache
DU:__ZNK3WWW12GetAudioClipEv
CGb:__ZN14SafeBinaryRead8TransferI8MonoPPtrEEvRT_PKc17TransferMetaFlags
v4h:_Dictionary_2_System_Collections_Generic_ICollectionU3CSystem_Collections_Generic_KeyValuePairU3CTKeyU2CTValueU3EU3E_Remove_m1705959559_gshared
fNa:__ZN24dense_hashtable_iteratorINSt3__24pairIKN4core12basic_stringIcNS2_20StringStorageDefaultIcEEEEP20ArchiveStorageReaderEES6_20StringHash32FunctionIS6_EN14dense_hash_mapIS6_S9_SC_NS0_8equal_toIS6_EE13stl_allocatorISA_L18MemLabelIdentifier54ELi16EEE9SelectKeyESF_SI_EppEv
xti:_InternalEnumerator_1_System_Collections_IEnumerator_get_Current_m1533037706_gshared
cTg:__ZL111MonoBehaviour_t1158329972_CustomAttributesCacheGenerator_MonoBehaviour_StartCoroutine_Auto_Internal_m1014513456P21CustomAttributesCache
IFa:__ZN21UniformBufferTFMethod13MapBoneBufferEj
_fg:_RecordProtocol_SendChangeCipherSpec_m3542001341
F0e:_Array_InternalArray__set_Item_TisVector3_t2243707580_m1390667454_gshared
xlc:__ZN12GUIClipState10BeginOnGUIER10InputEvent
Pyd:__ZNSt3__26vectorIcNS_9allocatorIcEEEC2Ej
N$f:_KeyPairPersistence_CanSecure_m2251009700
JNa:__ZZ23InitPlayerLoopCallbacksvEN27FixedUpdateClearLinesstruct7ForwardEv
NCb:__ZN9TextAsset15ThreadedCleanupEv
wch:_ReturnMessage_get_Properties_m531965085
crh:_GenericTypeParameterBuilder_IsSubclassOf_m563999142
Owe:_Exception_ToString_m627574695
AMc:__ZNSt3__26vectorIN20TextRenderingPrivate8FontImpl7IntRectE13stl_allocatorIS3_L18MemLabelIdentifier34ELi16EEE21__push_back_slow_pathIKS3_EEvRT_
v$:__Z21CompleteFenceInternalR8JobFence
gnc:__Z30Event_Get_Custom_PropModifiersP12Il2CppObject
N4h:_Dictionary_2_ContainsValue_m2375979648_gshared
ux:__ZN7mecanim9animation16CreateClipOutputEPKNS0_4ClipERNS_6memory9AllocatorE
ru:__ZN7mecanim9animation23ClearAnimationNodeStateEPNS0_18AnimationNodeStateEb
U_e:_Array_InternalArray__Insert_TisDecimal_t724701077_m1429254816_gshared
hGj:_ListPool_1_Get_m2998644518_gshared
GQb:__ZN18StreamedBinaryReadILb0EE21TransferSTLStyleArrayI13dynamic_arrayIyLj8EEEEvRT_17TransferMetaFlags
KBa:__ZN18AsyncUploadManager17DoScaledPaddedJobEP28FileTextureUploadInstruction
asa:__ZNSt3__218__stable_sort_moveIRN10vector_mapI17ScriptingClassPtrPKN5Unity4TypeENS_4lessIS2_EENS_9allocatorINS_4pairIS2_S6_EEEEE13value_compareENS_11__wrap_iterIPSB_EEEEvT0_SJ_T_NS_15iterator_traitsISJ_E15difference_typeEPNSM_10value_typeE
HRb:__ZN6Shader21AwakeFromLoadThreadedEv
Fka:__ZN6prcoreL17RemapGenericFloatI17TexFormatRGBFloat17TexFormatRGBAHalfEEvPKNS_9InnerInfoE
l7g:__ZL70InputField_t1631627530_CustomAttributesCacheGenerator_m_CharacterLimitP21CustomAttributesCache
Kjf:_List_1_get_Capacity_m2443158653_gshared
Vvc:__ZN8JSONRead21TransferSTLStyleArrayI13dynamic_arrayI8Vector2fLj4EEEEvRT_18MemLabelIdentifier17TransferMetaFlags
pSh:_LayerMask_op_Implicit_m2135076047
y9c:__ZN13RuntimeStaticINSt3__26vectorIjNS0_9allocatorIjEEEELb0EE16StaticInitializeEPv
kTd:__ZN6il2cpp2os9SemaphoreC2Eii
Pli:_InternalEnumerator_1_get_Current_m2960188445_AdjustorThunk
EGb:__ZNSt3__26vectorI8MonoPPtr13stl_allocatorIS1_L18MemLabelIdentifier1ELi16EEE8__appendEj
iii:_Text_set_alignByGeometry_m1514652028
oVa:__ZN14qsort_internal30FindAndMovePivotToLastPositionIP17RODataReplacementi19ROSorterReplacementEEvT_S4_T0_T1_
TFa:__ZN15UniformTFMethod20IsBoneCountSupportedEi
cVh:_Object_Internal_InstantiateSingle_m2776302597
SZd:_X509Certificate_GetExpirationDateString_m2351894475
Rzd:__ZN6il2cpp2vm9Exception26FormatInvalidCastExceptionEPK11Il2CppClassS4_
yed:__ZN14dense_hash_setI10KeyWrapperIPK19Il2CppGenericMethodEN6il2cpp8metadata23Il2CppGenericMethodHashENS4_14EqualsComparerINS6_26Il2CppGenericMethodCompareEEENSt3__29allocatorIS4_EEEC2EjRKS7_RKSA_
nUj:dynCall_viidi
Y_e:_Array_InternalArray__Insert_TisInt64_t909078037_m3039874636_gshared
V9d:_Convert_ToInt16_m1787678274
Uii:_ToggleGroup_NotifyToggleOn_m997426227
igg:_RSASslSignatureDeformatter_SetKey_m1150106904
YZg:__ZL74Event_t3028476042_CustomAttributesCacheGenerator_Event_Cleanup_m1195902101P21CustomAttributesCache
H_:__ZN24ScriptingMethodFiltering17FilterOnSignatureENS_18MethodSearchFilterE
uoh:_TypeBuilder_get_Module_m1668298460
Bdi:_Scrollbar_ClickRepeat_m3403943364
nO:__ZN13ProduceHelperI9AudioClipLb0EE7ProduceE18MemLabelIdentifier18ObjectCreationMode
gW:__ZN18ScreenManagerWebGL13SetLockCursorE14CursorLockMode
PVc:_cf2_arrstack_finalize
vUf:_MonoType_GetMethodsByName_m1854415088
kph:_DerivedType_GetMethods_m165266904
v1f:_RSAManaged_EncryptValue_m4089823119
t$b:__ZN13MonoBehaviour19HandleNotificationsEPviR11MessageData
NTd:__ZN6il2cpp2os9EventImpl5ResetEv
B5h:_DefaultComparer_GetHashCode_m926363525_gshared
tPh:_GUIStyle_set_focused_m1547304893
Bei:_ScrollRect_get_verticalScrollbar_m2455612493
YQi:__Z69RuntimeInvoker_Void_t1841601450_Int32_t2071877448_HitInfo_t1761367055PK10MethodInfoPvPS2_
Vea:__ZNK11NamedObject26GetTypeInfoVirtualInternalEv
UOf:_ReadDelegate_Invoke_m2091885836
tqh:_TypeBuilder_GetField_m2112455315
eXj:b58
fXj:b59
OWj:b52
PWj:b53
MWj:b50
eSi:__Z51RuntimeInvoker_Vector4_t2243707581_SByte_t454417549PK10MethodInfoPvPS2_
cXj:b56
dXj:b57
_Wj:b54
bXj:b55
rZf:_Kernel_Multiply_m3585610531
H9f:_CertificateSelectionCallback_EndInvoke_m3525317639
ML:__ZN4PPtrI15AudioMixerGroupE8TransferI18StreamedBinaryReadILb0EEEEvRT_
nAi:__Z67RuntimeInvoker_Void_t1841601450_Int32_t2071877448_Int16_t4041245914PK10MethodInfoPvPS2_
mpe:_DateTime__ctor_m3604679583_AdjustorThunk
VUg:__ZL96Transform_t3275118058_CustomAttributesCacheGenerator_Transform_INTERNAL_get_position_m1881704498P21CustomAttributesCache
B0g:__ZL94CustomEventData_t1269126727_CustomAttributesCacheGenerator_CustomEventData_AddChar_m1103619816P21CustomAttributesCache
A8d:_SimpleEnumerator_Reset_m1341779532
mod:__ZNSt3__214__split_bufferINS_12basic_stringIcNS_11char_traitsIcEENS_9allocatorIcEEEERNS4_IS6_EEEC2EjjS8_
K0f:_MACAlgorithm_Core_m2390605245
Bsi:_InternalEnumerator_1_System_Collections_IEnumerator_get_Current_m30488070_gshared
n_b:__ZN10GameObject12CleanupClassEv
ipi:_InternalEnumerator_1_System_Collections_IEnumerator_Reset_m2624612805_AdjustorThunk
bxg:__ZL108ArrayReadOnlyList_1_t3367196019_CustomAttributesCacheGenerator_ArrayReadOnlyList_1_GetEnumerator_m3031680693P21CustomAttributesCache
eej:_DllImportAttribute__ctor_m1165454237
Bua:__ZN9GfxDevice25SetShaderPropertiesSharedERK19ShaderPropertySheet
fFj:_IndexedSet_1_GetEnumerator_m3646001838_gshared
tCb:__ZN10MonoScript17MainThreadCleanupEv
t7b:__ZN19SpriteMeshGenerator4path9clip_edgeEi
Xbi:_VertexHelper_AddUIVertexTriangleStream_m4009409241
gwi:_Comparer_1__ctor_m844571340_gshared
r3b:__ZL25InitializeDefaultMaterialv
Ngb:__ZN21ArchiveStorageCreatorD2Ev
gDh:_WaitHandle_Dispose_m441403862
jKa:__ZN19FileAccessorHandlerD2Ev
Qwi:_Comparer_1__ctor_m2941434245_gshared
wji:_VertexHelper_AddVert_m3290455716
EGg:__ZL56SHA256Managed_t2029745292_CustomAttributesCacheGeneratorP21CustomAttributesCache
BAg:__ZL126GenericTypeParameterBuilder_t1370236603_CustomAttributesCacheGenerator_GenericTypeParameterBuilder_MakeGenericType_m2955814622P21CustomAttributesCache
nra:__ZN17PersistentManager12UnloadStreamERKN4core12basic_stringIcNS0_20StringStorageDefaultIcEEEEb
THc:__ZN19CompositeCollider2D22SimplifyCompositePathsERKNSt3__26vectorINS1_IN10ClipperLib8IntPointENS0_9allocatorIS3_EEEENS4_IS6_EEEERS8_
ZV:__ZN13ScreenManager17RequestResolutionEiibi
xkh:_DESTransform__ctor_m4096028381
vmd:_il2cpp_unity_liveness_calculation_from_statics
ICh:_Scheduler_get_Instance_m1989471839
BMi:__Z61RuntimeInvoker_Void_t1841601450_CullingGroupEvent_t1057617917PK10MethodInfoPvPS2_
Lmg:_WebRequest_System_Runtime_Serialization_ISerializable_GetObjectData_m3377822910
Tqb:__ZN8Renderer8TransferI17RemapPPtrTransferEEvRT_
Mqf:_Collection_1_Contains_m1299140035_gshared
aXj:_glBlitFramebuffer__wrapper
Y5e:_ExecuteEvents_ExecuteHierarchy_TisIl2CppObject_m2541874163_gshared
yZe:_Array_InternalArray__ICollection_Add_TisUICharInfo_t3056636800_m968274080_gshared
pGj:_ObjectPool_1__ctor_m1532275833_gshared
Axa:__ZN13GfxDeviceGLES19SetSinglePassStereoE16SinglePassStereo
uJj:__ZL24UnresolvedVirtualCall_71P12Il2CppObjectS0_S0_iS0_S0_S0_PK10MethodInfo
hvg:__ZL64IntPtr_t_CustomAttributesCacheGenerator_IntPtr__ctor_m3803259710P21CustomAttributesCache
yif:_List_1_GetIndex_m3262928832_gshared
Oej:_SafeHandle_DangerousRelease_m2167699172
H3a:__Z24LookRotationToQuaternionRK8Vector3fS1_P11Quaternionf
F3a:__ZN16ReflectionProbes9GetCameraEv
WVb:__ZL18IsGpuProgramUsable20ShaderGpuProgramTypePK6Shader
Z4f:_ArgumentException__ctor_m2105824819
N0c:__ZN2UI6Canvas17SetSortingLayerIDEi
ZEe:_BaseMeshEffect_get_graphic_m3358796463
AGd:__ZN6il2cpp2vm11MethodStack23CleanupForCurrentThreadEv
zMj:__ZL25UnresolvedVirtualCall_238P12Il2CppObject19Vector4_t2243707581PK10MethodInfo
cBj:_Predicate_1_Invoke_m695569038_gshared
e7e:_Enumerator_VerifyState_m825848279_AdjustorThunk
Pkb:__ZN20TierGraphicsSettings8TransferI24GenerateTypeTreeTransferEEvRT_
W$i:_UnityAnalyticsHandler_t3238795095_marshal_pinvoke_back
_Hb:__ZN14SafeBinaryRead21TransferSTLStyleArrayI13dynamic_arrayI4AABBLj4EEEEvRT_17TransferMetaFlags
cia:__ZN18UnityPropertySheet8TransferI19StreamedBinaryWriteILb0EEEEvRT_
weg:_TlsServerCertificate_checkServerIdentity_m3836435780
p9:__ZNSt3__26__treeINS_12__value_typeIiN11TypeManager18TypeCallbackStructEEENS_19__map_value_compareIiS4_NS_4lessIiEELb1EEENS_9allocatorIS4_EEE7destroyEPNS_11__tree_nodeIS4_PvEE
x2f:_PKCS12_Decrypt_m2353135969
M8i:_PersistentCallGroup_Initialize_m3908067069
Gvh:_MonoEvent_ToString_m386956596
i1g:__ZL70RuntimePlatform_t1869584967_CustomAttributesCacheGenerator_FlashPlayerP21CustomAttributesCache
qCb:__ZN39AssetBundleLoadFromStreamAsyncOperationC2ERKN4core12basic_stringIcNS0_20StringStorageDefaultIcEEEE
uCe:_PointerEventData_get_pointerPress_m880101744
Iea:__ZL19GetCameraTargetRectRK6Camerabb
c$h:_Transform_1_BeginInvoke_m1786442111_gshared
QIf:_Int32_GetFormatException_m1729046182
B4a:__ZN13dynamic_arrayIN10GameObject13ComponentPairELj4EE6insertEPS1_RKS1_
Fmf:_Collection_1_get_Count_m3834276648_gshared
bcb:__ZN21UnityDefaultAllocatorI17LowLevelAllocatorE10DeallocateEPv
DY:__GLOBAL__sub_I_runtime_camera2_lump_cpp
ur:__ZN15PackedIntVector8TransferI14SafeBinaryReadEEvRT_
duh:_FieldInfo_get_IsLiteral_m267898096
jCa:__ZN17SharedTextureDataD0Ev
whg:_SslStreamBase_EndNegotiateHandshake_m1732321201
o$h:_Transform_1_BeginInvoke_m1167293475_gshared
PH:__ZN13AudioListener8DoUpdateEv
gug:__ZL71SByte_t454417549_CustomAttributesCacheGenerator_SByte_Parse_m1620039654P21CustomAttributesCache
Gke:__Z13bankers_roundd
Zyb:__ZN14SafeBinaryRead8TransferI5RectTIfEEEvRT_PKc17TransferMetaFlags
vi:_emscripten_glGenFramebuffers
Mhe:_Hashtable_CopyTo_m2778915805
k9:__ZN17BaseObjectManager16StaticInitializeEPv
Aoh:_ConstructorBuilder_get_IsCompilerContext_m2796899803
eQg:__ZL97Component_t3819376471_CustomAttributesCacheGenerator_Component_GetComponentsInChildren_m843288020P21CustomAttributesCache
kZi:__Z37RuntimeInvoker_UICharInfo_t3056636800PK10MethodInfoPvPS2_
mXe:_Array_IndexOf_TisUIVertex_t1204258818_m613887160_gshared
aAb:__ZN18StreamedBinaryReadILb0EE19TransferSTLStyleMapINSt3__28multimapIN4core12basic_stringIcNS4_20StringStorageDefaultIcEEEE4PPtrI6ObjectENS2_4lessIS8_EE13stl_allocatorINS2_4pairIKS8_SB_EEL18MemLabelIdentifier51ELi16EEEEEEvRT_17TransferMetaFlags
WHe:_FloatTween_GetDuration_m1757342579_AdjustorThunk
fle:_DateTime_CoreParse_m2014268103
agf:_List_1__ctor_m3698273726_gshared
SFc:__ZN24ParticleIntersectQuery2D18ReportFixtureProxyEPK14b2FixtureProxy
S3c:__ZN21UnityAnalyticsManager23VirtualRedirectTransferER19StreamedBinaryWriteILb0EE
csc:__Z18Transfer_BlittableI9JSONWriteLb0EyEvRK29SerializationCommandArgumentsR31RuntimeSerializationCommandInfo
Oea:__ZN13RenderTexture15ThreadedCleanupEv
T6:__ZN15dense_hashtableINSt3__24pairIKiiEEi21InstanceIDHashFunctorN14dense_hash_mapIiiS4_NS0_8equal_toIiEE13stl_allocatorIS3_L18MemLabelIdentifier130ELi16EEE9SelectKeyES7_SA_E9copy_fromERKSD_j
mnb:__ZN12CubemapArray23VirtualRedirectTransferER14SafeBinaryRead
ckh:_CryptographicException__ctor_m1012314467
gBf:_ReadOnlyCollection_1_System_Collections_IList_Add_m616574295_gshared
RIf:_Int32_ProcessTrailingWhitespace_m2812079777
Xna:__ZN18ProceduralMaterial9ReloadAllEbb
Zhc:__Z43RectTransform_CUSTOM_INTERNAL_set_sizeDeltaP12Il2CppObjectRK13Vector2fIcall
zmg:_WebProxy__ctor_m3679722173
goi:_InternalEnumerator_1_Dispose_m2743309309_AdjustorThunk
PEd:__ZN15dense_hashtableINSt3__24pairIK10KeyWrapperINS1_IPKcS4_EEEiEES6_24NamespaceAndNamePairHashN14dense_hash_mapIS6_iS9_NS6_14EqualsComparerI26NamespaceAndNamePairEqualsEENS0_9allocatorIS8_EEE9SelectKeyESD_SF_E6insertERKS8_
Tda:__ZN24GenerateTypeTreeTransfer18BeginArrayTransferEPKcS1_Ri17TransferMetaFlags
dBa:__Z16DecompressCrunchPKhRjR13TextureFormatiiii18MemLabelIdentifier
Mkf:_List_1__ctor_m2082969060_gshared
nm:___syscall51
rm:___syscall54
Cyi:__Z107RuntimeInvoker_Boolean_t3825574718_SByte_t454417549_Il2CppObject_Int32_t2071877448_ExceptionU26_t1467204777PK10MethodInfoPvPS2_
JDj:_UnityAction_2_Invoke_m1994351568_gshared
_$i:_UnityAnalyticsHandler_Dispose_m1048126775
oMb:__Z18Transfer_BlittableI19StreamedBinaryWriteILb0EELb1EjEvRK29SerializationCommandArgumentsR31RuntimeSerializationCommandInfo
gs:__ZNK8Animator20IsAnyRendererVisibleEv
dKj:__ZL25UnresolvedVirtualCall_108P12Il2CppObjectS0_28StreamingContext_t1417235061PK10MethodInfo
wWc:_cff_builder_add_point1
UFd:__ZN6il2cpp2vm5Image21GetCachedResourceDataEPK11Il2CppImageRKNSt3__212basic_stringIcNS5_11char_traitsIcEENS5_9allocatorIcEEEE
JMe:_HorizontalOrVerticalLayoutGroup_set_childControlWidth_m4209477792
mZe:_Array_InternalArray__ICollection_Add_TisUInt32_t2149682021_m2629016323_gshared
CFb:__Z18Transfer_BlittableI14SafeBinaryReadLb0E10ColorRGBAfEvRK29SerializationCommandArgumentsR31RuntimeSerializationCommandInfo
Fwg:__ZL65Il2CppArray_CustomAttributesCacheGenerator_Array_Sort_m3002148658P21CustomAttributesCache
Ba:invoke_iiiiiiiiii
RN:__ZNK7Texture10GetVRUsageEv
ona:__ZN18LoadSceneOperation19IntegrateTimeSlicedEi
TCh:_Scheduler_SchedulerThread_m2209572785
CXf:_SortKeyBuffer_GetResultAndReset_m2516956577
M9a:__ZN10FileSystem19SetCurrentDirectoryERKN4core12basic_stringIcNS0_20StringStorageDefaultIcEEEE
qGj:_ObjectPool_1_get_countAll_m4217365918_gshared
U3:__ZN16ScriptingManager24NotifyScriptCacheReleaseEi
xOg:__ZL85UriParser_t1012511323_CustomAttributesCacheGenerator_UriParser_OnRegister_m4010407891P21CustomAttributesCache
oAg:__ZL63UnmanagedMemoryStream_t822875729_CustomAttributesCacheGeneratorP21CustomAttributesCache
Zcc:__Z47Register_UnityEngine_Coroutine_ReleaseCoroutinev
BI:__ZN15AudioReverbZone13SetFMODValuesEv
N5i:_Component_GetComponentInChildren_m3925629424
e1:__ZL19StaticDestroyShaderPv
he:_glRenderbufferStorageMultisample
fdh:_SoapTypeAttribute_get_XmlTypeName_m2546866572
h$g:__ZL89GUIStyle_t1799908754_CustomAttributesCacheGenerator_GUIStyle_AssignStyleState_m2665274947P21CustomAttributesCache
fA:__ZN23AnimationPlayableOutput17SetTargetAnimatorEP8Animator
Twf:_ReadOnlyCollection_1_System_Collections_IList_get_IsFixedSize_m158012227_gshared
Ksj:_X509Chain__ctor_m1113875360
lIb:__Z35Transfer_Blittable_SingleValueFieldI14SafeBinaryReadfEvRT_R17GeneralMonoObjectRK23StaticTransferFieldInfo
Reg:_TlsServerHello_processProtocol_m1241336522
OMg:__ZL79ModulusRing_t80355992_CustomAttributesCacheGenerator_ModulusRing_Pow_m661630322P21CustomAttributesCache
umi:_InternalEnumerator_1_System_Collections_IEnumerator_Reset_m324760031_AdjustorThunk
Phj:_ContextAttribute_IsContextOK_m3281216012
dQf:_PathTooLongException__ctor_m3212099251
o1j:_pthread_cond_broadcast__wrapper
khh:_ObjectManager_RaiseDeserializationEvent_m1611173032
Dr:__ZN17PackedFloatVector8TransferI18StreamedBinaryReadILb0EEEEvRT_
zRg:__ZL88Screen_t786852042_CustomAttributesCacheGenerator_Screen_t786852042____width_PropertyInfoP21CustomAttributesCache
Unb:__ZN7Cubemap23VirtualRedirectTransferER17RemapPPtrTransfer
MPa:_longest_match_fast
AJe:_DropdownItem_get_image_m2752143412
Ptd:__ZN15dense_hashtableINSt3__24pairIK10KeyWrapperIPK14Il2CppAssemblyEPK16MonoAssemblyNameEES6_N6il2cpp5utils11PointerHashIS4_EEN14dense_hash_mapIS6_SA_SF_NS6_14EqualsComparerINS0_8equal_toIS5_EEEENS0_9allocatorISB_EEE9SelectKeyESK_SM_E8min_sizeEjj
F6b:__ZN22BlockMemoryCacheWriter11GetPathNameEv
$Ke:_Graphic_Rebuild_m2617722358
XCg:__ZL86SafeHandle_t2733794115_CustomAttributesCacheGenerator_SafeHandle_SetHandle_m1980208835P21CustomAttributesCache
wCj:_InvokableCall_1__ctor_m563785030_gshared
Mqe:_DateTime_ToString_m3108726445_AdjustorThunk
AQ:__ZN19CloudServiceHandlerD2Ev
c6a:__ZN13dynamic_arrayIN23ReflectionProbesContext23ReflectionProbeCubeInfoELj4EE18resize_initializedEjRKS1_12ResizePolicy
g4e:_Array_InternalArray__get_Item_TisTableRange_t2011406615_m602485977_gshared
jQe:_InputField_Append_m2623574152
aF:__Z116Register_UnityEngine_Experimental_Director_AnimatorControllerPlayable_INTERNAL_CALL_GetNextAnimatorStateInfoInternalv
S4f:_ApplicationException__ctor_m1120437222
kwh:_MonoMethod__ctor_m4091684020
hp:stackAlloc
sdc:__Z44Camera_CUSTOM_INTERNAL_CALL_ScreenPointToRayP12Il2CppObjectRK8Vector3fR3Ray
UKa:__ZN25SingleBlockMemoryFileData4LockEPPv
OLa:__ZN12HandlerChain5TouchER13FileEntryData
Ash:_MethodBuilder_GetHashCode_m1713271764
F7b:__ZN15dense_hashtableINSt3__24pairIK12TriangleEdgeiEES2_16TriangleEdgeHashN14dense_hash_mapIS2_iS5_NS0_8equal_toIS2_EENS0_9allocatorIS4_EEE9SelectKeyES8_SA_E12resize_deltaEjj
yej:_Marshal__cctor_m802981325
Mmf:_Collection_1_IsSynchronized_m1319022347_gshared
MWf:_MSCompatUnicodeTable_GetResource_m3816716847
Eec:__Z32RectOffset_Get_Custom_PropBottomP12Il2CppObject
zIi:__Z49RuntimeInvoker_UInt16_t986882611_Int64_t909078037PK10MethodInfoPvPS2_
y7d:_Array_CreateInstance_m15016505
JTg:__ZL103DataUtility_t4181890362_CustomAttributesCacheGenerator_DataUtility_INTERNAL_CALL_GetPadding_m1621366113P21CustomAttributesCache
yHb:__ZNSt3__26vectorI17AnimationCurveTplIfE13stl_allocatorIS2_L18MemLabelIdentifier1ELi16EEE6assignINS_11__wrap_iterIPS2_EEEENS_9enable_ifIXaasr21__is_forward_iteratorIT_EE5valuesr16is_constructibleIS2_NS_15iterator_traitsISC_E9referenceEEE5valueEvE4typeESC_SC_
wPj:_stat
gWd:_RijndaelTransform_Decrypt128_m1282993908
m_e:_Array_InternalArray__ICollection_CopyTo_TisUInt16_t986882611_m3228377237_gshared
Kaf:_List_1_Add_m4157722533_gshared
W7g:__ZL68Navigation_t1571958496_CustomAttributesCacheGenerator_m_SelectOnDownP21CustomAttributesCache
$2i:_Bounds_op_Inequality_m2315096783
azc:__ZN15b2DistanceJoint23InitVelocityConstraintsERK12b2SolverData
Msa:__ZNSt3__218__insertion_sort_3IRNS_4lessIN22BuiltinResourceManager8ResourceEEEPS3_EEvT0_S7_T_
h6i:_Component_BroadcastMessage_m1308086896
AVd:_RC2_set_KeySize_m2015782960
ma:invoke_iiiiiiiiiiii
tsf:_Collection_1_SetItem_m3715941382_gshared
pGf:_NumberFormatInfo_get_CurrencyGroupSeparator_m2480433019
l2f:_StrongName_get_PublicKey_m3777577320
_Og:__ZL120AssetBundleCreateRequest_t1038783543_CustomAttributesCacheGenerator_AssetBundleCreateRequest_get_assetBundle_m2931245245P21CustomAttributesCache
Ndj:_RuntimeCompatibilityAttribute__ctor_m1331212510
vfc:__Z43Register_UnityEngine_GameObject_SendMessagev
K6:__ZNSt3__26__treeINS_12__value_typeIN4core12basic_stringIcNS2_20StringStorageDefaultIcEEEES6_EENS_19__map_value_compareIS6_S7_NS_4lessIS6_EELb1EEE13stl_allocatorIS7_L18MemLabelIdentifier12ELi16EEE7destroyEPNS_11__tree_nodeIS7_PvEE
kbd:__ZN6il2cpp2vm17SetupFieldsLockedEP11Il2CppClassRKNS_2os12FastAutoLockE
WL:__ZN11AudioSourceD0Ev
x4i:_CanvasRenderer_set_hasPopInstruction_m1388844875
pcf:_List_1_System_Collections_ICollection_CopyTo_m1530390632_gshared
_tf:_Collection_1_System_Collections_IEnumerable_GetEnumerator_m1452790461_gshared
Uni:_InternalEnumerator_1_System_Collections_IEnumerator_Reset_m3194282029_AdjustorThunk
mab:__ZN16MemoryFileSystem4NameEv
Cef:__ZN21InterfaceFuncInvoker0I18Color32_t874517518E6InvokeEjP11Il2CppClassP12Il2CppObject
Nze:_BaseRaycaster_OnEnable_m3641767070
Fkf:_List_1_ToArray_m2810936944_gshared
hIe:_DefaultControls_CreateImage_m2821562988
mOh:_GUISkin_get_horizontalSliderThumb_m3625135389
B6f:_PrimeGeneratorBase_get_PrimalityTest_m308005118
Svg:__ZL71Enum_t2459695545_CustomAttributesCacheGenerator_Enum_Format_m2294492821P21CustomAttributesCache
uQh:_GUIStyle_Internal_CalcSize_m1309259680
Jmc:__ZNK8GUIStyle8CalcSizeER10GUIContent
Xbf:_List_1_CheckIndex_m2328469916_gshared
ilf:_List_1_AddRange_m3345533268_gshared
tNc:_UNITY_FT_New_Size
Aac:__Z42ScriptingGetComponentsOfTypeFromGameObjectRK26ScriptingGetComponentsArgs
Hlf:_List_1_get_Item_m3157283227_gshared
rWe:__ZN21InterfaceFuncInvoker2Ii38CustomAttributeNamedArgument_t94157543S0_E6InvokeEjP11Il2CppClassP12Il2CppObjectS0_S0_
n3h:_Dictionary_2_ToTKey_m965425080_gshared
eDj:_InvokableCall_4_Invoke_m1555001411_gshared
koe:_Convert_ToString_m2915777777
Fia:__ZNSt3__27__sort4IRPFbRKNS_4pairIN9ShaderLab16FastPropertyNameEN18UnityPropertySheet11UnityTexEnvEEES8_EPS6_EEjT0_SD_SD_SD_T_
LVc:_cf2_hintmap_build
DOi:__Z92RuntimeInvoker_AnimatorStateInfo_t2577870592_PlayableHandleU26_t3483893774_Int32_t2071877448PK10MethodInfoPvPS2_
zTc:_Line_Up
cVf:_MonoType_GetGenericTypeDefinition_m2363776160
WBg:__ZL62ParameterAttributes_t1266705348_CustomAttributesCacheGeneratorP21CustomAttributesCache
Ycg:_Context_set_SentConnectionEnd_m2641458842
oe:_emscripten_glBufferSubData
Jae:_Buffer_BlockCopyInternal_m2627156229
jJb:__Z18Transfer_BlittableI17RemapPPtrTransferLb1EyEvRK29SerializationCommandArgumentsR31RuntimeSerializationCommandInfo
UKe:_Graphic_set_material_m329335629
wze:_ExecuteEvents_get_pointerExitHandler_m3250605428
Lja:__ZN6prcoreL12RemapGenericI15TexFormatRGB88817TexFormatARGB8888EEvPKNS_9InnerInfoE
vD:__Z17CalculateGlobalRS23TransformAccessReadOnly
KQd:__ZNSt3__210__list_impIPN6il2cpp5utils10MemoryPool6RegionENS_9allocatorIS5_EEE5clearEv
u3i:_Camera_ScreenPointToRay_m614889538
lZf:_Kernel_multiByteDivide_m735279869
d4h:_Dictionary_2_ToTValue_m542772656_gshared
C8c:__ZN23UnityPurchasingSettings10InitializeER6Object
rCh:_Thread_GetNewManagedId_internal_m3211695465
VPa:_unity_z_deflateReset
rLh:_SkinChangedDelegate_Invoke_m2801964040
LAa:__ZN17GenericDynamicVBO17DrawChunkInternalERK21DynamicVBOChunkHandle17ShaderChannelMaskS3_P17VertexDeclarationP16DrawBuffersRangeij
w9c:__ZN13RuntimeStaticINSt3__26vectorIN5physx25PxVehicleWheelQueryResultENS0_9allocatorIS3_EEEELb0EE16StaticInitializeEPv
uRb:__ZN22MemoryCacherReadBlocks14LockCacheBlockEjPPhS1_
K9d:_Boolean_System_IConvertible_ToChar_m2637404801_AdjustorThunk
Q$d:_SecurityContext_Capture_m2535194991
xGh:_UInt16_System_IConvertible_ToSByte_m3044765342_AdjustorThunk
pph:_DerivedType_IsArrayImpl_m684825803
eug:__ZL47Byte_t3683104436_CustomAttributesCacheGeneratorP21CustomAttributesCache
dHd:__ZN4utf88internal15increase_safelyIPKcEENS0_9utf_errorERT_S5_
rMc:__ZN20TextRenderingPrivate8FontImpl16CacheFontForTextEPtiifjPK13dynamic_arrayINS_16TextFormatChangeELj4EE
_0e:_Array_qsort_TisUIVertex_t1204258818_TisUIVertex_t1204258818_m512606409_gshared
uVd:__Z21ArrayElementTypeCheckP11Il2CppArrayPv
u_j:_emscripten_glTexSubImage2D__wrapper
ekg:_NameValueCollection_AsSingleString_m10599052
pRj:__ZNSt3__212basic_stringIcNS_11char_traitsIcEENS_9allocatorIcEEE6appendEjc
dWf:_Object_InternalGetHashCode_m1371384246
Obi:_Navigation_get_defaultNavigation_m2185194207
fah:__ZL73LayoutElement_t2808691390_CustomAttributesCacheGenerator_m_FlexibleHeightP21CustomAttributesCache
f8i:_ArgumentCache_get_stringArgument_m3051619173
EJf:_Int32_System_IConvertible_ToSByte_m1449623243_AdjustorThunk
k4f:_AccessViolationException__ctor_m1270251537
n3c:__Z42Register_UnityEngine_Canvas_get_rootCanvasv
btj:_X509ExtensionCollection_IndexOf_m3972100651
BGb:__Z14resize_trimmedINSt3__26vectorI8MonoPPtr13stl_allocatorIS2_L18MemLabelIdentifier1ELi16EEEEEvRT_j
Agb:__ZN39AssetBundleLoadFromStreamAsyncOperation11GetProgressEv
Xe:_TTF_RenderText_Solid
sEb:__ZN13MonoBehaviour25TransferEngineAndInstanceI24GenerateTypeTreeTransferEEvRT_
rHh:_UInt32_System_IConvertible_ToInt64_m3091851828
lTf:_MissingMethodException__ctor_m3898429715
Geh:_RemotingConfiguration_RegisterClientProviderTemplate_m514821425
FZh:_Enumerator_System_Collections_IEnumerator_Reset_m3085583937_gshared
gYi:__Z66RuntimeInvoker_ClientCertificateType_t4001384466_Int32_t2071877448PK10MethodInfoPvPS2_
w1f:_RSAManaged_ExportParameters_m2873993187
cWe:_Array_InternalArray__IEnumerable_GetEnumerator_TisVector4_t2243707581_m829381058_gshared
Jlf:_Enumerator__ctor_m2816143215_AdjustorThunk
W8c:__ZN11UnityEngine7Connect16PersistentValuesC2Ev
rpg:_X509Chain_FindParent_m404663796
jTf:_MissingMemberException__ctor_m2164043278
t$d:__Z15CastclassSealedP12Il2CppObjectP11Il2CppClass
aqf:_Collection_1_CopyTo_m2282972507_gshared
xBb:__ZN13EmscriptenWWW10OnProgressEPvjj
cFe:_BaseVertexEffect__ctor_m358261091
Yrg:_Interpreter_GetGroupInfo_m312421921
vJb:__Z19TransferField_ArrayI17RemapPPtrTransfer27Converter_UnityEngineObjectEvRK23StaticTransferFieldInfoR31RuntimeSerializationCommandInfoRT0_
Uyi:__Z48RuntimeInvoker_Void_t1841601450_SByte_t454417549PK10MethodInfoPvPS2_
cGg:__ZL53HMACSHA384_t3026079344_CustomAttributesCacheGeneratorP21CustomAttributesCache
UPi:__Z120RuntimeInvoker_Void_t1841601450_Single_t2076509932_Single_t2076509932_Single_t2076509932_Single_t2076509932_Il2CppObjectPK10MethodInfoPvPS2_
fLf:_NumberFormatter_InitDecHexDigits_m1612588520
w5e:_Object_Instantiate_TisIl2CppObject_m4219963824_gshared
yLf:_IntPtr_System_Runtime_Serialization_ISerializable_GetObjectData_m21554269_AdjustorThunk
x1d:_Single_GetHashCode_m3102305584_AdjustorThunk
Xpa:__ZN29SerializeTraitsForStringTypesIN4core12basic_stringIcNS0_20StringStorageDefaultIcEEEEE8TransferI24GenerateTypeTreeTransferEEvRS4_RT_
Y2e:_Array_swap_TisVector3_t2243707580_m3036634038_gshared
sK:__ZN4FMOD6System9createDSPEP20FMOD_DSP_DESCRIPTIONPPNS_3DSPE
Yz:__ZN7mecanim9animation26DestroyControllerWorkspaceEPNS0_19ControllerWorkspaceERNS_6memory9AllocatorE
oqj:_UriParser_set_SchemeName_m3624672465
AG:__ZN4FMOD8ChannelI11EndCallbackEv
qZd:_ToBase64Transform_TransformBlock_m2201454137
xmc:__ZN8GUIStyle14SetDefaultFontEPN13TextRendering4FontE
jth:_OpCode_get_StackBehaviourPop_m3787015663_AdjustorThunk
Ukj:_PatternCompiler_EmitCount_m3609178511
rrb:__ZN15QualitySettings23VirtualRedirectTransferER24GenerateTypeTreeTransfer
KAj:_U3CCreateWhereIteratorU3Ec__Iterator1D_1_System_Collections_Generic_IEnumerableU3CTSourceU3E_GetEnumerator_m2682676065_gshared
pQh:_GUIStyle_Internal_GetCursorStringIndex_m1491806746
_3g:__ZL89PointerEventData_t1599784723_CustomAttributesCacheGenerator_U3CpositionU3Ek__BackingFieldP21CustomAttributesCache
t_h:_Enumerator_VerifyState_m262343092_AdjustorThunk
$md:__ZN6il2cpp2os10FileHandleC2Ev
xhc:__Z59Register_UnityEngine_MonoBehaviour_Internal_CancelInvokeAllv
HHg:__ZL84Encoding_t663144255_CustomAttributesCacheGenerator_Encoding_GetByteCount_m4104502544P21CustomAttributesCache
cBe:__ZN23InterfaceActionInvoker1IP25AxisEventData_t1524870173E6InvokeEjP11Il2CppClassP12Il2CppObjectS1_
zdh:_ObjRef_set_TypeInfo_m1661789743
Wdd:__ZN30dense_hashtable_const_iteratorINSt3__24pairIK10KeyWrapperIPK19Il2CppGenericMethodEPK26Il2CppGenericMethodIndicesEES6_N6il2cpp8metadata23Il2CppGenericMethodHashEN14dense_hash_mapIS6_SA_SE_NS6_14EqualsComparerINSD_26Il2CppGenericMethodCompareEEENS0_9allocatorISB_EEE9SelectKeyESI_SK_EppEv
YNh:_GUISkin_get_box_m533626169
Zig:_HybridDictionary_Add_m1037587952
USh:_Mathf_Cos_m238853451
XMc:_UNITY_FT_Request_Metrics
bea:__ZN7Texture8TransferI18StreamedBinaryReadILb0EEEEvRT_
iBd:__ZN6il2cpp6icalls8mscorlib6System10Reflection10MonoMethod29get_IsGenericMethodDefinitionEP22Il2CppReflectionMethod
Pxd:__ZN6il2cpp2vm6Thread21AllocThreadStaticDataEi
Jnj:__ZN23InterfaceActionInvoker4IiibP19LinkRef_t2090853131E6InvokeEjP11Il2CppClassP12Il2CppObjectiibS1_
hle:_DateTime_YearMonthDayFormats_m4204607055
EGe:_ColorBlock_set_disabledColor_m3502887543_AdjustorThunk
zKd:__ZN30dense_hashtable_const_iteratorINSt3__24pairIK10KeyWrapperIPK19Il2CppGenericMethodEP10MethodInfoEES6_N6il2cpp8metadata23Il2CppGenericMethodHashEN14dense_hash_mapIS6_S9_SD_NS6_14EqualsComparerINSC_26Il2CppGenericMethodCompareEEENS0_9allocatorISA_EEE9SelectKeyESH_SJ_EppEv
wO:__Z13RegisterClassI13AudioListenerEvv
uCj:_InvokableCall_1_Find_m951110817_gshared
lAj:_Aes__ctor_m4020215067
xD:__ZN23AnimationOffsetPlayable11GetPositionEv
src:__Z18Transfer_BlittableI9JSONWriteLb0E8Vector3fEvRK29SerializationCommandArgumentsR31RuntimeSerializationCommandInfo
i7:__ZN13RuntimeStaticI17UniqueIDGeneratorLb0EE13StaticDestroyEPv
Wf:_emscripten_glUniform4i
jGg:__ZL46MD5_t1507972490_CustomAttributesCacheGeneratorP21CustomAttributesCache
ZKe:_Graphic_OnDisable_m2360886868
vGj:_ObjectPool_1_Release_m1615270002_gshared
gf:_emscripten_glUniform4f
zj:___unlock
BMd:_GC_default_oom_fn
ifi:_ScrollRect_InternalCalculateOffset_m3083065267
yqi:_InternalEnumerator_1_System_Collections_IEnumerator_Reset_m1561424184_AdjustorThunk
dge:_Comparer_Compare_m4132969818
CM:__ZN20SoundChannelInstance19setReverbPropertiesEP29FMOD_REVERB_CHANNELPROPERTIES
Bui:_InternalEnumerator_1__ctor_m2808001655_AdjustorThunk
Eri:_InternalEnumerator_1_System_Collections_IEnumerator_Reset_m2571770313_AdjustorThunk
kuh:_FieldInfo_get_UMarshal_m1934544188
sFi:__Z68RuntimeInvoker_Void_t1841601450_IntPtr_t_MonoMethodInfoU26_t16045984PK10MethodInfoPvPS2_
Uzi:__Z86RuntimeInvoker_Int32_t2071877448_Int32_t2071877448_Int32_t2071877448_Int32_t2071877448PK10MethodInfoPvPS2_
ZC:__ZNK26AnimatorControllerPlayable14IsInTransitionEi
U5h:_DefaultComparer_Equals_m2171836276_gshared
Gzd:__ZN6il2cpp2vm9Exception18GetFormatExceptionEPKc
RWi:__Z56RuntimeInvoker_Void_t1841601450_ResourceInfo_t3933049236PK10MethodInfoPvPS2_
fEg:__ZL55IMessageSink_t2189618969_CustomAttributesCacheGeneratorP21CustomAttributesCache
ikc:__Z40Register_UnityEngine_Transform_IsChildOfv
XPh:_GUIStyle_Draw_m1435796321
Xde:_ArrayList_Sort_m923359189
Dii:_Text_CalculateLayoutInputVertical_m1732119136
tec:__Z45Register_UnityEngine_Display_GetSystemExtImplv
NIa:__ZN9GfxDevice31DrawIndexedNullGeometryIndirectE16GfxPrimitiveTypeP9GfxBuffer15ComputeBufferIDj
Zmi:_InternalEnumerator_1_System_Collections_IEnumerator_get_Current_m3088751576_gshared
uGi:__Z78RuntimeInvoker_Void_t1841601450_Int64_t909078037_Il2CppObject_Int64_t909078037PK10MethodInfoPvPS2_
P2i:_Bounds_set_center_m2069004927_AdjustorThunk
E3f:_X509Certificate_GetSubjectName_m2120755276
Doc:__Z46GUIStyle_CUSTOM_Internal_DrawWithTextSelectionP12Il2CppObjectR43MonoInternal_DrawWithTextSelectionArguments
X9c:__ZL17log2withScale_128yyi
nTg:__ZL58ResourceRequest_t2560315377_CustomAttributesCacheGeneratorP21CustomAttributesCache
x$c:__ZNSt3__218__insertion_sort_3IRNS_6__lessIN2UI14DepthSortEntryES3_EEPS3_EEvT0_S7_T_
cwh:_MonoField_CheckGeneric_m1527550038
zZ:__ZN13RuntimeStaticI15DirectorManagerLb0EE16StaticInitializeEPv
v0f:_AttrListImpl_Add_m130708252
sCh:_Thread_get_ManagedThreadId_m1995754972
l6f:_BigInteger_Incr2_m505983313
fze:_BaseInput_get_touchCount_m998724785
Zxb:__ZN11TimeManager6UpdateEv
Lsj:_X509Chain_get_Status_m2726750609
DQe:_InputField_get_preferredWidth_m3185355225
GLh:_GUIUtility_get_pixelsPerPoint_m2667928361
atf:_Collection_1_RemoveItem_m1406181352_gshared
jCh:_Thread_SetState_m3198426726
pee:_ArrayListWrapper_Contains_m1158465965
L2e:_Array_swap_TisColor32_t874517518_m2203309732_gshared
v6f:_BigInteger_op_LessThan_m3825358479
DPj:_fflush
voa:__ZN17LightProbeContext4InitERK16LightmapSettingsRK14RenderSettings
Y9d:_Convert_ToInt32_m55151042
eUd:__GLOBAL__sub_I_Error_cpp
fnj:_Alternation_GetWidth_m4218808325
Poa:__ZN9Texture3DD2Ev
mwg:__ZL80Il2CppArray_CustomAttributesCacheGenerator_Array_SetValue_m169741241____indices1P21CustomAttributesCache
iia:__ZN10ColorRGBAf8TransferI19StreamedBinaryWriteILb0EEEEvRT_
MQe:_U3CCaretBlinkU3Ec__Iterator0_System_Collections_Generic_IEnumeratorU3CobjectU3E_get_Current_m3541562536
lkg:_TypeConverterAttribute__ctor_m4061167050
uGd:__ZN6il2cpp2vm11MethodStack17GetStackFramesRawEv
vGd:__ZNSt3__26vectorI20Il2CppStackFrameInfoNS_9allocatorIS1_EEE7reserveEj
Y3h:_Dictionary_2_ContainsValue_m2760581195_gshared
wfg:_RecordProtocol_ProcessChangeCipherSpec_m3233959862
s1a:__Z34ProcessIndexListIsNodeVisibleStep2RK22SceneCullingParametersPK9SceneNodePK4AABBR9IndexList
rCb:__ZN10MonoScriptD2Ev
Zja:__ZN6prcoreL12RemapGenericI17TexFormatARGB888817TexFormatBGRA8888EEvPKNS_9InnerInfoE
phi:_Slider_OnRectTransformDimensionsChange_m4109401172
vmg:_WebHeaderCollection_Get_m3391944907
fZ:__GLOBAL__sub_I_half_cpp
Rfc:__Z39Input_CUSTOM_INTERNAL_get_mousePositionP8Vector3f
ASc:_tt_cmap13_char_next
bfh:_ServerIdentity__ctor_m1576469955
yOa:__ZN9ShaderLab4Pass16SetupPassOptionsEv
Iaj:_AnimatorControllerPlayable_INTERNAL_CALL_SetTriggerID_m508896534
WEj:_UnityEvent_4__ctor_m3102731553_gshared
tZi:__Z78RuntimeInvoker_Int32_t2071877448_UICharInfo_t3056636800_UICharInfo_t3056636800PK10MethodInfoPvPS2_
jh:_JS_Sound_ReleaseInstance
$0g:__ZL72IL2CPPStructAlignmentAttribute_t130316838_CustomAttributesCacheGeneratorP21CustomAttributesCache
Pua:__ZN13GfxDeviceGLES19DrawBuffersIndirectEP9GfxBufferPK18VertexStreamSourceiP17VertexDeclaration17ShaderChannelMask16GfxPrimitiveType15ComputeBufferIDj
Ehf:_List_1_Shift_m439051997_gshared
bZh:_Renderer_get_sortingLayerID_m2403577271
wej:_InAttribute__ctor_m1401060713
fZj:_emscripten_glPixelStorei__wrapper
fse:_Decimal_System_IConvertible_ToDecimal_m1541432424_AdjustorThunk
IQb:__Z29Transfer_Blittable_ArrayFieldI18StreamedBinaryReadILb0EEaEvRT_R9ArrayInfoRK23StaticTransferFieldInfo
lic:__Z21Resources_CUSTOM_LoadP12Il2CppStringP12Il2CppObject
Fm:FUNCTION_TABLE_diddi
_xd:__ZN6il2cpp6icalls8mscorlib6System5Array8FastCopyEP11Il2CppArrayiS5_ii
sic:__Z26Material_CUSTOM_SetIntImplP12Il2CppObjectii
zIf:_Int16_System_IConvertible_ToSingle_m3277935657_AdjustorThunk
Hkd:__ZNSt3__26vectorIPK10MethodInfoNS_9allocatorIS3_EEE21__push_back_slow_pathIRKS3_EEvOT_
c2i:_AttributeHelperEngine_CheckIsEditorScript_m2980171478
G3b:__ZN8GUILayerD2Ev
pij:_InternalRemotingServices__cctor_m3821625125
Rec:__Z42Register_UnityEngine_RectOffset_get_bottomv
kzh:_StringBuilder_Insert_m3322917127
b5h:_DefaultComparer_Equals_m724229128_gshared
_gf:_List_1__cctor_m1337542316_gshared
u_h:_Enumerator_VerifyCurrent_m1702320752_AdjustorThunk
fki:_ArrayReadOnlyList_1_Clear_m2539474626_gshared
Vdh:__ZN21InterfaceFuncInvoker0IP24ObjectU5BU5D_t3614634134E6InvokeEjP11Il2CppClassP12Il2CppObject
zDj:_UnityAction_1_EndInvoke_m2603848420_gshared
Mme:_Convert_ToDouble_m3520060872
yYj:_emscripten_glUniform1f__wrapper
pTj:dynCall_di
ogg:_SslCipherSuite_ComputeServerRecordMAC_m1876572367
bOc:__ZN20TextRenderingPrivate19NativeTextGeneratorC2ERK11UTF16StringPNS_8FontImplE11ColorRGBA32ifRK8Vector2fbifiibffbbbP13dynamic_arrayIN2UI8UIVertexELj4EE
crc:__Z28RegisterModule_JSONSerializev
dF:__Z111Register_UnityEngine_Experimental_Director_AnimatorControllerPlayable_INTERNAL_CALL_GetAnimatorClipInfoInternalv
DBh:_Interlocked_CompareExchange_m3227034792
tlh:_HashAlgorithm_get_Hash_m931854461
Imd:_il2cpp_monitor_enter
Hvi:_DefaultComparer_Compare_m3564013922_gshared
yXb:__ZN2UI13RectTransform8TransferI14SafeBinaryReadEEvRT_
$8b:__Z20IsHumanControllingUsv
tRa:__ZNK19RenderEventsContext21ExecuteCommandBuffersEijR17ShaderPassContextR15RenderNodeQueueP19ProfilerInformationi
Erf:_Collection_1_RemoveAt_m3454169520_gshared
aV:__ZNK20DynamicHeapAllocatorI17LowLevelAllocatorE10GetPtrSizeEPKv
PWf:_MSCompatUnicodeTable_GetTailoringInfo_m2792223347
lcj:_AnimatorControllerPlayable_PlayInFixedTime_m172593751
MTd:__ZN6il2cpp2os9EventImpl3SetEv
TIe:_Dropdown_set_value_m2945561009
Gua:__ZN13GfxDeviceGLES17DestroyGpuProgramEPK10GpuProgram
hGf:_GregorianCalendar_GetMonth_m523739832
hFb:__Z44InitializeTransferFunctionScriptingTraitsForI18StreamedBinaryReadILb0EEEvR31TransferFunctionScriptingTraits
sZa:__ZNSt3__218__insertion_sort_3IR23CompareReflectionProbesP31RuntimeReflectionProbeBlendInfoEEvT0_S5_T_
FJb:__ZN12NativeBufferI27Converter_SimpleNativeClassI8GradientEE15SetupForWritingER9ArrayInfo
txf:_ReadOnlyCollection_1_System_Collections_ICollection_get_IsSynchronized_m2987885125_gshared
MKh:_GameObject_AddComponent_m3757565614
daa:__ZN12_GLOBAL__N_113StaticDestroyEPv
tVi:__Z54RuntimeInvoker_Boolean_t3825574718_Vector4_t2243707581PK10MethodInfoPvPS2_
YHf:_Guid_ToString_m51661589
elc:__ZNK8GUIStyle4DrawER8GUIStateRK5RectTIfER10GUIContentbbbb
Whi:_Text_set_font_m1095513810
i1j:_glUnmapBuffer__wrapper
Vpe:_DateTime_System_IConvertible_ToUInt32_m1363211018_AdjustorThunk
WNe:_InputField_get_cachedInputTextGenerator_m881618486
_3i:_Canvas_get_rootCanvas_m1790974328
Jgc:__Z32Mesh_CUSTOM_ExtractArrayFromListP12Il2CppObject
enh:_Binder_get_DefaultBinder_m965620943
hvc:__ZN8JSONRead21TransferSTLStyleArrayINSt3__26vectorI8Gradient13stl_allocatorIS3_L18MemLabelIdentifier1ELi16EEEEEEvRT_17TransferMetaFlags
Cdg:_SecurityParameters_Clear_m3409219757
vyb:__ZNSt3__218__insertion_sort_3IRNS_6__lessINS_4pairIPKN5Unity4TypeE7Hash128EES8_EEPS8_EEvT0_SC_T_
Alj:_PatternCompiler_EmitAlternationEnd_m889639343
XKb:__ZN10RectOffset8TransferI24GenerateTypeTreeTransferEEvRT_
y8d:_SimpleEnumerator_get_Current_m482975946
Q9b:__Z18GetResourceManagerv
hQj:_srand
drd:__ZNK15dense_hashtableINSt3__24pairIK10KeyWrapperINS1_IPK10MethodInfoP11Il2CppClassEEEjEES9_17ReflectionMapHashIS8_EN14dense_hash_mapIS9_jSD_NS9_14EqualsComparerINS0_8equal_toIS8_EEEENS0_9allocatorISB_EEE9SelectKeyESI_SK_E10test_emptyERK30dense_hashtable_const_iteratorISB_S9_SD_SM_SI_SK_E
jUf:_MonoTypeInfo__ctor_m1398838196
j$c:__ZN2UI13CanvasManager19RemoveDirtyRendererEPNS_6CanvasEPNS_14CanvasRendererE
iXh:_Rect_get_position_m24550734
Yii:_Toggle_Rebuild_m929023818
Ved:__ZN15dense_hashtableI10KeyWrapperIPK17Il2CppGenericInstES4_N6il2cpp8metadata21Il2CppGenericInstHashEN14dense_hash_setIS4_S7_NS4_14EqualsComparerINS6_24Il2CppGenericInstCompareEEENSt3__29allocatorIS4_EEE8IdentityESB_SE_E12resize_deltaEjj
Vaa:__Z15GetIApplicationv
i2i:_AudioClip_InvokePCMSetPositionCallback_Internal_m2304858844
e6c:__ZN11UnityEngine15PlatformWrapper25GetGraphicsRendererStringEv
cBi:__Z51RuntimeInvoker_UInt16_t986882611_Decimal_t724701077PK10MethodInfoPvPS2_
RPe:_InputField_KeyPressed_m3066588581
nwj:_Time_get_unscaledTime_m862335845
tfd:__ZNK15dense_hashtableINSt3__24pairIK10KeyWrapperI13dynamic_arrayIPK10Il2CppTypeLj4EEEPFvvEEES8_N6il2cpp8metadata19Il2CppSignatureHashEN14dense_hash_mapIS8_SB_SF_NS8_14EqualsComparerINSE_22Il2CppSignatureCompareEEENS0_9allocatorISC_EEE9SelectKeyESJ_SL_E13find_positionERS9_
ugi:_Selectable_DoStateTransition_m539253088
zYd:_SHA512_Create_m439875055
Vb:invoke_vi
rYd:_SHA384Managed_update_m2629600295
dEc:__ZNSt3__26vectorINS0_IN10ClipperLib8IntPointENS_9allocatorIS2_EEEENS3_IS5_EEE7reserveEj
IJa:__ZN15dense_hashtableINSt3__24pairIKN4core12basic_stringIcNS2_20StringStorageDefaultIcEEEEP20ArchiveStorageReaderEES6_20StringHash32FunctionIS6_EN14dense_hash_mapIS6_S9_SC_NS0_8equal_toIS6_EE13stl_allocatorISA_L18MemLabelIdentifier54ELi16EEE9SelectKeyESF_SI_ED2Ev
Tb:invoke_vd
tb:invoke_vf
wQh:_GUIStyle_Internal_CalcSizeWithConstraints_m3375255978
vti:_InternalEnumerator_1__ctor_m32322958_AdjustorThunk
s5:__ZNK10GameObject8IsActiveEv
Qdc:__Z34Component_Get_Custom_PropTransformP12Il2CppObject
gjh:_SByte_System_IConvertible_ToUInt32_m4256495110
JBe:_PointerEventData_set_eligibleForClick_m2036057844
DDa:__ZN18GfxFramebufferGLES23SetupDefaultFramebufferEPP17RenderSurfaceBaseS2_N2gl6HandleILNS3_10ObjectTypeE9EEE
LPj:_mbsinit
FPh:_GUIStyle_get_Internal_clipOffset_m4237737448
k3g:__ZL70EventSystem_t3466835263_CustomAttributesCacheGenerator_m_FirstSelectedP21CustomAttributesCache
wW:__ZN13ScreenManager18RequestOrientationE17ScreenOrientation
Jbd:__ZN6il2cpp2vm5Class12SetupMethodsEP11Il2CppClass
uS:__ZN11UnityEngine15CloudWebService13WWWRestClient18GetResponseHeadersEv
icc:__Z39DeleteLastPathNameComponentWithAnySlashRKN4core12basic_stringIcNS_20StringStorageDefaultIcEEEE
xU:__ZN13EmscriptenWWW14BlockUntilDoneEv
h7g:__ZL68InputField_t1631627530_CustomAttributesCacheGenerator_m_KeyboardTypeP21CustomAttributesCache
Aji:_VerticalLayoutGroup_CalculateLayoutInputHorizontal_m497637066
fFe:_Button_get_onClick_m1595880935
lld:__ZNSt3__26vectorIP11Il2CppClassNS_9allocatorIS2_EEE26__swap_out_circular_bufferERNS_14__split_bufferIS2_RS4_EE
Mva:__ZN13GfxDeviceGLES17UploadTextureCubeE9TextureIDPKhiii13TextureFormati18TextureUploadFlags17TextureColorSpace
SYh:_RectTransformUtility_PixelAdjustPoint_m560908615
Qij:_MethodCall__ctor_m4106494862
Amh:_Module_IsResource_m663979284
Toc:__Z37Register_UnityEngine_GUIStyle_Cleanupv
Oa:invoke_iiifii
aMf:_BinaryReader_FillBuffer_m3097603599
J3b:__ZN8GUILayer12AddToManagerEv
WRg:__ZL109TouchScreenKeyboard_t601950206_CustomAttributesCacheGenerator_TouchScreenKeyboard_Open_m3410222954____secure4P21CustomAttributesCache
_kd:__ZN6il2cpp6icalls8mscorlib6System8MonoType13IsPointerImplEP20Il2CppReflectionType
wme:_Convert_ToDecimal_m2284596541
dtb:__ZN14Texture2DArray34UpdateFileTextureUploadInstructionEP28FileTextureUploadInstructionj
Si:_emscripten_glFramebufferRenderbuffer
eNg:__ZL64CipherSuiteCollection_t2431504453_CustomAttributesCacheGeneratorP21CustomAttributesCache
Ifj:__ZN21InterfaceFuncInvoker3IP12Il2CppObjectP8String_tS1_PS3_E6InvokeEjP11Il2CppClassS1_S3_S1_S4_
Feg:_TlsServerCertificateRequest_ProcessAsSsl3_m3017921864
SKf:_Int64_GetHashCode_m4047499913
C4a:__ZN9Transform30EnsureTransformHierarchyExistsEv
gP:__ZN11AudioModule26SetDefaultMicrophoneDriverEPv
LPg:__ZL102Camera_t189460977_CustomAttributesCacheGenerator_Camera_INTERNAL_CALL_ScreenToViewportPoint_m529506484P21CustomAttributesCache
W8d:_Attribute_IsDefined_m216577166
ucc:__Z46Register_UnityEngine_Application_get_isPlayingv
api:_InternalEnumerator_1_get_Current_m1089848479_gshared
Lue:_Double_System_IConvertible_ToInt64_m3798425616
sDe:_StandaloneInputModule_get_repeatDelay_m3025279
Hg:___cxa_find_matching_catch_4
nhc:__ZN13MonoBehaviour13StopCoroutineEPKc
F7a:__ZNSt3__26vectorINS_4pairIN4core12basic_stringIcNS2_20StringStorageDefaultIcEEEEPK17MessageIdentifierEENS_9allocatorISA_EEE12__move_rangeEPSA_SE_SE_
pVa:__ZN14qsort_internal17MedianOfThreeSwapIP17RODataReplacement19ROSorterReplacementEEvT_S4_S4_T0_
rof:_Collection_1_System_Collections_IList_Insert_m3303840316_gshared
zad:__ZNK15dense_hashtableINSt3__24pairIK10KeyWrapperIPK22Il2CppGenericParameterEP11Il2CppClassEES6_N6il2cpp5utils11PointerHashIS4_EEN14dense_hash_mapIS6_S9_SE_NS6_14EqualsComparerINS0_8equal_toIS5_EEEENS0_9allocatorISA_EEE9SelectKeyESJ_SL_E3endEv
ecc:__ZN17TransformInternal36OnScaleChangedCalculateTransformTypeE15TransformAccess
HJa:__ZN15dense_hashtableINSt3__24pairIKN4core12basic_stringIcNS2_20StringStorageDefaultIcEEEEP20ArchiveStorageReaderEES6_20StringHash32FunctionIS6_EN14dense_hash_mapIS6_S9_SC_NS0_8equal_toIS6_EE13stl_allocatorISA_L18MemLabelIdentifier54ELi16EEE9SelectKeyESF_SI_E4swapERSL_
tfe:_SynchronizedArrayListWrapper_InsertRange_m709359548
eMa:__ZN17ArchiveFileSystem10ToAbsoluteEPKc
p6f:_BigInteger_op_Modulus_m13450242
Vkb:__ZN4PPtrI8MaterialE8TransferI18StreamedBinaryReadILb0EEEEvRT_
qWi:__Z56RuntimeInvoker_Int32_t2071877448_RaycastResult_t21186376PK10MethodInfoPvPS2_
mne:_Convert_ToInt32_m2988544165
r1e:_Array_Resize_TisColor32_t874517518_m2219502085_gshared
ww:__ZN7mecanim6CRCKeyENS_7eStringE
gig:_SslStreamBase_get_CanWrite_m2069502593
aZb:__ZL12SetPrefValueRKN4core12basic_stringIcNS_20StringStorageDefaultIcEEEERK9PrefValue
ASi:__Z31RuntimeInvoker_Mode_t1081683921PK10MethodInfoPvPS2_
ySb:__ZL30ReconstructParamNamesFromTableIN9ShaderLab20SerializedSubProgram15MatrixParameterEEvRK14dense_hash_mapIiN4core17string_with_labelILi1EEE18SInt32HashFunctionNSt3__28equal_toIiEE13stl_allocatorINS8_4pairIKiS6_EEL18MemLabelIdentifier1ELi16EEERNS8_6vectorIT_NS8_9allocatorISL_EEEE
e0:__ZN19ShaderPropertySheet20ReservePropertyCountEj
LGd:__ZN6il2cpp5utils11StringUtils6PrintfEPKcz
Lwd:__ZNSt3__26vectorIN6il2cpp8metadata18GenericArrayMethodENS_9allocatorIS3_EEE7reserveEj
Sia:__ZN15NameToObjectMapI6ShaderNSt3__23mapI4PPtrIS0_EN4core12basic_stringIcNS5_20StringStorageDefaultIcEEEENS1_4lessIS4_EENS1_9allocatorINS1_4pairIKS4_S9_EEEEEENS1_8multimapIS9_S4_NSA_IS9_EENSC_INSD_IKS9_S4_EEEEEEE4FindERSK_
C_h:_ShimEnumerator_Reset_m98005789_gshared
cad:__ZN6il2cpp6icalls8mscorlib6System7Decimal13decimal2Int64EP19il2cpp_decimal_reprPx
dVh:_Object_INTERNAL_CALL_Internal_InstantiateSingle_m3932420250
s8f:_PKCS1_Compare_m552424558
aGd:__ZN6il2cpp2vm6Object5CloneEP12Il2CppObject
Kzf:_ReadOnlyCollection_1_System_Collections_IList_set_Item_m1377990618_gshared
CPa:_UNITY_png_zstream_error
_rh:_ILGenerator_make_room_m373147874
_Rd:__ZN6il2cpp6icalls8mscorlib6System9Threading5Mutex20CreateMutex_internalEbP12Il2CppStringPb
F0j:_emscripten_glLinkProgram__wrapper
rae:_Boolean_CompareTo_m3691698947_AdjustorThunk
X0f:_PKCS1_Verify_v15_m2571212635
Llb:__ZNSt3__212__deque_baseI18ReflectionProbeJobNS_9allocatorIS1_EEED2Ev
Kv:__ZN11UnityEngine9Animation27DestroyAnimationSetBindingsEPNS0_20AnimationSetBindingsERN7mecanim6memory9AllocatorE
ESb:__ZN15dense_hashtableINSt3__24pairIKiN4core17string_with_labelILi1EEEEEi18SInt32HashFunctionN14dense_hash_mapIiS5_S7_NS0_8equal_toIiEE13stl_allocatorIS6_L18MemLabelIdentifier1ELi16EEE9SelectKeyESA_SD_E13set_empty_keyERKS6_
TB:__ZN8Animator12CleanupClassEv
h5d:_DecoderReplacementFallbackBuffer__ctor_m1305504326
fvc:__Z13TransferFieldI8JSONReadLb0E27Converter_SimpleNativeClassI10RectOffsetEEvRK23StaticTransferFieldInfoR31RuntimeSerializationCommandInfoRT1_
J2d:_String_IndexOf_m570401060
FNe:_Image_CalculateLayoutInputVertical_m1340533162
vve:_Enum_System_IConvertible_ToDateTime_m2924690746
wdb:__ZN11AssetBundle9AssetInfo8TransferI14SafeBinaryReadEEvRT_
tJe:_Dropdown_CreateBlocker_m4109366440
olh:_HashAlgorithm_System_IDisposable_Dispose_m2106335965
rCd:__GLOBAL__sub_I_GenericMetadata_cpp
rVf:_NotImplementedException__ctor_m1305569814
XVi:__Z59RuntimeInvoker_Int32_t2071877448_KeyValuePair_2_t1174980068PK10MethodInfoPvPS2_
xWh:_RangeAttribute__ctor_m1657271662
u_g:__ZL67GUISettings_t622856320_CustomAttributesCacheGenerator_m_CursorColorP21CustomAttributesCache
dlc:__ZNK8GUIStyle4DrawER8GUIStateRK5RectTIfER10GUIContentib
GVa:__ZNK17InstancedPropInfo14IsInstanceableERK19ShaderPropertySheet
V0a:__Z24CalculateSpotLightBoundsffRK10Matrix4x4fR15SpotLightBounds
OWf:_TailoringInfo__ctor_m2248501932
dda:__ZNK13RenderTexture21GetShadowSamplingModeEv
vQ:__ZN23CloudWebServicesManager23VirtualRedirectTransferER14SafeBinaryRead
Ree:_FixedSizeArrayListWrapper_InsertRange_m2690348965
QDb:__Z19ShouldTransferFieldR32SerializationCommandQueueBuilder17ScriptingClassPtriR18TransferField_InfoRK20CoreScriptingClasses
xth:_FieldInfo_get_IsStatic_m1411173225
tPf:_MemoryStream_Read_m2289595005
xL:__ZN5audio5mixer22UpdateAudioMixerMemoryERKNS0_18AudioMixerConstantERNS0_16AudioMixerMemoryEfPN4FMOD6SystemEf
OKc:__ZL21InitializeCachedStripPv
uXd:_SignatureDescription_set_DigestAlgorithm_m3219799565
K$i:_CustomEventData_Add_m4139356558
uyd:__ZN6il2cpp6icalls8mscorlib6System9Threading6Thread23GetCachedCurrentCultureEP12Il2CppThread
R2g:__ZL94PlayerEditorConnectionEvents_t2252784345_CustomAttributesCacheGenerator_messageTypeSubscribersP21CustomAttributesCache
Pfi:_Selectable_get_allSelectables_m3045831006
qVa:__ZNK6Camera22GetWorldToCameraMatrixEv
G8d:_ArrayTypeMismatchException__ctor_m2892687300
qGd:__ZN6il2cpp2vm12GenericClass11IsValueTypeEP18Il2CppGenericClass
o3e:_Dictionary_2_Do_CopyTo_TisKeyValuePair_2_t3716250094_TisIl2CppObject_m715850636_gshared
dDb:__ZN13MonoBehaviour7SetNameEPKc
j9f:_ContentInfo__ctor_m3579805263
mBc:__ZN25b2PolygonAndCircleContact7DestroyEP9b2ContactP16b2BlockAllocator
Xei:_ScrollRect_get_verticalNormalizedPosition_m1701804869
Dna:__ZN18AwakeFromLoadQueue5ClearEv
n0h:_Enumerator_get_Current_m2986380627_AdjustorThunk
G$a:__ZNSt3__27__sort5IR15ReflProbeSorterPP15ReflectionProbeEEjT0_S6_S6_S6_S6_T_
VZ:__ZN8Playable10DisconnectEPS_i
uk:_glGenTransformFeedbacks
Qra:__ZN13LoadOperationD2Ev
D$f:_KeyPairPersistence__ctor_m1817312194
hTe:_Array_InternalArray__ICollection_Contains_TisMark_t2724874473_m1640201705_gshared
Xej:_ActivatedClientTypeEntry_get_ContextAttributes_m53051138
Rla:__Z21PlayerStartFirstSceneb
Pph:_TypeBuilder_get_AssemblyQualifiedName_m2097258567
Gia:__ZNSt3__27__sort5IRPFbRKNS_4pairIN9ShaderLab16FastPropertyNameEN18UnityPropertySheet11UnityTexEnvEEES8_EPS6_EEjT0_SD_SD_SD_SD_T_
hza:__ZNK7ApiGLES18GetExtensionStringEv
WFa:__ZN31TransformFeedbackSkinPoseBufferD0Ev
zYj:_emscripten_glVertexAttrib1f__wrapper
nLa:__ZNK12HandlerChain4SizeERK13FileEntryData
w5h:_DefaultComparer_Equals_m1281232537_gshared
fp:FUNCTION_TABLE_iiiiiiiii
cPe:_InputField_set_asteriskChar_m619206227
skh:_DES_IsSemiWeakKey_m3967392585
Y5:__Z24GetComponentOrScriptNameRN5Unity9ComponentE
hEc:__Z22GetPhysicsGroundBody2Dv
DDf:_Comparison_1__ctor_m2159122699_gshared
lMe:_LayoutGroup_get_padding_m1653511445
lXg:__ZL137AnimatorControllerPlayable_t4078305555_CustomAttributesCacheGenerator_AnimatorControllerPlayable_CrossFade_m2119841183____normalizedTime3P21CustomAttributesCache
_wh:_MonoProperty_get_PropertyType_m1921201152
RHe:_FloatTween_TweenValue_m3881535116_AdjustorThunk
_Md:_GC_allochblk
n5c:__ZN22BaseUnityConnectClient19SendAppRunningEventEv
Gna:__Z15UnloadGameScenev
d1j:_glCheckFramebufferStatus__wrapper
t2g:__ZL59WriteOnlyAttribute_t14323075_CustomAttributesCacheGeneratorP21CustomAttributesCache
MB:__ZN16MecanimAnimationD0Ev
u5f:_BigInteger_get_Rng_m2525288368
Wfh:_BinaryCommon_IsPrimitive_m2132448955
yx:__ZN7mecanim9animation14DeltasFromClipERKNS0_18ClipMuscleConstantERKNS0_12ClipBindingsERKNS_14ValueArrayMaskERNS_10ValueArrayESB_SB_
Qqg:_X509ExtensionEnumerator_Reset_m3200687545
ege:_CaseInsensitiveHashCodeProvider__ctor_m3775398833
Yvi:_Comparer_1_System_Collections_IComparer_Compare_m674728644_gshared
_Rg:__ZL80Input_t1785128008_CustomAttributesCacheGenerator_Input_GetButtonDown_m2792523731P21CustomAttributesCache
Dfc:__Z36Renderer_Get_Custom_PropSortingOrderP12Il2CppObject
gqd:__ZNK15dense_hashtableINSt3__24pairIK10KeyWrapperIPK10Il2CppTypeEjEES6_N6il2cpp8metadata14Il2CppTypeHashEN14dense_hash_mapIS6_jSB_NS6_14EqualsComparerINSA_26Il2CppTypeEqualityComparerEEENS0_9allocatorIS8_EEE9SelectKeyESF_SH_E13find_positionERS7_
Uca:__ZN7Texture5ResetEv
zxc:__ZNK14b2CapsuleShape7RayCastEP15b2RayCastOutputRK14b2RayCastInputRK11b2Transformi
bZg:__ZL82Canvas_t209405766_CustomAttributesCacheGenerator_Canvas_get_renderMode_m1816014618P21CustomAttributesCache
PJb:__Z18Transfer_BlittableI24GenerateTypeTreeTransferLb1EhEvRK29SerializationCommandArgumentsR31RuntimeSerializationCommandInfo
cvb:__ZN10VertexData10DeallocateEv
_Ic:__ZN10Collider2D16TransformChangedEi
Knd:__ZNSt3__214__split_bufferIiRNS_9allocatorIiEEEC2EjjS3_
ybc:__ZNK16TypeTreeIterator10ByteOffsetEv
ZWe:_Array_FindLastIndex_TisIl2CppObject_m3885928623_gshared
EKe:_Graphic_get_rectTransform_m2697395074
d8:__ZnwjRKSt9nothrow_t
cs:__ZN8Animator11ClearObjectEv
vAb:__ZNSt3__26vectorIi13stl_allocatorIiL18MemLabelIdentifier12ELi16EEE8__appendEj
GJf:_Int32_System_IConvertible_ToSingle_m4225885999_AdjustorThunk
zfd:__ZN15dense_hashtableINSt3__24pairIK10KeyWrapperI13dynamic_arrayIPK10Il2CppTypeLj4EEEPFvvEEES8_N6il2cpp8metadata19Il2CppSignatureHashEN14dense_hash_mapIS8_SB_SF_NS8_14EqualsComparerINSE_22Il2CppSignatureCompareEEENS0_9allocatorISC_EEE9SelectKeyESJ_SL_E12maybe_shrinkEv
Xga:__ZN14SafeBinaryRead19TransferSTLStyleMapINSt3__23mapI39DeprecatedFastPropertyNameSerializationN18UnityPropertySheet11UnityTexEnvENS1_4lessIS3_EENS1_9allocatorINS1_4pairIKS3_S5_EEEEEEEEvRT_17TransferMetaFlags
Chc:__Z45Register_UnityEngine_MonoBehaviour_IsInvokingv
PGi:__Z65RuntimeInvoker_Void_t1841601450_Int64_t909078037_Int64_t909078037PK10MethodInfoPvPS2_
Clg:_IPv6Address_set_ScopeId_m1442934355
VDc:__ZNSt3__27__sort4IRPFbPN10ClipperLib13IntersectNodeES3_EPS3_EEjT0_S8_S8_S8_T_
lyg:__ZL72PKCS12_t1362584794_CustomAttributesCacheGenerator_U3CU3Ef__switchU24mapBP21CustomAttributesCache
lhh:_ObjectManager_RaiseOnDeserializedEvent_m512850179
jZg:__ZL83Canvas_t209405766_CustomAttributesCacheGenerator_Canvas_get_renderOrder_m2874842494P21CustomAttributesCache
S2g:__ZL87PlayerEditorConnectionEvents_t2252784345_CustomAttributesCacheGenerator_connectionEventP21CustomAttributesCache
OPg:__ZL86Camera_t189460977_CustomAttributesCacheGenerator_Camera_get_allCamerasCount_m989474043P21CustomAttributesCache
kac:__Z35UnregisterSerializationCacheBuilderPFv17ScriptingClassPtrR23CachedSerializationDataRbE
xfa:__Z30GetBuiltinVectorParamArraySize24BuiltinShaderVectorParam
lTi:__Z31RuntimeInvoker_Axis_t1431825778PK10MethodInfoPvPS2_
npd:__ZNSt3__218uninitialized_copyIPNS_4pairIK10KeyWrapperINS1_IPK14Il2CppAssemblyP11Il2CppClassEEEjEESC_EET0_T_SE_SD_
AWf:_CodePointIndexer__ctor_m797342079
i7g:__ZL64InputField_t1631627530_CustomAttributesCacheGenerator_m_LineTypeP21CustomAttributesCache
hGg:__ZL61KeyedHashAlgorithm_t1374150027_CustomAttributesCacheGeneratorP21CustomAttributesCache
TBj:_Predicate_1__ctor_m3243601712_gshared
bxb:__Z14RecalculateUVs14StrideIteratorI8Vector2fES1_S_I8Vector3fER9Texture2DRKS0_RK5RectTIfERK8Vector4fSB_S7_21SpritePackingRotation
w2a:__ZN21RendererUpdateManager11AddRendererER8Renderer
F_b:__Z13RegisterClassI15ResourceManagerEvv
Dhh:_SerializationEntry_t3485203212_marshal_pinvoke_back
hub:__ZN14SafeBinaryRead21TransferSTLStyleArrayI13dynamic_arrayIfLj4EEEEvRT_17TransferMetaFlags
FIg:__ZL79Thread_t241561612_CustomAttributesCacheGenerator_Thread_GetHashCode_m2038641494P21CustomAttributesCache
MGd:__ZN6il2cpp5utils11StringUtils11Utf16ToUtf8EPKDs
Bvh:_MonoEventInfo_GetEventInfo_m2331957186
v6c:__ZN11UnityEngine15PlatformWrapper20IsRootedOrJailbrokenEv
tog:_X509Certificate2_GetNameInfo_m402390219
Q0a:__Z33IntersectAABBPlaneBoundsOptimizedRK4AABBPKN4math7_float4Ei
D8d:_Swapper_BeginInvoke_m2652511022
XXh:_RectOffset_t3387826427_marshal_pinvoke_back
KAh:_UTF8Encoding_GetBytes_m2973831055
Tua:__ZN9GfxDevice19EndGeometryJobFrameEv
mIi:__Z49RuntimeInvoker_SByte_t454417549_Int32_t2071877448PK10MethodInfoPvPS2_
kDf:_Comparison_1_Invoke_m2645957248_gshared
KJb:__ZN27Converter_SimpleNativeClassI17AnimationCurveTplIfEE17ScriptingToNativeER18ScriptingObjectPtrPS1_
cJi:__Z197RuntimeInvoker_Boolean_t3825574718_Il2CppObject_Il2CppObject_Il2CppObject_Int32_t2071877448_DateTimeU26_t3448131235_SByte_t454417549_BooleanU26_t3168250738_SByte_t454417549_ExceptionU26_t1467204777PK10MethodInfoPvPS2_
PSd:__ZN6il2cpp8metadata24Il2CppGenericInstCompare7CompareERK10KeyWrapperIPK17Il2CppGenericInstES8_
Tdd:__ZNK15dense_hashtableINSt3__24pairIK10KeyWrapperIPK19Il2CppGenericMethodEPK26Il2CppGenericMethodIndicesEES6_N6il2cpp8metadata23Il2CppGenericMethodHashEN14dense_hash_mapIS6_SA_SE_NS6_14EqualsComparerINSD_26Il2CppGenericMethodCompareEEENS0_9allocatorISB_EEE9SelectKeyESI_SK_E5beginEv
VKe:_Graphic_get_materialForRendering_m2600868951
Ydg:_TlsClientSettings_get_ClientCertificate_m89435195
GFg:__ZL61AsymmetricAlgorithm_t784058677_CustomAttributesCacheGeneratorP21CustomAttributesCache
xcj:_AnimatorControllerPlayable_INTERNAL_CALL_PlayInternal_m3496633968
csh:__ZN21InterfaceFuncInvoker1IiP12MemberInfo_tE6InvokeEjP11Il2CppClassP12Il2CppObjectS1_
OWi:__Z54RuntimeInvoker_Void_t1841601450_ILTokenInfo_t149559338PK10MethodInfoPvPS2_
xqf:_Collection_1_System_Collections_IList_Contains_m3210868188_gshared
qnj:_AnchorInfo_get_IgnoreCase_m2406760852
VHa:__ZN9GfxDevice22UploadTextureCubeArrayE9TextureIDPKhjii13TextureFormati18TextureUploadFlags17TextureColorSpace
a0b:__ZNK17AnimationCurveTplIfE8EvaluateEfPNS0_5CacheE
oNa:__Z31ManagerContextInitializeClassesv
pkd:__ZNSt3__213__vector_baseIP9FieldInfoNS_9allocatorIS2_EEED2Ev
SEf:_NumberFormatter_AppendIntegerString_m868842252
mQc:_ft_smooth_transform
czg:__ZL53SortedList_t3004938869_CustomAttributesCacheGeneratorP21CustomAttributesCache
zNc:_UNITY_FT_List_Finalize
ASd:__ZN6il2cpp6icalls8mscorlib6System7Runtime8Remoting10Activation18ActivationServices34AllocateUninitializedClassInstanceEP20Il2CppReflectionType
FWa:__Z20LightAttenuateApproxRKfS0_
c3:__ZN9Scripting30SetCachedPtrOnScriptingWrapperE18ScriptingObjectPtrP6Object
_H:__ZNK12AudioManager26GetTypeInfoVirtualInternalEv
rMb:__Z18Transfer_BlittableI19StreamedBinaryWriteILb0EELb0EdEvRK29SerializationCommandArgumentsR31RuntimeSerializationCommandInfo
jcb:__ZN17LowLevelAllocator6MallocEj
y4d:_ASCIIEncoding_GetBytes_m3649277167
KLh:_GUILayoutUtility_Internal_GetWindowRect_m1287880151
Ozi:__Z49RuntimeInvoker_Char_t3454481338_Int32_t2071877448PK10MethodInfoPvPS2_
s3h:_Dictionary_2__ctor_m2457723796_gshared
Tzc:__ZN16b2PrismaticJoint4DumpEv
YPi:__Z49RuntimeInvoker_Il2CppObject_Il2CppObject_IntPtr_tPK10MethodInfoPvPS2_
ZUf:_MonoType_GetObjectData_m2888677152
Cqa:__ZN18BlockRangeInternal16PopLastNodeIndexEP10BlockRangeji
ord:__ZN6il2cpp2gc19AppendOnlyGCHashMapINSt3__24pairIPK11Il2CppImageP11Il2CppClassEEP22Il2CppReflectionModule17ReflectionMapHashIS9_ENS2_8equal_toIS9_EEE10CopyValuesEPv
I7e:_Enumerator_System_Collections_IEnumerator_Reset_m886102771_AdjustorThunk
SZf:_Kernel_MultiplyByDword_m155008287
ytb:__ZN4MeshD0Ev
G9c:__ZL42RequestRecreateEyeTexturesBeforeNextUpdatev
e1h:_ValueCollection_System_Collections_Generic_ICollectionU3CTValueU3E_get_IsReadOnly_m3005456072_gshared
czf:_ReadOnlyCollection_1_System_Collections_ICollection_get_SyncRoot_m1577944046_gshared
Nea:__ZNK6Camera20IsCurrentlyRenderingEv
wai:_LayoutUtility_U3CGetMinHeightU3Em__4_m1769295917
V1c:__Z36CanvasRenderer_CUSTOM_SetPopMaterialP12Il2CppObjectS0_i
yGg:__ZL58RijndaelManaged_t1034060848_CustomAttributesCacheGeneratorP21CustomAttributesCache
esc:__Z18Transfer_BlittableI9JSONWriteLb0EdEvRK29SerializationCommandArgumentsR31RuntimeSerializationCommandInfo
pzc:__ZNK11b2GearJoint16GetReactionForceEf
wQf:_TextReader__ctor_m3276128267
zbf:_List_1_System_Collections_Generic_ICollectionU3CTU3E_get_IsReadOnly_m3598018290_gshared
qxf:_ReadOnlyCollection_1_System_Collections_IList_Insert_m3679749778_gshared
bji:_Toggle_OnDidApplyAnimationProperties_m325835214
AOj:_wctomb
Raj:_AnimatorControllerPlayable_INTERNAL_CALL_IsParameterControlledByCurveString_m1715379406
wdc:__Z27Camera_CUSTOM_GetAllCamerasP11Il2CppArray
eDb:__ZNK13MonoBehaviour25GetNeedsPerObjectTypeTreeEv
eSj:__ZNSt11logic_errorD0Ev
gke:_Convert_InternalFromBase64String_m3682756716
bd:___cxa_rethrow
Ctc:__Z18Transfer_BlittableI8JSONReadLb1EhEvRK29SerializationCommandArgumentsR31RuntimeSerializationCommandInfo
zGc:__ZN18Overlap2DQueryBase13ReportFixtureEP9b2Fixture
i_g:__ZL86GUI_t4082743951_CustomAttributesCacheGenerator_U3CnextScrollStepTimeU3Ek__BackingFieldP21CustomAttributesCache
V9b:__ZN10systeminfo23SupportsLocationServiceEv
hSg:__ZL85Input_t1785128008_CustomAttributesCacheGenerator_Input_get_touchSupported_m3352846145P21CustomAttributesCache
hS:__ZNKSt3__26__treeINS_12__value_typeIN4core12basic_stringIcNS2_20StringStorageDefaultIcEEEES6_EENS_19__map_value_compareIS6_S7_NS_4lessIS6_EELb1EEENS_9allocatorIS7_EEE4findIS6_EENS_21__tree_const_iteratorIS7_PNS_11__tree_nodeIS7_PvEEiEERKT_
Omj:_Regex_System_Runtime_Serialization_ISerializable_GetObjectData_m4035555909
KDh:_TimeSpan_Add_m3228293154
z5h:_DefaultComparer_Equals_m4098991076_gshared
u4a:__ZN13MonoBehaviour8SetClassE17ScriptingClassPtr18ScriptingObjectPtr
Q8f:_RC4__cctor_m523650203
Uhj:_CrossContextDelegate_Invoke_m2908136830
Lzj:_Locale_GetText_m3480617287
V4f:_ApplicationIdentity_ToString_m800036884
EW:__ZN20LocalFileSystemPosix4ReadER13FileEntryDatayyPvPy
e_a:__ZNSt3__211__sift_downIRN23ForwardShaderRenderLoop18RenderObjectSorterILb0EEEP21ForwardRenderPassDataEEvT0_S7_T_NS_15iterator_traitsIS7_E15difference_typeES7_
vSf:_UnmanagedMemoryStream_get_Position_m4093669769
oEg:__ZL83MethodDictionary_t1742974787_CustomAttributesCacheGenerator_U3CU3Ef__switchU24map21P21CustomAttributesCache
$Uj:dynCall_iiiiiiffiiiiiiiiiffffiiii
tDb:__ZN13MonoBehaviour5DoGUIENS_13GUILayoutTypeEii
a6f:_Kernel_Multiply_m1938858919
Jph:_DerivedType_IsDefined_m555719351
ekj:_Mark_get_IsDefined_m3332701456
ybb:__ZNK12TLSAllocatorI14StackAllocatorE8ContainsEPKv
$xb:__ZN11TimeManager8TransferI18StreamedBinaryReadILb0EEEEvRT_
WWb:__ZN15SerializeTraitsINSt3__23mapI4PPtrI6ShaderEN4core12basic_stringIcNS5_20StringStorageDefaultIcEEEENS0_4lessIS4_EENS0_9allocatorINS0_4pairIKS4_S9_EEEEEEE8TransferI24GenerateTypeTreeTransferEEvRSH_RT_
Y0f:_EncryptedPrivateKeyInfo__ctor_m3964541963
Dkh:_DESTransform__cctor_m1179482644
p7h:_EqualityComparer_1_System_Collections_IEqualityComparer_GetHashCode_m1465362976_gshared
$Uh:_Object_t1021602117_marshal_pinvoke_cleanup
Mtb:__ZN14BlendShapeData8TransferI14SafeBinaryReadEEvRT_
Vvj:_TextGenerator_PopulateWithErrors_m467881283
Gve:_Enum_Format_m2294492821
AJg:__ZL81Convert_t2607082565_CustomAttributesCacheGenerator_Convert_ToDateTime_m3810846875P21CustomAttributesCache
ynb:__ZN7Texture25ReloadFromStorageIfNeededEPvb
QAb:__ZN24GenerateTypeTreeTransfer8TransferINSt3__26vectorIN30RuntimeInitializeOnLoadManager15ClassMethodInfoE13stl_allocatorIS4_L18MemLabelIdentifier12ELi16EEEEEEvRT_PKc17TransferMetaFlags
E4g:__ZL106PointerEventData_t1599784723_CustomAttributesCacheGenerator_PointerEventData_set_pressPosition_m2094137883P21CustomAttributesCache
F_h:_ShimEnumerator_get_Entry_m2332479818_gshared
Jze:_BaseRaycaster_get_priority_m247683215
Bqe:_DateTime_CheckDateTimeKind_m329345155_AdjustorThunk
HYc:_Update_Max
Pcj:_PlayableHandle_Equals_m1435096530_AdjustorThunk
hyd:__ZN6il2cpp6icalls8mscorlib6SystemL15ThrowNoWideningEv
k0b:__ZNK23TransformChangeDispatch24GetChangeMaskForInterestENS_12InterestTypeE
Njc:__Z45Transform_CUSTOM_INTERNAL_CALL_TransformPointP12Il2CppObjectRK8Vector3fRS1_
fqf:__ZN23InterfaceActionInvoker2Ii18Color32_t874517518E6InvokeEjP11Il2CppClassP12Il2CppObjectiS0_
bbb:__ZL10KeyHandleriPK23EmscriptenKeyboardEventPv
dMg:__ZL64ThreadStaticAttribute_t1787731584_CustomAttributesCacheGeneratorP21CustomAttributesCache
uha:__ZNSt3__26__treeINS_12__value_typeI39DeprecatedFastPropertyNameSerializationfEENS_19__map_value_compareIS2_S3_NS_4lessIS2_EELb1EEENS_9allocatorIS3_EEE7destroyEPNS_11__tree_nodeIS3_PvEE
dSc:_tt_cmap4_char_index
TMi:__Z54RuntimeInvoker_Void_t1841601450_Vector2U26_t3911752445PK10MethodInfoPvPS2_
_1i:_AsyncOperation_get_allowSceneActivation_m2825451182
jEh:_TimeSpan_op_Addition_m3421801803
xLa:__ZNK12HandlerChain8IsHiddenERK13FileEntryData
C6g:__ZL50Graphic_t2426225576_CustomAttributesCacheGeneratorP21CustomAttributesCache
cJb:__ZL26Transfer_SimpleNativeClassI17RemapPPtrTransfer10RectOffsetLb0EEvRK29SerializationCommandArgumentsR31RuntimeSerializationCommandInfo
aOc:__Z14ValidateFormatR13dynamic_arrayIN20TextRenderingPrivate16TextFormatChangeELj4EE
lcf:_List_1__ctor_m2672294496_gshared
hyj:_Vector2_op_Implicit_m1064335535
Dpe:_DateTime_System_IConvertible_ToInt32_m2789391054_AdjustorThunk
A_f:_ASN1Convert_FromInt32_m1541043489
MCe:_PointerInputModule_ProcessMove_m3200120346
Pke:_Convert_ToByte_m1008221737
R7f:_MD2Managed_MD2Transform_m3825201358
krf:_Collection_1_System_Collections_IList_IndexOf_m3976312928_gshared
i8g:__ZL69Scrollbar_t3248359358_CustomAttributesCacheGenerator_m_OnValueChangedP21CustomAttributesCache
_5e:_KeyValuePair_2__ctor_m3201181706_gshared
BDc:__ZN10ClipperLib14PointInPolygonERKNS_8IntPointEPNS_5OutPtE
Nch:_SoapFieldAttribute_get_XmlElementName_m4100905008
Xuj:_StateMachineBehaviour_OnStateUpdate_m2021794605
YIe:_Dropdown_AddOptions_m835420907
gzj:_Vector4_get_sqrMagnitude_m2115578799_AdjustorThunk
n4g:__ZL107PointerEventData_t1599784723_CustomAttributesCacheGenerator_PointerEventData_get_rawPointerPress_m448871540P21CustomAttributesCache
zfa:__ZNK9ShaderLab20ShaderBlendStateDesc15ToGfxBlendStateEPK19ShaderPropertySheetS3_R13GfxBlendState
Vyg:__ZL92Hashtable_t909839986_CustomAttributesCacheGenerator_Hashtable_t909839986____hcp_PropertyInfoP21CustomAttributesCache
mGe:_CanvasUpdateRegistry_IsRebuildingLayout_m1677873278
ZEc:__ZN15dense_hashtableINSt3__24pairIKNS1_IPK10Collider2DS4_EE11Collision2DEES5_NS2_23ColliderPairHashFunctorEN14dense_hash_mapIS5_S7_S9_NS0_8equal_toIS5_EE13stl_allocatorIS8_L18MemLabelIdentifier65ELi16EEE9SelectKeyESC_SF_E9copy_fromERKSI_j
NNi:__Z64RuntimeInvoker_Boolean_t3825574718_PlayableHandleU26_t3483893774PK10MethodInfoPvPS2_
_v:__ZN11UnityEngine9AnimationL22GenericBindingCallbackEPvS1_i
pYc:_Compute_Point_Displacement
GWb:__ZN9ShaderLab9IntShaderC2Ev
fld:__ZN6il2cpp6icalls8mscorlib6SystemL9IsPrivateEPK9EventInfo
rRd:__ZN6il2cpp6icalls8mscorlib6System10Reflection4Emit11TypeBuilder20setup_internal_classEP27Il2CppReflectionTypeBuilderS7_
qni:_InternalEnumerator_1_System_Collections_IEnumerator_Reset_m3237341717_AdjustorThunk
sLj:__ZL25UnresolvedVirtualCall_177P12Il2CppObject23RaycastResult_t21186376S1_PK10MethodInfo
VMh:_RectOffset_set_left_m620681523
QVh:_Physics2D_Raycast_m2560154475
Pki:_ArrayReadOnlyList_1_IndexOf_m1809425308_gshared
hWi:__Z61RuntimeInvoker_Int32_t2071877448_ResourceCacheItem_t333236149PK10MethodInfoPvPS2_
nmd:_il2cpp_gc_disable
jE:__Z69AnimatorControllerPlayable_CUSTOM_INTERNAL_CALL_GetLayerIndexInternalR9HPlayableP12Il2CppString
vBe:_ExecuteEvents_U3Cs_HandlerListPoolU3Em__0_m2903690915
Vhe:_Hashtable_Clone_m165405752
Wzc:__ZN16b2PrismaticJoint24SolveVelocityConstraintsERK12b2SolverData
tBg:__ZL61CallingConventions_t1097349142_CustomAttributesCacheGeneratorP21CustomAttributesCache
Zyi:__Z140RuntimeInvoker_Boolean_t3825574718_Il2CppObject_Int32_t2071877448_Il2CppObject_SByte_t454417549_Int64U26_t763825331_ExceptionU26_t1467204777PK10MethodInfoPvPS2_
jad:__ZN13Il2CppHashMapIPK22Il2CppGenericParameterP11Il2CppClassN6il2cpp5utils11PointerHashIS1_EENSt3__28equal_toIS2_EENS9_9allocatorINS9_4pairIK10KeyWrapperIS2_ES4_EEEEEC2EjRKS8_RKSB_
Q5c:__ZN11UnityEngine15PlatformWrapper19GetPhysicalMemoryMBEv
v5g:__ZL144U3CStartU3Ec__Iterator0_t3220237554_CustomAttributesCacheGenerator_U3CStartU3Ec__Iterator0_System_Collections_IEnumerator_get_Current_m290565900P21CustomAttributesCache
IX:__Z15CreateDirectoryRKN4core12basic_stringIcNS_20StringStorageDefaultIcEEEE
Ioa:__Z21CalculateGlobalMatrix23TransformAccessReadOnly
Pxg:__ZL70InternalsVisibleToAttribute_t1037732567_CustomAttributesCacheGeneratorP21CustomAttributesCache
aNf:_MonoIO_GetCurrentDirectory_m1509324201
uYd:_SHA384Managed_adjustByteCounts_m410900820
Xzh:_UTF32Encoding_GetHashCode_m4205784236
Ele:_DateTime_ToUniversalTime_m1815024752
F5g:__ZL73U3COnFinishSubmitU3Ec__Iterator0_t99135383_CustomAttributesCacheGeneratorP21CustomAttributesCache
D_b:__Z13RegisterClassI14RenderSettingsEvv
Bvj:_TextGenerator_Finalize_m4242493229
pMf:_BinaryReader_ReadDouble_m488089323
gEh:_TimeSpan_Subtract_m3597791685_AdjustorThunk
svh:_MonoCMethod_get_Name_m764669486
hcj:_AnimatorControllerPlayable_CrossFade_m3146661810
az:__ZN7mecanim12statemachine24CreateStateMachineOutputEPKNS0_20StateMachineConstantEjRNS_6memory9AllocatorE
rSh:_Logger__ctor_m3834134587
zld:_il2cpp_assembly_get_image
qva:__ZNK9GfxDevice27GetActiveRenderSurfaceWidthEv
IUe:_SetPropertyUtility_SetClass_TisIl2CppObject_m3524554928_gshared
jdb:__ZNK11AssetBundle26GetTypeInfoVirtualInternalEv
Crj:_PKCS12_get_Keys_m1312614820
g6c:__ZN11UnityEngine15PlatformWrapper28GetCleanGraphicsFixedVersionEv
aab:__ZN16MemoryFileSystem5WriteER13FileEntryDatayyPvPy
rMf:_BinaryReader_ReadInt32_m1811936587
qod:__ZN6il2cpp2vm4Type7GetTypeEPK10Il2CppType
Qsg:_Interval_t2354235237_marshal_pinvoke_cleanup
IXh:_Rect_Contains_m1334685291_AdjustorThunk
GEc:__ZN23ColliderTilingExtensionD0Ev
T0b:__ZN16SpriteRenderData28PrepareRenderingDataIfNeededEv
I8d:_AssemblyLoadEventHandler_Invoke_m108373765
MQi:__Z64RuntimeInvoker_Boolean_t3825574718_Il2CppObject_Int64_t909078037PK10MethodInfoPvPS2_
Tqd:__ZN15dense_hashtableINSt3__24pairIK10KeyWrapperINS1_IPK10MethodInfoP11Il2CppClassEEEjEES9_17ReflectionMapHashIS8_EN14dense_hash_mapIS9_jSD_NS9_14EqualsComparerINS0_8equal_toIS8_EEEENS0_9allocatorISB_EEE9SelectKeyESI_SK_E8min_sizeEjj
Z5g:__ZL61Dropdown_t1985816271_CustomAttributesCacheGenerator_m_OptionsP21CustomAttributesCache
zJj:__ZL24UnresolvedVirtualCall_76P12Il2CppObjectPK10MethodInfo
Mka:__ZN6prcoreL17RemapGenericFloatI18TexFormatRGBAFloat17TexFormatRGBAHalfEEvPKNS_9InnerInfoE
Hwb:__Z32TransferEnumWithNameForceIntSizeI14SafeBinaryRead14SpriteTileModeEvRT_RT0_PKc17TransferMetaFlags
SQa:__Z16FindCameraStacksRKNSt3__24listI4PPtrI6CameraENS_9allocatorIS3_EEEERNS_6vectorI11CameraStackNS4_ISA_EEEE
Kzj:_WebRequestUtils__cctor_m893658947
npb:__ZN10GISettings8TransferI14SafeBinaryReadEEvRT_
xn:FUNCTION_TABLE_vifff
Vzf:_ReadOnlyCollection_1_System_Collections_Generic_ICollectionU3CTU3E_Remove_m2957273994_gshared
Dze:_BaseInputModule_ShouldActivateModule_m2899747874
cda:__ZN13RenderTexture13ApplySettingsEv
cIg:__ZL92UTF8Encoding_t111055448_CustomAttributesCacheGenerator_UTF8Encoding_GetByteCount_m2547312609P21CustomAttributesCache
$e:_JS_Sound_SetListenerPosition
qn:FUNCTION_TABLE_fiffi
_sh:_ModuleBuilderTokenGenerator_GetToken_m3427457873
DCb:__ZN9TextAsset9SetScriptERKN4core12basic_stringIcNS0_20StringStorageDefaultIcEEEEb
cgi:_Selectable_get_isPointerInside_m3162215687
zaf:_List_1_System_Collections_IList_Contains_m149594880_gshared
TEd:__ZNK15dense_hashtableINSt3__24pairIK10KeyWrapperINS1_IPKcS4_EEEiEES6_24NamespaceAndNamePairHashN14dense_hash_mapIS6_iS9_NS6_14EqualsComparerI26NamespaceAndNamePairEqualsEENS0_9allocatorIS8_EEE9SelectKeyESD_SF_E10test_emptyERK24dense_hashtable_iteratorIS8_S6_S9_SH_SD_SF_E
gKg:__ZL78Convert_t2607082565_CustomAttributesCacheGenerator_Convert_ToSByte_m2585959569P21CustomAttributesCache
MXh:_Rect_Overlaps_m4145874649
nJh:_UnauthorizedAccessException__ctor_m3480402128
PZf:_BigInteger_op_Modulus_m3788401748
uij:_ArgInfo_GetInOutArgs_m3184132151
Qma:__ZNK8Material16MarkDependenciesER27GarbageCollectorThreadState
BIg:__ZL85Thread_t241561612_CustomAttributesCacheGenerator_Thread_get_CurrentThread_m3667342817P21CustomAttributesCache
gsc:__ZL17Transfer_GUIStyleI9JSONWriteLb0EEvRK29SerializationCommandArgumentsR31RuntimeSerializationCommandInfo
EUa:__Z28GetHaloVertexPositionsStereoP8Vector3fRKS_S2_f
Cla:__ZN6prcoreL27StretchGenericFloatBilinearI15TexFormatRGHalfEEvPKNS_9InnerInfoE
k2g:__ZL85UnityEvent_1_t4075366602_CustomAttributesCacheGenerator_UnityEvent_1__ctor_m152711818P21CustomAttributesCache
s7e:_Enumerator_MoveNext_m598197344_AdjustorThunk
hKj:__ZL25UnresolvedVirtualCall_112P12Il2CppObjectsS0_aaaPK10MethodInfo
s7i:_DisplaysUpdatedDelegate_Invoke_m3646339243
nvj:_TextGenerationSettings_t2543476768_marshal_pinvoke_back
w3d:_String_JoinUnchecked_m1880555587
Qfa:__ZNK9ShaderLab7Program21GetMatchingSubProgramEPK6ShaderPKNS_4PassERK16ShaderKeywordSetjPS7_R19ShaderSnippetResult
N_e:_Array_InternalArray__Insert_TisKeyValuePair_2_t1174980068_m2464431954_gshared
kPg:__ZL109AsyncOperation_t3814632279_CustomAttributesCacheGenerator_AsyncOperation_set_allowSceneActivation_m3988498951P21CustomAttributesCache
oic:__Z49Register_UnityEngine_Resources_GetBuiltinResourcev
Hnj:_BalancingGroup_set_Balance_m3452171919
pSc:_tt_cmap10_char_index
UIe:_Dropdown_Awake_m335654827
X7:__Z18GetITerrainManagerv
g4h:_Dictionary_2_U3CCopyToU3Em__0_m1479035402_gshared
Nfe:_BitArray_set_Item_m3801461194
ADe:_StandaloneInputModule_get_cancelButton_m1563746440
Oad:__ZN15dense_hashtableINSt3__24pairIK10KeyWrapperIPK22Il2CppGenericParameterEP11Il2CppClassEES6_N6il2cpp5utils11PointerHashIS4_EEN14dense_hash_mapIS6_S9_SE_NS6_14EqualsComparerINS0_8equal_toIS5_EEEENS0_9allocatorISA_EEE9SelectKeyESJ_SL_E3endEv
g3d:_String_Remove_m3580114465
lPc:_UNITY_FT_Destroy_Class_cff_field_handlers
mVb:__ZN9ShaderLab22SerializedBindChannels8TransferI19StreamedBinaryWriteILb0EEEEvRT_
uwg:__ZL65Il2CppArray_CustomAttributesCacheGenerator_Array_Copy_m1969461849P21CustomAttributesCache
qmi:_InternalEnumerator_1_MoveNext_m1791963761_AdjustorThunk
Omc:__ZN5IMGUI20MoveWindowFromLayoutER8GUIStateiRK5RectTIfE
XBg:__ZL56ParameterInfo_t2249040075_CustomAttributesCacheGeneratorP21CustomAttributesCache
efj:_UrlAttribute_get_UrlValue_m3448699483
hRg:__ZL83GameObject_t1756533147_CustomAttributesCacheGenerator_GameObject_set_tag_m717375123P21CustomAttributesCache
iNh:_Mathf_Max_m1875893177
QIh:_UIntPtr__ctor_m2737768530
FNc:_UNITY_FT_Stream_ReadUShort
N2i:_Bounds_get_center_m129401026_AdjustorThunk
pPe:_InputField_OnEnable_m3797157569
Vec:__Z51Register_UnityEngine_GUILayer_INTERNAL_CALL_HitTestv
Skc:__Z50Register_UnityEngine_Object_FindSceneObjectsOfTypev
Vga:__ZNSt3__26__treeINS_12__value_typeIN4core12basic_stringIcNS2_20StringStorageDefaultIcEEEES6_EENS_19__map_value_compareIS6_S7_NS_4lessIS6_EELb1EEE13stl_allocatorIS7_L18MemLabelIdentifier1ELi16EEE7destroyEPNS_11__tree_nodeIS7_PvEE
OAj:_Nullable_1__ctor_m796575255_gshared
NLd:__ZN6il2cpp2vm8Profiler7GCEventE13Il2CppGCEvent
Npe:_DateTimeUtils_ToString_m3878360633
gyd:__ZN6il2cpp6icalls8mscorlib6SystemL16ThrowInvalidCastEPK11Il2CppClassS5_
Xti:_InternalEnumerator_1_get_Current_m3732458101_AdjustorThunk
czb:__ZN12AspectRatios8TransferI24GenerateTypeTreeTransferEEvRT_
RDe:_StandaloneInputModule_ForceAutoSelect_m1167170508
Xli:_InternalEnumerator_1_MoveNext_m1636015243_gshared
qKc:__Z12FormatBufferPciPKcz
v$i:_CustomEventData_AddUInt64_m1437973832
aEe:_TouchInputModule_Process_m1373751353
Rf:_emscripten_glUniform1fv
fgb:__ZNK17FileSystemHandler8IsHiddenERK13FileEntryData
_ad:__ZN6il2cpp2vm5Class13GetArrayClassEP11Il2CppClassj
jJ:__ZN4FMOD7Channel7setModeEj
uph:_DerivedType_InvokeMember_m4149586013
mTa:__ZN15RenderNodeQueueC2E18MemLabelIdentifier
Fbh:__ZL76WhiteCellController_t1439096391_CustomAttributesCacheGenerator_resetPositionP21CustomAttributesCache
oU:__ZN13EmscriptenWWW6CancelEv
xig:_TlsStream_SetLength_m1460039587
Vmc:__ZN11IMGUIModule12AddGUIScriptER8ListNodeI13MonoBehaviourE
qb:invoke_difi
XBe:_PointerEventData_set_rawPointerPress_m1484888025
C7:__ZL50StaticRegisterSceneLoadedCallback_LightmapSettingsPv
$ee:_SimpleEnumerator_Clone_m215554974
IXa:__ZN29MotionVectorRenderLoopScratch15ThreadedCleanupEv
Pm:FUNCTION_TABLE_iiffi
_Le:_GridLayoutGroup_get_cellSize_m1061731753
rAc:__ZNK11b2RopeJoint10GetAnchorAEv
q7h:_EqualityComparer_1_System_Collections_IEqualityComparer_Equals_m300683774_gshared
_za:__ZN21GLESGpuProgramApplier11ApplyVectorERKN20GpuProgramParameters14ValueParameterEPK8Vector4ft
q0a:__Z17PrepareSceneNodesP11CullResults
nzj:_Vector4_ToString_m2340321043_AdjustorThunk
zla:__ZN6prcoreL27StretchGenericFloatBilinearI18TexFormatRGBAFloatEEvPKNS_9InnerInfoE
Koj:_Parser_IsIgnoreCase_m4155598997
zBd:__ZN15dense_hashtableINSt3__24pairIK10KeyWrapperIP14Il2CppIUnknownEjEES5_N6il2cpp5utils11PointerHashIS3_EEN14dense_hash_mapIS5_jSB_NS5_14EqualsComparerINS0_8equal_toIS4_EEEENS0_9allocatorIS7_EEE9SelectKeyESG_SI_E12expand_arrayEjN21dense_hash_map_traits17integral_constantIbLb0EEE
EUc:_cff_size_done
v7h:_EqualityComparer_1_System_Collections_IEqualityComparer_Equals_m3376587337_gshared
WRa:__ZN22RenderingCommandBuffer13GetAndCheckRTE24BuiltinRenderTextureTypeRKN9ShaderLab16FastPropertyNameEPKcPP13RenderTexture
c7a:__ZN6Camera34UpdatePreviousViewProjectionMatrixEv
Tfa:__ZN9ShaderLab11ShaderState25RemoveUnsupportedProgramsEPK6Shader
ZVb:__ZL23AddGpuProgramParametersR20GpuProgramParametersRKNSt3__26vectorIN9ShaderLab20SerializedSubProgram15MatrixParameterENS1_9allocatorIS5_EEEERKNS2_INS4_15VectorParameterENS6_ISB_EEEEiP16PropertyNamesSet
LOg:__ZL179U3CCreateWhereIteratorU3Ec__Iterator1D_1_t2523986802_CustomAttributesCacheGenerator_U3CCreateWhereIteratorU3Ec__Iterator1D_1_System_Collections_IEnumerator_get_Current_m1354814095P21CustomAttributesCache
Kkc:__Z44Register_UnityEngine_Object_DestroyImmediatev
szg:__ZL57CompareOptions_t2829943955_CustomAttributesCacheGeneratorP21CustomAttributesCache
fec:__Z47Register_UnityEngine_Component_BroadcastMessagev
Ar:__ZN18StreamedBinaryReadILb0EE21TransferSTLStyleArrayI13dynamic_arrayI4PPtrI6ObjectELj4EEEEvRT_17TransferMetaFlags
eDg:__ZL62_ConstructorBuilder_t1236878896_CustomAttributesCacheGeneratorP21CustomAttributesCache
Dac:__Z26scripting_class_has_parent17ScriptingClassPtrS_
WAd:__ZN6il2cpp6icalls8mscorlib6System2IO6MonoIO4ReadE12Il2CppIntPtrP11Il2CppArrayiiPi
L6:__ZN13RuntimeStaticI21AssetReferenceStorageLb0EE16StaticInitializeEPv
VTd:__ZN6il2cpp8metadata25Il2CppGenericClassCompare7CompareEPK18Il2CppGenericClassS4_
Eu:__ZNK8Animator20IsInMatchTargetStateEv
Em:FUNCTION_TABLE_viiifiii
Anc:__Z36Register_UnityEngine_GUI_set_changedv
hHe:_ColorTween_get_startColor_m278546349_AdjustorThunk
t0d:_Encoding_get_Unicode_m1382741113
Ggj:_LifetimeServices_set_SponsorshipTimeout_m1403222216
QUe:_SetPropertyUtility_SetStruct_TisFitMode_t4030874534_m2608169783_gshared
ODi:__Z64RuntimeInvoker_Single_t2076509932_Il2CppObject_Int32_t2071877448PK10MethodInfoPvPS2_
dde:_Char_ToString_m1401375624_AdjustorThunk
DYe:_Array_InternalArray__ICollection_Add_TisTableRange_t2011406615_m147373358_gshared
Vle:_Convert_ToDateTime_m1251728572
FYe:_Array_InternalArray__ICollection_Add_TisBoolean_t3825574718_m1009318882_gshared
QAf:_ReadOnlyCollection_1_System_Collections_IList_set_Item_m1149349508_gshared
My:__ZN27AnimationLayerMixerPlayable18SetInputConnectionEP8Playablei
cpc:__Z42Register_UnityEngine_GUIStyle_get_wordWrapv
Ngh:_ObjectReader_ReadObjectContent_m3949770110
pff:_List_1_System_Collections_ICollection_get_SyncRoot_m3031553207_gshared
f6i:_Component_SendMessage_m4199581575
_sa:__ZZ19InitializeGfxDevice20GfxCreateDeviceFlagsEN38PreLateUpdateEndGraphicsJobsLatestruct7ForwardEv
zcd:__ZN6il2cpp2vm5Class40GetInterfaceInvokeDataFromVTableSlowPathEPK12Il2CppObjectPK11Il2CppClassj
v6g:__ZL69FontData_t2614388407_CustomAttributesCacheGenerator_m_AlignByGeometryP21CustomAttributesCache
Wkb:__ZN20TierGraphicsSettings8TransferI18StreamedBinaryReadILb0EEEEvRT_
Uhi:_Text_get_font_m3115501113
qxd:__GLOBAL__sub_I_Thread_cpp
eha:__ZN14SafeBinaryRead8TransferINSt3__24pairIN9ShaderLab16FastPropertyNameE10ColorRGBAfEEEEvRT_PKc17TransferMetaFlags
N9c:__ZL9rshift128PyS_
pYb:__Z10pqHeapInitP13PriorityQHeap
Hgh:_ObjectReader_RecordFixup_m1893348030
oqh:_EnumBuilder_GetElementType_m1228393631
evd:__ZN14dense_hash_mapI10KeyWrapperINSt3__24pairIPK12PropertyInfoP11Il2CppClassEEEj17ReflectionMapHashIS8_ENS9_14EqualsComparerINS1_8equal_toIS8_EEEENS1_9allocatorINS2_IKS9_jEEEEE13set_empty_keyERSH_
fk:_glRenderbufferStorage
XEd:__ZNK15dense_hashtableINSt3__24pairIK10KeyWrapperINS1_IPKcS4_EEEiEES6_24NamespaceAndNamePairHashN14dense_hash_mapIS6_iS9_NS6_14EqualsComparerI26NamespaceAndNamePairEqualsEENS0_9allocatorIS8_EEE9SelectKeyESD_SF_E13find_positionERS7_
EAg:__ZL80ILGenerator_t99948092_CustomAttributesCacheGenerator_ILGenerator_Emit_m116557729P21CustomAttributesCache
Htg:__ZL43Il2CppObject_CustomAttributesCacheGeneratorP21CustomAttributesCache
kgc:__Z45Register_UnityEngine_Input_get_touchSupportedv
k6c:__ZN11UnityEngine15PlatformWrapper28GetTextureFormatSupportFlagsEv
fQc:_UNITY_FT_Create_Class_pshinter_module_class
EPi:__Z103RuntimeInvoker_Void_t1841601450_Vector2U26_t3911752445_Il2CppObject_Il2CppObject_Vector2U26_t3911752445PK10MethodInfoPvPS2_
F2d:_String_CompareOrdinalCaseInsensitiveUnchecked_m2002640463
xae:_Boolean_GetHashCode_m1894638460
hVc:_cf2_setError
O4f:_AppDomainInitializer_BeginInvoke_m2446455399
$Ih:_UIntPtr_ToUInt32_m1679632738_AdjustorThunk
nAh:_UTF7Encoding_InternalGetChars_m4157428055
Boa:__Z33InterpolateLightProbeCoefficientsRK17LightProbeContextRK29LightProbeSamplingCoordinatesR20SphericalHarmonicsL2
MTg:__ZL86Texture_t2243626319_CustomAttributesCacheGenerator_Texture_Internal_GetWidth_m56137242P21CustomAttributesCache
$$f:_SmallXmlParser_HandleBufferedContent_m3397096753
dh:_glDisable
xQe:_InputField_OnDeselect_m3963675647
cni:_InternalEnumerator_1_MoveNext_m1994485778_AdjustorThunk
e3c:__Z44Register_UnityEngine_Canvas_get_pixelPerfectv
o6e:_KeyValuePair_2_get_Value_m1916631176_AdjustorThunk
ynh:_MethodBase__ctor_m3951051358
Ylb:__ZN4PPtrI9Texture2DE8TransferI14SafeBinaryReadEEvRT_
fHd:__ZN6il2cpp5utils11StringUtils15StringDuplicateEPKDsj
GIe:_Dropdown_get_template_m3014799983
frg:_BaseMachine_Scan_m122450399
zcj:_AnimatorControllerPlayable_PlayInternal_m3385259863
Rde:_ArrayList_CopyTo_m2353632788
iBg:__ZL71AssemblyFileVersionAttribute_t2897687916_CustomAttributesCacheGeneratorP21CustomAttributesCache
eZi:__Z33RuntimeInvoker_Color32_t874517518PK10MethodInfoPvPS2_
y7:__ZNSt3__26vectorINS_4pairIyP17VertexDeclarationEENS_9allocatorIS4_EEE6assignIPS4_EENS_9enable_ifIXaasr21__is_forward_iteratorIT_EE5valuesr16is_constructibleIS4_NS_15iterator_traitsISB_E9referenceEEE5valueEvE4typeESB_SB_
Dcf:_List_1_Add_m943275925_gshared
LVi:__Z100RuntimeInvoker_Int32_t2071877448_Il2CppObject_Color32_t874517518_Int32_t2071877448_Int32_t2071877448PK10MethodInfoPvPS2_
zlh:_HMAC_get_BlockSizeValue_m603907214
$Xa:__ZNK8Material12GetPassCountEv
uje:_Enumerator__cctor_m3784927209
E1j:b110
F1j:b111
G1j:b112
ASj:_bitshift64Ashr
J1j:b114
K1j:b115
L1j:b116
Hga:__ZNK8Material26GetTypeInfoVirtualInternalEv
mIc:__ZN11Rigidbody2D23VirtualRedirectTransferER14SafeBinaryRead
K0b:__ZN14SpriteRenderer12CleanupClassEv
ABa:__ZN4crnd12crn_unpacker22decode_alpha_endpointsEv
q1a:__Z23CullDynamicObjectsUmbraPK4AABBPKN5Umbra15OcclusionBufferER9IndexList
qbh:__ZL67FieldWithTarget_t2256174789_CustomAttributesCacheGenerator_m_TargetP21CustomAttributesCache
Frf:_Collection_1_RemoveItem_m2565709010_gshared
eSc:_tt_cmap4_char_next
hRi:__Z86RuntimeInvoker_Void_t1841601450_Il2CppObject_StringU26_t638738783_StringU26_t638738783PK10MethodInfoPvPS2_
rPb:__ZN18StreamedBinaryReadILb1EE21TransferSTLStyleArrayI13dynamic_arrayIiLj4EEEEvRT_17TransferMetaFlags
o$:__ZN17DirectorFrameTime14ResetDSPValuesEv
Cqj:_GeneralNames_ToString_m800435094
aFe:_BaseMeshEffect_OnDidApplyAnimationProperties_m2484799839
IFg:__ZL73AsymmetricSignatureDeformatter_t3580832979_CustomAttributesCacheGeneratorP21CustomAttributesCache
G4d:_ASCIIEncoding_GetString_m3931709239
SQg:__ZL97GameObject_t1756533147_CustomAttributesCacheGenerator_GameObject__ctor_m1633632305____components1P21CustomAttributesCache
R_a:__ZN23ForwardShaderRenderLoopD2Ev
qIa:__ZN9GfxDevice20SetComputeBufferDataE15ComputeBufferIDPKvj
OGh:_UInt16_Parse_m3560204090
Jvc:__ZN8JSONRead21TransferSTLStyleArrayI13dynamic_arrayIsLj2EEEEvRT_18MemLabelIdentifier17TransferMetaFlags
XI:__ZN4FMOD7Channel11setPositionEjj
Xh:_glBindSampler
B8:__Z22CreateMutexLockedQueuev
dCf:_ReadOnlyCollection_1_System_Collections_Generic_ICollectionU3CTU3E_Clear_m964488020_gshared
z0d:_SecurityFrame_get_Domain_m3219347572_AdjustorThunk
_h:_glGetVertexAttribiv
GXd:_SHA1__ctor_m788472966
HYe:_Array_InternalArray__ICollection_Add_TisChar_t3454481338_m422084244_gshared
Cdd:__ZNSt3__218uninitialized_fillIPNS_4pairIK10KeyWrapperIPKcEP11Il2CppClassEES9_EEvT_SB_RKT0_
P_c:__ZN2UI11CanvasGroup23VirtualRedirectTransferER18StreamedBinaryReadILb0EE
J$h:_Transform_1_EndInvoke_m803975703_gshared
aCf:_ReadOnlyCollection_1_get_Item_m3778245964_gshared
lLg:__ZL52EventArgs_t3289624707_CustomAttributesCacheGeneratorP21CustomAttributesCache
$aj:_AnimatorControllerPlayable_GetLayerName_m2571001466
Quc:__ZN8JSONRead8TransferIbEEvRT_PKc17TransferMetaFlagsb
_nf:_Collection_1_RemoveAt_m290627370_gshared
t0i:_AnimationEvent_get_objectReferenceParameter_m3565420672
UBe:_PointerEventData_get_lastPress_m3835070463
aSh:_DefaultValueAttribute_Equals_m3216982933
mng:_X509KeyUsageExtension_Decode_m3292847033
O7:__ZN26SharedLightmapSettingsDataD2Ev
bvh:_Module_filter_by_type_name_ignore_case_m3574895736
xEg:__ZL57ProxyAttribute_t4031752430_CustomAttributesCacheGeneratorP21CustomAttributesCache
Zob:__ZN26CustomRenderTextureManager19PreAllocateMaterialEP19CustomRenderTexture
yKc:__ZN19ControllerHitReport13onObstacleHitERKN5physx23PxControllerObstacleHitE
ngh:_ObjectReader_ReadObject_m397855326
IMd:_GC_promote_black_lists
$Me:_Image_get_fillAmount_m3354146540
Bvc:__Z29Transfer_Blittable_ArrayFieldI8JSONRead8Vector4fEvRT_R9ArrayInfoRK23StaticTransferFieldInfo
kaf:_List_1_Sort_m1518807012_gshared
hOc:__ZNK13TextRendering4Font9GetAscentEv
Yn:FUNCTION_TABLE_vf
xo:FUNCTION_TABLE_vd
vFh:_Type_GetMethod_m1930231379
zo:FUNCTION_TABLE_vi
zfh:_WellKnownServiceTypeEntry_ToString_m493996021
jAg:__ZL55StreamReader_t2360341767_CustomAttributesCacheGeneratorP21CustomAttributesCache
BRh:_HumanBone_get_humanName_m2091758568_AdjustorThunk
dEg:__ZL51IMessage_t3044378324_CustomAttributesCacheGeneratorP21CustomAttributesCache
pXf:_SimpleCollator_GetContraction_m1391584430
Aae:_CultureInfo_get_InvariantCulture_m398972276
aae:_Boolean_System_IConvertible_ToInt64_m4142756949_AdjustorThunk
HPg:__ZL84Camera_t189460977_CustomAttributesCacheGenerator_Camera_get_targetTexture_m705925974P21CustomAttributesCache
NC:__ZNK8Animator17HasBoundPlayablesEv
uHc:__ZN17Physics2DSettings8TransferI24GenerateTypeTreeTransferEEvRT_
F7f:_HMAC_initializePad_m3828610671
mVg:__ZL68DrivenTransformProperties_t2488747555_CustomAttributesCacheGeneratorP21CustomAttributesCache
Jdf:_List_1_Contains_m980727749_gshared
nXd:_RSAParameters_t1462703416_marshal_pinvoke_cleanup
Mgj:_ConfigHandler_OnChars_m2004226744
Y1i:_AsyncOperation_get_priority_m966065939
va:invoke_iiifiii
mzd:__ZN6il2cpp2vm9Exception11FromNameMsgEPK11Il2CppImagePKcS6_S6_
KFd:__ZNSt3__26__treeINS_12__value_typeIP24Il2CppReflectionAssemblyPvEENS_19__map_value_compareIS3_S5_NS_4lessIS3_EELb1EEENS_9allocatorIS5_EEE12__find_equalIS3_EERPNS_16__tree_node_baseIS4_EESH_RKT_
eFh:_Type_internal_from_name_m1506974323
gn:FUNCTION_TABLE_fiiifii
gC:__ZN10HumanTrait15InitializeClassEv
D$:__Z14GetTimeManagerv
HWg:__ZL143AnimatorControllerPlayable_t4078305555_CustomAttributesCacheGenerator_AnimatorControllerPlayable_INTERNAL_CALL_GetLayerNameInternal_m2049776925P21CustomAttributesCache
KZb:__ZneRK20SpriteTilingPropertyS1_
TNi:__Z67RuntimeInvoker_Void_t1841601450_Scene_t1684909666_Int32_t2071877448PK10MethodInfoPvPS2_
jhb:__Z12GUIDToStringRK9UnityGUIDPc
Meb:__ZN15FileSystemEntry4LockE12FileLockModeP12FileAccessor
oSe:_Array_get_swapper_TisIl2CppObject_m1701356863_gshared
PZh:_Enumerator_System_Collections_IDictionaryEnumerator_get_Value_m3005608231_AdjustorThunk
mM:__ZN11AudioSource22UnmuteActiveVideoSinksEv
cHd:__ZN4utf88internal20is_overlong_sequenceIiEEbjT_
Ti:_glReadBuffer
rEi:__Z31RuntimeInvoker_SByte_t454417549PK10MethodInfoPvPS2_
ffe:_SynchronizedArrayListWrapper_get_Count_m4104930530
ulh:_HashAlgorithm_get_HashSize_m2625667696
hZa:__Z30SetupBakedOcclusionForGeometrybRK26SharedLightmapSettingsDataRK15LightmapIndicesR17ShaderPassContext
E1e:_Array_Resize_TisVector4_t2243707581_m1528805937_gshared
jQf:_Stream_Close_m1499612649
lec:__Z41Register_UnityEngine_Cursor_get_lockStatev
GYa:__Z14SetupLightmapsRK8Vector4fS1_R17ShaderPassContext
Tsg:_Interval_get_Empty_m3170923997
wMh:_GUILayoutEntry_CalcWidth_m2520096159
iu:__ZN11UnityEngine9Animation37HasGenericRootTransformPropertyValuesERKNS0_30AnimatorGenericBindingConstantEb
$$b:__Z20DestroyObjectDelayedP6Objectf
WU:__ZN20DynamicHeapAllocatorI17LowLevelAllocatorED0Ev
MPe:_InputField_OnDrag_m726194348
iDc:__ZN10ClipperLib11ClipperBase5ResetEv
vej:_GuidAttribute__ctor_m1099153635
xYf:_PreviousInfo__ctor_m1442166472_AdjustorThunk
TVa:__ZN9DepthPassD2Ev
jqe:_DateTime_get_Kind_m1331920314_AdjustorThunk
RH:__ZN11AudioFilter6GetDSPEv
Fcd:__ZN13Il2CppHashMapIPKcP11Il2CppClassN6il2cpp5utils11StringUtils12StringHasherIS1_EENS6_21CaseSensitiveComparerENSt3__29allocatorINSA_4pairIK10KeyWrapperIS1_ES3_EEEEEC2EjRKS8_RKS9_
ZMc:__ZN20TextRenderingPrivate15DynamicFontData36GetFaceForCharacterIfAvailableInFontERKNS_7FontRefERKNSt3__26vectorI4PPtrIN13TextRendering4FontEE13stl_allocatorIS9_L18MemLabelIdentifier34ELi16EEEEj
I1:__ZN19RuntimeSceneManager14CanUnloadSceneEP10UnityScene
hWa:__Z22ExtractRenderNodeQueueRK11CullResults15ExtractionFlagsR15RenderNodeQueue
A0e:_Array_InternalArray__set_Item_TisContentType_t1028629049_m703420360_gshared
HId:__ZN6il2cpp2vm6Method7GetNameEPK10MethodInfo
Ilf:_List_1_set_Item_m1431784996_gshared
dH:__ZN24AudioScriptBufferManagerC2Ev
Kwc:__ZN11UnityEngine9Analytics18SceneLoadTimeEvent12ToJsonStringER9JSONWrite
zMc:__ZNSt3__26vectorIh13stl_allocatorIhL18MemLabelIdentifier1ELi16EEE8__appendEj
CMc:__ZN20TextRenderingPrivate8FontImpl16ResetPackingDataEv
wDh:_TimeSpan_get_Hours_m3804628138_AdjustorThunk
wXe:_Array_InternalArray__IndexOf_TisLink_t865133271_m3612939760_gshared
orc:__Z18Transfer_BlittableI9JSONWriteLb0EfEvRK29SerializationCommandArgumentsR31RuntimeSerializationCommandInfo
pda:__Z21GetAsyncUploadManagerv
Kj:_emscripten_glDetachShader
VIh:_UIntPtr__cctor_m889490270
xWf:_SafeHandleZeroOrMinusOneIsInvalid_get_IsInvalid_m2033528032
Rce:_Char_IsUpper_m4083577610
MAa:__ZN17GenericDynamicVBO20ReleaseChunkInternalERK21DynamicVBOChunkHandlejj
sZc:__ZL27CleanupModule_TextRenderingv
wWf:_SafeHandleZeroOrMinusOneIsInvalid__ctor_m3340306667
aPj:_fmodl
Gdh:_SerializationInfo_AddValue_m902275108
oPj:_fmodf
yuf:_Collection_1_RemoveItem_m2272047354_gshared
uNb:__Z18Transfer_BlittableI18StreamedBinaryReadILb1EELb1E4AABBEvRK29SerializationCommandArgumentsR31RuntimeSerializationCommandInfo
mea:__ZN12CachedWriter11Align4WriteEv
kXa:__Z20DoDeferredRenderLoopR17RenderLoopContextR13dynamic_arrayI16RenderObjectDataLj4EES4_RK11CullResultsRP13RenderTextureSA_Pb
sra:__ZNSt3__26vectorIiNS_9allocatorIiEEE21__push_back_slow_pathIKiEEvRT_
jYg:__ZL137AnimatorControllerPlayable_t4078305555_CustomAttributesCacheGenerator_AnimatorControllerPlayable_INTERNAL_CALL_ResetTriggerID_m3592790433P21CustomAttributesCache
Vra:__ZN19RuntimeSceneManager11CreateSceneEv
Cih:_RuntimeTypeHandle__ctor_m235560320_AdjustorThunk
uUc:_ps_get_standard_strings
Cpf:_Collection_1_IsValidItem_m1908012838_gshared
gZa:__Z27SetupBakedOcclusionForLightbRK15SharedLightDataR17ShaderPassContext
qSd:__ZN6il2cpp2os5Mutex6UnlockEv
alg:__ZN21InterfaceFuncInvoker1IP13Uri_t19570940S1_E6InvokeEjP11Il2CppClassP12Il2CppObjectS1_
OLj:__ZL25UnresolvedVirtualCall_199P12Il2CppObject22Navigation_t1571958496PK10MethodInfo
gfi:_ScrollRect_OnScroll_m3346515304
gXg:__ZL137AnimatorControllerPlayable_t4078305555_CustomAttributesCacheGenerator_AnimatorControllerPlayable_CrossFadeInFixedTimeInternal_m3729673154P21CustomAttributesCache
GRj:__ZN10__cxxabiv116__shim_type_infoD2Ev
o8e:_Enumerator_System_Collections_IEnumerator_get_Current_m3461301268_gshared
_2h:_Dictionary_2_CopyToCheck_m1638253305_gshared
rRa:__Z18RenderImageFiltersR10RenderLoopb
rw:__ZN24dense_hashtable_iteratorINSt3__24pairIKN11UnityEngine9Animation14GenericBindingENS3_10BoundIndexEEES4_NS3_25GenericBindingHashFunctorEN14dense_hash_mapIS4_S6_S8_NS3_30GenericBindingValueArrayUniqueE13stl_allocatorIS7_L18MemLabelIdentifier1ELi16EEE9SelectKeyESA_SD_E30advance_past_empty_and_deletedEv
IU:__Z19free_alloc_internalPv18MemLabelIdentifier
Ggb:__ZNK23ArchiveStorageConverter16GetDirectoryInfoEv
R1c:__Z43CanvasRenderer_Get_Custom_PropMaterialCountP12Il2CppObject
FSh:__ZN23InterfaceActionInvoker2IP21Exception_t1927440687P18Object_t1021602117E6InvokeEjP11Il2CppClassP12Il2CppObjectS1_S3_
a5a:__ZN10GameObjectD2Ev
ixf:_ReadOnlyCollection_1_System_Collections_Generic_IListU3CTU3E_set_Item_m25653560_gshared
bMh:_GUIContent_t4210063000_marshal_pinvoke_cleanup
up:__ZN6Object23VirtualRedirectTransferER19StreamedBinaryWriteILb1EE
Fbc:__ZNK9BlobWrite24HasOffsetPtrWithDebugPtrEv
N8g:__ZL68Selectable_t1490392188_CustomAttributesCacheGenerator_m_InteractableP21CustomAttributesCache
oBb:__ZN33AssetBundleLoadFromAsyncOperation12IsCrc32ValidEv
H5i:_Color32_op_Implicit_m889975790
pac:__ZN19RuntimeSceneManager32LoadSceneAsyncByNameOrBuildIndexERKN4core12basic_stringIcNS0_20StringStorageDefaultIcEEEEiNS_11LoadingModeEb
_8i:_UnityEventBase_RebuildPersistentCallsIfNeeded_m1583202007
F9f:_CertificateSelectionCallback_Invoke_m2902629105
c7:__ZN10InputEventD2Ev
XLb:__Z18Transfer_BlittableI19StreamedBinaryWriteILb0EELb0E5RectTIfEEvRK29SerializationCommandArgumentsR31RuntimeSerializationCommandInfo
Vxj:_Vector2_ToString_m775491729_AdjustorThunk
U_d:_Evidence__ctor_m1638117806
jrf:__ZN21InterfaceFuncInvoker1Ib22UICharInfo_t3056636800E6InvokeEjP11Il2CppClassP12Il2CppObjectS0_
iFf:_NumberFormatter_Append_m3268121457
Std:__ZNK15dense_hashtableINSt3__24pairIK10KeyWrapperIPK14Il2CppAssemblyEPK16MonoAssemblyNameEES6_N6il2cpp5utils11PointerHashIS4_EEN14dense_hash_mapIS6_SA_SF_NS6_14EqualsComparerINS0_8equal_toIS5_EEEENS0_9allocatorISB_EEE9SelectKeyESK_SM_E3endEv
Yni:_InternalEnumerator_1_Dispose_m3578333724_AdjustorThunk
YWd:_RSA_ToXmlString_m4145056574
$aa:__Z20SetPlayerPauseDirect11PlayerPause
Wue:_Double_System_IConvertible_ToUInt64_m1318285078_AdjustorThunk
HOj:_isalpha
Odi:_Selectable_FindSelectable_m2739582497
sgb:__ZN17FileSystemHandler5TouchER13FileEntryData
zzc:__ZNK12b2MotorJoint17GetReactionTorqueEf
Ppe:_DateTimeUtils_ZeroPad_m86470512
ZUi:__Z73RuntimeInvoker_Boolean_t3825574718_CustomAttributeNamedArgument_t94157543PK10MethodInfoPvPS2_
Qid:__ZN6il2cpp2vmL17IsSocketAsyncCallEP14Il2CppDelegate
hff:_List_1_System_Collections_IEnumerable_GetEnumerator_m3458565060_gshared
JJc:__Z13RegisterClassI11Rigidbody2DEvv
ySh:_Logger_IsLogTypeAllowed_m1750132386
bLd:__ZN6il2cpp2vm6String6NewLenEPKcj
Yib:__ZN6Camera23VirtualRedirectTransferER19StreamedBinaryWriteILb0EE
THd:__ZN6il2cpp2os6Thread12GetApartmentEv
ZZa:__ZN21BillboardBatchManager24AutoBillboardShaderPropsC2ER16ShaderKeywordSetR24BuiltinShaderParamValues
GIa:__ZN9GfxDevice28UpdateComputeConstantBuffersEjP12ObjectHandleI18ConstantBuffer_TagPvEjjPKhPKjS8_PKi
Zk:_time
KVd:_RC2Transform__cctor_m4079629627
QWi:__Z60RuntimeInvoker_Void_t1841601450_ResourceCacheItem_t333236149PK10MethodInfoPvPS2_
ETc:_ps_hints_done
$9h:_EqualityComparer_1_System_Collections_IEqualityComparer_Equals_m1091252481_gshared
xLe:_Graphic_UnregisterDirtyLayoutCallback_m1724443555
Aqa:__ZN14BatchAllocator6CommitE18MemLabelIdentifier
QVc:_cf2_stack_free
f2:__ZN15dense_hashtableINSt3__24pairIKiP6ObjectEEi21InstanceIDHashFunctorN14dense_hash_mapIiS4_S6_NS0_8equal_toIiEE13stl_allocatorIS5_L18MemLabelIdentifier65ELi16EEE9SelectKeyES9_SC_E12resize_deltaEjj
jah:__ZL94LayoutGroup_t3962498969_CustomAttributesCacheGenerator_LayoutGroup_DelayedSetDirty_m4276695617P21CustomAttributesCache
MA:__ZN8Animator31ClearInternalControllerPlayableEv
Vdj:_ReliabilityContractAttribute__ctor_m1496374289
T8e:_Enumerator_VerifyState_m3913376581_gshared
O9g:__ZL72GridLayoutGroup_t1515633077_CustomAttributesCacheGenerator_m_StartCornerP21CustomAttributesCache
JOg:__ZL83U3CCreateWhereIteratorU3Ec__Iterator1D_1_t2523986802_CustomAttributesCacheGeneratorP21CustomAttributesCache
YRd:__ZN6il2cpp6icalls8mscorlib6System11Diagnostics10StackTrace9get_traceEP15Il2CppExceptionib
B0j:_glDeleteSync__wrapper
iuj:_SerializePrivateVariables__ctor_m806793207
tme:_Decimal_op_Implicit_m623319612
O0h:_ValueCollection_System_Collections_Generic_ICollectionU3CTValueU3E_Remove_m98888100_gshared
vAe:_EventTrigger_OnPointerExit_m2119176877
uCh:_ThreadAbortException__ctor_m1623816114
l1b:__ZN13ProduceHelperI30RuntimeInitializeOnLoadManagerLb0EE7ProduceE18MemLabelIdentifier18ObjectCreationMode
t3a:__ZN13RenderTexture19SetAutoGenerateMipsEb
jja:__Z20GetTextureFormatInfo13TextureFormat
apc:__Z43Register_UnityEngine_GUIStyle_get_alignmentv
Fz:__ZN26AnimatorControllerPlayable8GetFloatEiRf
rbd:__ZN6il2cpp2vm5Class4InitEP11Il2CppClass
hCe:_PointerEventData_set_worldPosition_m192283671
Xnf:_Collection_1_InsertItem_m1391780791_gshared
uUj:dynCall_iiifiiii
nOb:__ZN18StreamedBinaryReadILb1EE5AlignEv
Pyj:_Vector3_get_right_m1884123822
NQd:__ZN6il2cpp5utils10MemoryPool6MallocEj
wG:__ZN11SoundHandle8InstanceD2Ev
g9:__ZN31CanvasBatchIntermediateRenderer13StaticDestroyEPv
Ftj:_X509Store_BuildCrlsCollection_m52567568
nhd:__ZNK15dense_hashtableINSt3__24pairIK10KeyWrapperIPK11Il2CppClassEPKcEES6_N6il2cpp5utils11PointerHashIS3_EEN14dense_hash_mapIS6_S9_SE_NS6_14EqualsComparerINS0_8equal_toIS5_EEEENS0_9allocatorISA_EEE9SelectKeyESJ_SL_E10test_emptyERK24dense_hashtable_iteratorISA_S6_SE_SN_SJ_SL_E
zhh:_CallbackHandler__ctor_m1235509347
Mgc:__Z29Mesh_CUSTOM_RecalculateBoundsP12Il2CppObject
Nxf:_ReadOnlyCollection_1_System_Collections_Generic_ICollectionU3CTU3E_get_IsReadOnly_m3561954522_gshared
Fve:_Enum_ToString_m662345249
naf:_List_1_get_Capacity_m531373308_gshared
CZj:_emscripten_glBindProgramARB__wrapper
SFg:__ZL66DESCryptoServiceProvider_t933603253_CustomAttributesCacheGeneratorP21CustomAttributesCache
iec:__Z41Register_UnityEngine_CullingGroup_Disposev
Snb:__ZN7Cubemap23VirtualRedirectTransferER19StreamedBinaryWriteILb0EE
MOi:__Z100RuntimeInvoker_Void_t1841601450_Il2CppObject_Single_t2076509932_Int32_t2071877448_Single_t2076509932PK10MethodInfoPvPS2_
AKa:__ZN25MultiBlocksMemoryFileData5WriteEyyPKv
aAc:__ZNK13b2PulleyJoint16GetReactionForceEf
QBi:__Z78RuntimeInvoker_Il2CppObject_Int64_t909078037_Int64_t909078037_Int64_t909078037PK10MethodInfoPvPS2_
rsd:__ZNSt3__218uninitialized_fillIPNS_4pairIK10KeyWrapperINS1_IPK12PropertyInfoP11Il2CppClassEEEjEESB_EEvT_SD_RKT0_
chf:_List_1_System_Collections_IList_Add_m4271264217_gshared
Gji:_Action_1_BeginInvoke_m1305519803_gshared
wNa:__ZZ23InitPlayerLoopCallbacksvEN47InitializationAsyncUploadTimeSlicedUpdatestruct7ForwardEv
Aud:__ZN14dense_hash_mapI10KeyWrapperIPK10Il2CppTypeEjN6il2cpp8metadata14Il2CppTypeHashENS4_14EqualsComparerINS6_26Il2CppTypeEqualityComparerEEENSt3__29allocatorINSB_4pairIKS4_jEEEEE13set_empty_keyERSE_
Wdc:__Z35Component_CUSTOM_SendMessageUpwardsP12Il2CppObjectP12Il2CppStringS0_i
KCa:__ZL17ProgramUniform2fvPK7ApiGLESjiihPKv
Iwg:__ZL65Il2CppArray_CustomAttributesCacheGenerator_Array_Sort_m4096942812P21CustomAttributesCache
uMc:__ZN20TextRenderingPrivate8FontImpl21HasCharacterInTextureEjijfPj
Sgb:__ZN13Lz4CompressorD0Ev
bQj:_htonl
Yxa:__Z20GetBufferManagerGLESv
BWe:__ZN21InterfaceFuncInvoker1Ii18Color32_t874517518E6InvokeEjP11Il2CppClassP12Il2CppObjectS0_
wQb:__ZN18StreamedBinaryReadILb0EE21TransferSTLStyleArrayI31ArrayOfManagedObjectsTransfererEEvRT_17TransferMetaFlags
yAh:_UTF7Decoder_GetChars_m2790530452
cQj:_htons
KOi:__Z82RuntimeInvoker_Boolean_t3825574718_PlayableHandleU26_t3483893774_Int32_t2071877448PK10MethodInfoPvPS2_
Vtc:__Z18Transfer_BlittableI8JSONReadLb0EtEvRK29SerializationCommandArgumentsR31RuntimeSerializationCommandInfo
Rsd:__ZN15dense_hashtableINSt3__24pairIK10KeyWrapperINS1_IPK9EventInfoP11Il2CppClassEEEjEES9_17ReflectionMapHashIS8_EN14dense_hash_mapIS9_jSD_NS9_14EqualsComparerINS0_8equal_toIS8_EEEENS0_9allocatorISB_EEE9SelectKeyESI_SK_E12expand_arrayEjN21dense_hash_map_traits17integral_constantIbLb0EEE
XOh:_GUIStyle_t1799908754_marshal_pinvoke_back
DNa:__ZZ23InitPlayerLoopCallbacksvEN44EarlyUpdateResetFrameStatsAfterPresentstruct7ForwardEv
Vyi:__Z49RuntimeInvoker_Int32_t2071877448_Int64_t909078037PK10MethodInfoPvPS2_
kii:_Text_set_fontSize_m2101304336
eob:__ZNK7Cubemap20GetTextureLayerCountEv
X7g:__ZL68Navigation_t1571958496_CustomAttributesCacheGenerator_m_SelectOnLeftP21CustomAttributesCache
Yu:__ZN34AnimationStateMachineMixerPlayable13EndTransitionEv
XGd:__ZNSt3__212basic_stringIDsNS_11char_traitsIDsEENS_9allocatorIDsEEE9__grow_byEjjjjjj
AI:__ZN12AudioManager21FixMasterGroupRoutingEv
bZd:_SymmetricAlgorithm_set_Key_m2973350820
yIc:__ZN6b2Body9SetActiveEb
o6g:__ZL58FontData_t2614388407_CustomAttributesCacheGenerator_m_FontP21CustomAttributesCache
pmg:_WebHeaderCollection_IsHeaderValue_m1723393133
the:_Hashtable__ctor_m4280223555
EMe:_HorizontalOrVerticalLayoutGroup_get_childForceExpandWidth_m227100883
FId:__ZN6il2cpp2os10ThreadImpl33UnregisterCurrentThreadForCleanupEv
bQg:__ZL97Component_t3819376471_CustomAttributesCacheGenerator_Component_GetComponentInChildren_m3985003615P21CustomAttributesCache
Oy:__ZN27AnimationLayerMixerPlayable22PrepareAnimationEventsEfR13dynamic_arrayI22AnimationClipEventInfoLj4EE
FFb:__Z18Transfer_BlittableI14SafeBinaryReadLb1E4AABBEvRK29SerializationCommandArgumentsR31RuntimeSerializationCommandInfo
qHd:__ZN6il2cpp6icalls8mscorlib6System4Enum12get_hashcodeEP12Il2CppObject
uHd:__ZN6il2cpp6icalls8mscorlib6System9AppDomain12getCurDomainEv
yaj:_AnimatorControllerPlayable_SetInteger_m1311149575
A4f:_AppDomain_get_CurrentDomain_m3432767403
jW:__ZNK13ScreenManager16GetScreenTimeoutEv
jH:__ZN9AudioClip7WWWOpenEPKciPjPPvS4_
uOg:__ZL66Uri_t19570940_CustomAttributesCacheGenerator_Uri__ctor_m3854873816P21CustomAttributesCache
zKi:__Z79RuntimeInvoker_Void_t1841601450_Il2CppObject_Int32_t2071877448_Int64_t909078037PK10MethodInfoPvPS2_
yFb:__Z18Transfer_BlittableI14SafeBinaryReadLb0E8Vector2fEvRK29SerializationCommandArgumentsR31RuntimeSerializationCommandInfo
u9g:__ZL101ToggleGroup_t1030026315_CustomAttributesCacheGenerator_ToggleGroup_U3CAnyTogglesOnU3Em__0_m1218114300P21CustomAttributesCache
$Ed:__ZN15dense_hashtableINSt3__24pairIK10KeyWrapperINS1_IPKcS4_EEEiEES6_24NamespaceAndNamePairHashN14dense_hash_mapIS6_iS9_NS6_14EqualsComparerI26NamespaceAndNamePairEqualsEENS0_9allocatorIS8_EEE9SelectKeyESD_SF_E12resize_deltaEjj
mcj:_AnimatorControllerPlayable_PlayInFixedTime_m2562520484
R$:__ZN13RuntimeStaticINSt3__23setI19RepeatingLogMessageNS0_4lessIS2_EE13stl_allocatorIS2_L18MemLabelIdentifier70ELi16EEEELb0EE16StaticInitializeEPv
rRf:_SynchronizedReader_Peek_m282642073
jTb:__ZN15SerializeTraitsIN9ShaderLab20SerializedSubProgram16TextureParameterEE8TransferI14SafeBinaryReadEEvRS2_RT_
bbe:_Byte_System_IConvertible_ToInt16_m1575115635_AdjustorThunk
Vfj:_CrossAppDomainData_get_ProcessID_m2865289777
Mt:__ZN11UnityEngine9Animation31SetHumanTransformPropertyValuesERKNS0_21AvatarBindingConstantERKN7mecanim8skeleton13SkeletonPoseTIN4math4trsXEEEbb
CGh:_UInt16_System_IConvertible_ToUInt16_m1646506872_AdjustorThunk
hhj:_Context_get_HasGlobalDynamicSinks_m3205328884
OXf:_SimpleCollator_CompareQuick_m619038530
U8g:__ZL93Selectable_t1490392188_CustomAttributesCacheGenerator_Selectable_get_isPointerDown_m774209881P21CustomAttributesCache
Uhg:_SslStreamBase_EndRead_m1072850679
G9f:_CertificateSelectionCallback_BeginInvoke_m990408067
IIa:__ZN9GfxDevice22DispatchComputeProgramE12ObjectHandleI18ComputeProgram_TagPvEjjj
nd:_SDL_GetTicks
$of:_Collection_1_System_Collections_IList_Contains_m3345685421_gshared
k0c:__ZN2UI14CanvasRenderer11SyncCullingENS0_8SyncFlagE
prd:__ZN15dense_hashtableINSt3__24pairIK10KeyWrapperINS1_IPK11Il2CppImageP11Il2CppClassEEEjEES9_17ReflectionMapHashIS8_EN14dense_hash_mapIS9_jSD_NS9_14EqualsComparerINS0_8equal_toIS8_EEEENS0_9allocatorISB_EEE9SelectKeyESI_SK_E6insertERKSB_
dw:__Z16AppendPathToHashRKN7mecanim5crc32EPKc
X0a:__Z21CreateShadowCullerJobP30CreateUmbraShadowCullerJobData
ISh:_Material_get_mainTexture_m432794412
CCa:__ZL18ProgramUniform2uivPK7ApiGLESjiihPKv
vFj:_U3CStartU3Ec__Iterator0_System_Collections_Generic_IEnumeratorU3CobjectU3E_get_Current_m1702093362_gshared
h$j:_glUniform4iv__wrapper
E7b:__ZNK15dense_hashtableINSt3__24pairIK12TriangleEdgeiEES2_16TriangleEdgeHashN14dense_hash_mapIS2_iS5_NS0_8equal_toIS2_EENS0_9allocatorIS4_EEE9SelectKeyES8_SA_E23find_position_with_hashERS3_j
ede:_Char_GetTypeCode_m2251277629_AdjustorThunk
B8e:_Enumerator_Dispose_m3109097029_AdjustorThunk
T4h:_Dictionary_2_ToTKey_m4209561517_gshared
bVc:_cf2_computeDarkening
KY:__GLOBAL__sub_I_runtime_gfxdevice_lump_cpp
Z1i:_AsyncOperation_set_priority_m3581020444
cNd:_GC_expand_hp_inner
ufd:__ZNK15dense_hashtableINSt3__24pairIK10KeyWrapperI13dynamic_arrayIPK10Il2CppTypeLj4EEEPFvvEEES8_N6il2cpp8metadata19Il2CppSignatureHashEN14dense_hash_mapIS8_SB_SF_NS8_14EqualsComparerINSE_22Il2CppSignatureCompareEEENS0_9allocatorISC_EEE9SelectKeyESJ_SL_E12test_deletedEj
ZCd:__ZNK15dense_hashtableI10KeyWrapperIP18Il2CppGenericClassES3_N6il2cpp8metadata22Il2CppGenericClassHashEN14dense_hash_setIS3_S6_NS3_14EqualsComparerINS5_25Il2CppGenericClassCompareEEENSt3__29allocatorIS3_EEE8IdentityESA_SD_E12test_deletedEj
Gfc:__Z25Screen_Get_Custom_PropDpiv
VMb:__Z29Transfer_Blittable_ArrayFieldI19StreamedBinaryWriteILb0EEsEvRT_R9ArrayInfoRK23StaticTransferFieldInfo
yEe:_AnimationTriggers_get_disabledTrigger_m2987312382
zSa:__ZN13ComputeShader20GetCompatibleVariantE17GfxDeviceRendereri
TGd:__ZN4utf812find_invalidIPKcEET_S3_S3_
Lqg:_X509ExtensionCollection_System_Collections_ICollection_CopyTo_m3421329346
wMd:_GC_err_printf
$qh:_FieldBuilder_SetValue_m3109503557
IKe:_Graphic_OnBeforeTransformParentChanged_m1866292273
Cog:_X509Certificate2_Verify_m1574874641
n5g:__ZL58PhysicsRaycaster_t249603239_CustomAttributesCacheGeneratorP21CustomAttributesCache
hMc:__ZN20TextRenderingPrivate19NativeTextGenerator23FixLineHorizontalOffsetEiii
_9h:_EqualityComparer_1_System_Collections_IEqualityComparer_GetHashCode_m1473684243_gshared
mje:_SortedList_GetEnumerator_m1318483481
x7d:_Array_CreateInstance_m3327690220
oKe:_FontData_UnityEngine_ISerializationCallbackReceiver_OnBeforeSerialize_m2486694676
nw:__ZN7mecanim9animation19DestroyAnimationSetEPNS0_12AnimationSetERNS_6memory9AllocatorE
oLf:_IntPtr__ctor_m2996690883_AdjustorThunk
PDi:__Z64RuntimeInvoker_Double_t4078015681_Il2CppObject_Int32_t2071877448PK10MethodInfoPvPS2_
a4:__ZN14SerializedFile7ReleaseEv
jwg:__ZL69Il2CppArray_CustomAttributesCacheGenerator_Array_GetValue_m1507415734P21CustomAttributesCache
Z9a:__ZN16MemoryFileSystem4OpenER13FileEntryData14FilePermission16FileAutoBehavior
hvf:_Collection_1_Remove_m3355928137_gshared
IAi:__Z52RuntimeInvoker_UInt64_t2909196914_Decimal_t724701077PK10MethodInfoPvPS2_
U8:__ZN13RuntimeStaticI13RendererSceneLb0EE13StaticDestroyEPv
zO:__ZN12AudioManager12CleanupClassEv
tKb:__Z18Transfer_BlittableI24GenerateTypeTreeTransferLb1E12PropertyNameEvRK29SerializationCommandArgumentsR31RuntimeSerializationCommandInfo
nyb:__ZN14SafeBinaryRead21TransferSTLStyleArrayI10vector_mapIPKN5Unity4TypeE7Hash128NSt3__24lessIS5_EENS7_9allocatorINS7_4pairIS5_S6_EEEEEEEvRT_17TransferMetaFlags
iH:__ZN9AudioClip18GetQueuedAudioDataEPPvj
BWi:__Z59RuntimeInvoker_Void_t1841601450_DictionaryEntry_t3048875398PK10MethodInfoPvPS2_
d6h:_DefaultComparer_GetHashCode_m3439703487_gshared
KGd:__ZN6il2cpp2os5posix15PosixWaitObject13InterruptWaitEv
gHc:__ZN15b2ContactSolver13StoreImpulsesEv
CVa:__Z18SetShadowsKeywordsR17ShaderPassContext9LightType10ShadowType16ShadowProjectionbb
dvd:__ZN14dense_hash_mapI10KeyWrapperINSt3__24pairIPK12PropertyInfoP11Il2CppClassEEEj17ReflectionMapHashIS8_ENS9_14EqualsComparerINS1_8equal_toIS8_EEEENS1_9allocatorINS2_IKS9_jEEEEEC2EjRKSB_RKSF_
n3b:__ZN17CollisionMeshDataC2Ev
wmh:_Assembly_GetModule_m2064378601
iEj:_UnityEvent_1_AddListener_m846589010_gshared
rKg:__ZL79Convert_t2607082565_CustomAttributesCacheGenerator_Convert_ToUInt16_m3866680988P21CustomAttributesCache
Jei:_ScrollRect_SetDirty_m93243192
epb:__ZN16LightmapSettings23VirtualRedirectTransferER19StreamedBinaryWriteILb0EE
dJc:__ZN19CollisionListener2DC2Ev
YUh:_MessageTypeSubscribers__ctor_m743474932
Y_j:_glTexParameteriv__wrapper
Rqa:__ZN18IDCollectorFunctor18GenerateInstanceIDEi17TransferMetaFlags
G$e:_Array_InternalArray__set_Item_TisTableRange_t2011406615_m2386708730_gshared
Qyi:__Z40RuntimeInvoker_Il2CppObject_Il2CppObjectPK10MethodInfoPvPS2_
fHc:__ZN15b2ContactSolver9WarmStartEv
tFf:_NumberFormatter_ToDecHex_m1474793296
kQc:_ft_smooth_init
hKe:_FontData_set_richText_m29558601
LCh:_Scheduler_Change_m4063588742
Vgd:__ZN6il2cpp2vm13MetadataCache25GetMethodGenericContainerEPK10MethodInfo
B1e:_Array_Resize_TisVector2_t2243707579_m1117258774_gshared
sS:__ZN11UnityEngine15CloudWebService13WWWRestClientD0Ev
sli:_InternalEnumerator_1_Dispose_m1640363425_AdjustorThunk
euj:_HitInfo_SendMessage_m3368777144_AdjustorThunk
qwi:_Comparer_1_System_Collections_IComparer_Compare_m2490067344_gshared
TSi:__Z41RuntimeInvoker_SelectionState_t3187567897PK10MethodInfoPvPS2_
dra:__ZN17PersistentManager4LockEv
Mhc:__Z22PlayableValidityChecksRK9HPlayableb
GYi:__Z53RuntimeInvoker_RaycastHit_t87180320_Int32_t2071877448PK10MethodInfoPvPS2_
szb:__ZN15ResourceManagerD2Ev
Mff:_List_1_Insert_m2532850849_gshared
Ndc:__Z41Register_UnityEngine_Camera_GetAllCamerasv
BQg:__ZL91CullingGroup_t1091689465_CustomAttributesCacheGenerator_CullingGroup_SendEvents_m1292564468P21CustomAttributesCache
Nhf:_List_1_Sort_m2659614836_gshared
E7g:__ZL154U3CCaretBlinkU3Ec__Iterator0_t906898126_CustomAttributesCacheGenerator_U3CCaretBlinkU3Ec__Iterator0_System_Collections_IEnumerator_get_Current_m2309548992P21CustomAttributesCache
WTh:_Mesh_get_vertices_m626989480
obi:_MaskableGraphic_OnCanvasHierarchyChanged_m2012659245
uBa:__ZN4crnd12crn_unpacker10unpack_dxnEPPhjjjjjj
W7c:__ZN28PerformanceReportingSettings8TransferI14SafeBinaryReadEEvRT_
ivi:_DefaultComparer__ctor_m3668042_gshared
Ome:_Double_Parse_m2344589511
JVi:__Z122RuntimeInvoker_Int32_t2071877448_Il2CppObject_CustomAttributeTypedArgument_t1498197914_Int32_t2071877448_Int32_t2071877448PK10MethodInfoPvPS2_
czd:__ZN6il2cpp2vm22EmbeddedResourceRecordC2ERKS1_
pWb:__ZNSt3__26vectorIN9ShaderLab20SerializedSubProgram15VectorParameterENS_9allocatorIS3_EEE21__push_back_slow_pathIKS3_EEvRT_
eEi:__Z109RuntimeInvoker_Void_t1841601450_Int32U26_t455636984_Int32U26_t455636984_Int32U26_t455636984_Int32_t2071877448PK10MethodInfoPvPS2_
Nnb:__ZN9Texture2D13AwakeFromLoadE17AwakeFromLoadMode
XYf:_Kernel_SingleByteDivideInPlace_m1760318278
fXf:_MSCompatUnicodeTableUtil__cctor_m1479836795
Ioj:_PositionAssertion__ctor_m3703837499
yRe:_LayoutGroup_get_minWidth_m4111745491
UQf:_StreamWriter_Initialize_m1707678624
fGd:__ZN6il2cpp2vm3RCW14QueryInterfaceILb0EEEP14Il2CppIUnknownP15Il2CppComObjectRK10Il2CppGuid
Cei:_ScrollRect_set_verticalScrollbar_m2903688658
_Qh:_GUIStyle_INTERNAL_CALL_SetMouseTooltip_m1802284884
oka:__ZN6prcoreL17RemapGenericFloatI15TexFormatRFloat18TexFormatARGBFloatEEvPKNS_9InnerInfoE
Xfb:__ZNK21AssetBundleFileSystem4SizeERK13FileEntryData
tDg:__ZL50_Thread_t1894135853_CustomAttributesCacheGeneratorP21CustomAttributesCache
kpi:_InternalEnumerator_1_get_Current_m1047712960_gshared
GY:__GLOBAL__sub_I_runtime_camera_renderlayers_lump_cpp
H7c:__ZN11UnityEngine15PlatformWrapper20GetPlayerPrefsUInt64ERKN4core12basic_stringIcNS1_20StringStorageDefaultIcEEEEy
vZa:__ZN20ReflectionProbeCacheC2ER13BatchRendererR15RenderLoopStats
ffa:__ZN7Texture23VirtualRedirectTransferER18StreamedBinaryReadILb0EE
$di:_U3CClickRepeatU3Ec__Iterator0_System_Collections_Generic_IEnumeratorU3CobjectU3E_get_Current_m3444627780
I9:__ZN18AssetBundleManagerC2Ev
PLa:__ZNK12HandlerChain6ExistsERK13FileEntryData
AOg:__ZL61ExtensionAttribute_t1840441203_CustomAttributesCacheGeneratorP21CustomAttributesCache
kne:_Convert_ToInt32_m2734833291
m_a:__Z30FindDirectAttenuationFromProbeP18ForwardLightsBlockbiRK10RenderNodeRK23FindForwardLightsParamsf
sxb:__ZN12InputManager23VirtualRedirectTransferER24GenerateTypeTreeTransfer
_Xb:__ZN9Transform23VirtualRedirectTransferER24GenerateTypeTreeTransfer
Wna:__Z18GetLODGroupManagerv
Gjf:_List_1_Sort_m3574220472_gshared
lWb:__ZNSt3__26vectorIN9ShaderLab20SerializedSubProgram12UAVParameterENS_9allocatorIS3_EEE21__push_back_slow_pathIKS3_EEvRT_
K_i:__Z92RuntimeInvoker_Il2CppObject_CustomAttributeNamedArgument_t94157543_Il2CppObject_Il2CppObjectPK10MethodInfoPvPS2_
Nfj:_CrossAppDomainChannel_RegisterCrossAppDomainChannel_m43456045
uqg:_X509ChainElement_Count_m228862214
uEh:_TimeZone_IsDaylightSavingTime_m1840774423
JXc:_UNITY_tt_size_ready_bytecode
QKc:__ZN13TextRendering4FontD2Ev
Yma:__ZN27GenericSlowGarbageCollectorD2Ev
pKi:__Z48RuntimeInvoker_Void_t1841601450_Byte_t3683104436PK10MethodInfoPvPS2_
ONc:_UNITY_FT_Stream_Open
n$c:__GLOBAL__sub_I_runtime_ui_lump_cpp
Q0f:_PKCS1_RSAEP_m3065689068
JKa:__ZN10MemoryFile4ReadEyyPvPy
kua:__ZN13GfxDeviceGLES26UpdateViewProjectionMatrixEv
a7i:_DebugLogHandler__ctor_m3134219506
Hsa:__ZNSt3__26vectorIN22BuiltinResourceManager8ResourceENS_9allocatorIS2_EEE21__push_back_slow_pathIKS2_EEvRT_
eli:_InternalEnumerator_1_System_Collections_IEnumerator_Reset_m1181480250_AdjustorThunk
MF:__ZN4FMOD3DSP12setParameterEif
oaa:__ZN13MemoryManager16StaticInitializeEv
nzg:__ZL53StackFrame_t2050294881_CustomAttributesCacheGeneratorP21CustomAttributesCache
sf:___cxa_free_exception
eBf:_ReadOnlyCollection_1_System_Collections_ICollection_CopyTo_m4126742951_gshared
GJ:__ZN4FMOD22FakeModChannelCallbackEPv
yf:_emscripten_glValidateProgram
LRa:__ZN4Mesh10CreateMeshEv
xsd:__ZN6il2cpp2gc19AppendOnlyGCHashMapINSt3__24pairIPK9EventInfoP11Il2CppClassEEP21Il2CppReflectionEvent17ReflectionMapHashIS9_ENS2_8equal_toIS9_EEE3AddERKS9_SB_
EG:__ZN4FMOD7SystemI11createSoundEPKcjP22FMOD_CREATESOUNDEXINFOPPNS_5SoundE
Auj:_Sprite_get_associatedAlphaSplitTexture_m3617241169
Cfh:_ArrayFixupRecord_FixupImpl_m2377725358
zVc:_cf2_stack_clear
wue:_Double_System_IConvertible_ToBoolean_m4251806534_AdjustorThunk
XZf:_BigInteger_op_GreaterThanOrEqual_m1998498565
J_h:_ShimEnumerator_Reset_m2247049027_gshared
eXg:__ZL150AnimatorControllerPlayable_t4078305555_CustomAttributesCacheGenerator_AnimatorControllerPlayable_CrossFadeInFixedTimeInternal_m793606818____fixedTime4P21CustomAttributesCache
hDc:__ZN10ClipperLib11ClipperBase5ClearEv
u3a:__ZN7Texture13SetAnisoLevelEi
Nog:_X509Chain_Process_m2508784250
rIa:__ZN9GfxDevice20GetComputeBufferDataE15ComputeBufferIDPvj
Bkf:_List_1_RemoveAt_m2929488689_gshared
Twc:__ZN27PerformanceReportingManager23VirtualRedirectTransferER24GenerateTypeTreeTransfer
tJj:__ZL24UnresolvedVirtualCall_70P12Il2CppObjectS0_S0_iS0_S0_PK10MethodInfo
FPc:_raccess_guess_vfat
Y2c:__Z44Canvas_CUSTOM_GetETC1SupportedCanvasMaterialv
vtj:_X509Extension_Decode_m972859652
F8:__ZN33InstancedMeshIntermediateRenderer13StaticDestroyEPv
TIf:_Int16_Parse_m3012618547
oBd:__ZN14dense_hash_mapI10KeyWrapperIP14Il2CppIUnknownEjN6il2cpp5utils11PointerHashIS1_EENS3_14EqualsComparerINSt3__28equal_toIS2_EEEENS9_9allocatorINS9_4pairIKS3_jEEEEE13set_empty_keyERSF_
fke:_Convert__cctor_m926133987
Cjb:__Z21DestroyShadowMapCacheP14ShadowMapCache
$y:__ZN7mecanim9animation25CreateControllerWorkspaceEPKNS0_18ControllerConstantERNS_6memory9AllocatorE
aYe:_Array_InternalArray__IndexOf_TisUInt64_t2909196914_m3958307360_gshared
yLe:_Graphic_RegisterDirtyVerticesCallback_m4169445219
A4h:_Dictionary_2_get_Count_m3636113691_gshared
Dud:__ZN15dense_hashtableINSt3__24pairIK10KeyWrapperIPK10Il2CppTypeEjEES6_N6il2cpp8metadata14Il2CppTypeHashEN14dense_hash_mapIS6_jSB_NS6_14EqualsComparerINSA_26Il2CppTypeEqualityComparerEEENS0_9allocatorIS8_EEE9SelectKeyESF_SH_E14squash_deletedEv
oAd:__ZN6il2cpp2vm13LivenessState5ResetEv
kxj:_Transform_get_parent_m147407266
pqc:__ZN9JSONWrite8TransferI11KeyframeTplIfEEEvRT_PKc17TransferMetaFlags
CJi:__Z71RuntimeInvoker_Double_t4078015681_Double_t4078015681_Double_t4078015681PK10MethodInfoPvPS2_
Rhi:_Text_get_cachedTextGenerator_m224335893
_2e:_Array_swap_TisVector4_t2243707581_m3504221493_gshared
NKh:_GameObject_GetComponent_m306258075
wui:_InternalEnumerator_1_Dispose_m4229866913_AdjustorThunk
vdh:_ObjRef_get_ChannelInfo_m53840305
aJa:__ZN24BuiltinShaderParamValuesC2Ev
grc:__ZL41CreateJSONTransferFunctionScriptingTraitsv
jce:_Convert_ToInt32_m3683486440
YNf:_FileStream_get_CanWrite_m775322953
SMg:__ZL72PKCS12_t1362584795_CustomAttributesCacheGenerator_U3CU3Ef__switchU24map7P21CustomAttributesCache
ZCh:_TimerCallback_BeginInvoke_m2938818726
kOa:__Z23GetLateBehaviourManagerv
dBe:_ExecuteEvents_Execute_m2863348178
D5:__ZN10MemoryPool10DeallocateEPv
lGf:_NumberFormatInfo__ctor_m2752806684
REe:_CanvasUpdateRegistry_get_instance_m862315367
Fqf:_Collection_1_System_Collections_IList_get_IsReadOnly_m1820916678_gshared
qlj:_PatternCompiler_EmitFastRepeat_m1175707353
p4e:_Array_InternalArray__get_Item_TisKeyValuePair_2_t3716250094_m3120861630_gshared
jPc:_cff_driver_class_pic_free
$Ig:__ZL62ApplicationException_t474868623_CustomAttributesCacheGeneratorP21CustomAttributesCache
